
out.elf:     file format elf32-tradlittlemips


Disassembly of section .config_BFC02FF0:

bfc02ff0 <__config_BFC02FF0>:
bfc02ff0:	ff ff fe fa                                         ....

Disassembly of section .config_BFC02FF4:

bfc02ff4 <__config_BFC02FF4>:
bfc02ff4:	d9 79 f8 ff                                         .y..

Disassembly of section .config_BFC02FF8:

bfc02ff8 <__config_BFC02FF8>:
bfc02ff8:	db ce 6c ff                                         ..l.

Disassembly of section .config_BFC02FFC:

bfc02ffc <__config_BFC02FFC>:
bfc02ffc:	ff ff ff 7e                                         ...~

Disassembly of section .reset:

bd001970 <_reset>:
bd001970:	0f40065e 	jal	bd001978 <_startup>
bd001974:	00000000 	nop

bd001978 <_startup>:
bd001978:	401a6000 	mfc0	k0,c0_status
bd00197c:	7f5a04c0 	ext	k0,k0,0x13,0x1
bd001980:	13400005 	beqz	k0,bd001998 <_no_nmi>
bd001984:	00000000 	nop
bd001988:	3c1a9d01 	lui	k0,0x9d01
bd00198c:	275ae004 	addiu	k0,k0,-8188
bd001990:	03400008 	jr	k0
bd001994:	00000000 	nop

bd001998 <_no_nmi>:
bd001998:	3c1da002 	lui	sp,0xa002
bd00199c:	27bdfff8 	addiu	sp,sp,-8
bd0019a0:	3c1ca000 	lui	gp,0xa000
bd0019a4:	279c7ff0 	addiu	gp,gp,32752
bd0019a8:	40096002 	mfc0	t1,c0_srsctl
bd0019ac:	01205820 	add	t3,t1,zero
bd0019b0:	7d2a1e80 	ext	t2,t1,0x1a,0x4
bd0019b4:	7d494984 	ins	t1,t2,0x6,0x4
bd0019b8:	40896002 	mtc0	t1,c0_srsctl
bd0019bc:	000000c0 	ehb
bd0019c0:	41dce000 	wrpgpr	gp,gp
bd0019c4:	408b6002 	mtc0	t3,c0_srsctl
bd0019c8:	000000c0 	ehb
bd0019cc:	3c089d01 	lui	t0,0x9d01
bd0019d0:	2508e0b4 	addiu	t0,t0,-8012
bd0019d4:	0100f809 	jalr	t0
bd0019d8:	00000000 	nop

bd0019dc <_start_bss_init>:
bd0019dc:	3c08a000 	lui	t0,0xa000
bd0019e0:	25080088 	addiu	t0,t0,136
bd0019e4:	3c09a000 	lui	t1,0xa000
bd0019e8:	25290384 	addiu	t1,t1,900
bd0019ec:	10000006 	b	bd001a08 <_bss_check>
bd0019f0:	00000000 	nop

bd0019f4 <_bss_init>:
bd0019f4:	ad000000 	sw	zero,0(t0)
bd0019f8:	ad000004 	sw	zero,4(t0)
bd0019fc:	ad000008 	sw	zero,8(t0)
bd001a00:	ad00000c 	sw	zero,12(t0)
bd001a04:	25080010 	addiu	t0,t0,16

bd001a08 <_bss_check>:
bd001a08:	0109082b 	sltu	at,t0,t1
bd001a0c:	1420fff9 	bnez	at,bd0019f4 <_bss_init>
bd001a10:	00000000 	nop

bd001a14 <_dinit_init>:
bd001a14:	3c089d00 	lui	t0,0x9d00
bd001a18:	25082a18 	addiu	t0,t0,10776
bd001a1c:	8d090000 	lw	t1,0(t0)
bd001a20:	11200018 	beqz	t1,bd001a84 <_dinit_end+0x18>
bd001a24:	25080004 	addiu	t0,t0,4
bd001a28:	8d0a0000 	lw	t2,0(t0)
bd001a2c:	25080004 	addiu	t0,t0,4
bd001a30:	8d0b0000 	lw	t3,0(t0)
bd001a34:	11600009 	beqz	t3,bd001a5c <_dinit_clear>
bd001a38:	25080004 	addiu	t0,t0,4

bd001a3c <_dinit_copy>:
bd001a3c:	910c0000 	lbu	t4,0(t0)
bd001a40:	254affff 	addiu	t2,t2,-1
bd001a44:	25080001 	addiu	t0,t0,1
bd001a48:	a12c0000 	sb	t4,0(t1)
bd001a4c:	1540fffb 	bnez	t2,bd001a3c <_dinit_copy>
bd001a50:	25290001 	addiu	t1,t1,1
bd001a54:	10000005 	b	bd001a6c <_dinit_end>
bd001a58:	00000000 	nop

bd001a5c <_dinit_clear>:
bd001a5c:	a1200000 	sb	zero,0(t1)
bd001a60:	254affff 	addiu	t2,t2,-1
bd001a64:	1540fffd 	bnez	t2,bd001a5c <_dinit_clear>
bd001a68:	25290001 	addiu	t1,t1,1

bd001a6c <_dinit_end>:
bd001a6c:	25080003 	addiu	t0,t0,3
bd001a70:	240afffc 	li	t2,-4
bd001a74:	01484024 	and	t0,t2,t0
bd001a78:	8d090000 	lw	t1,0(t0)
bd001a7c:	1520ffe7 	bnez	t1,bd001a1c <_dinit_init+0x8>
bd001a80:	00000000 	nop
bd001a84:	3c090000 	lui	t1,0x0
bd001a88:	25290000 	addiu	t1,t1,0
bd001a8c:	11200010 	beqz	t1,bd001ad0 <_ramfunc_done>
bd001a90:	00000000 	nop
bd001a94:	3c090002 	lui	t1,0x2
bd001a98:	25290000 	addiu	t1,t1,0
bd001a9c:	3c0abf88 	lui	t2,0xbf88
bd001aa0:	254a2010 	addiu	t2,t2,8208
bd001aa4:	ad490000 	sw	t1,0(t2)
bd001aa8:	3c090002 	lui	t1,0x2
bd001aac:	25290000 	addiu	t1,t1,0
bd001ab0:	3c0abf88 	lui	t2,0xbf88
bd001ab4:	254a2020 	addiu	t2,t2,8224
bd001ab8:	ad490000 	sw	t1,0(t2)
bd001abc:	3c090002 	lui	t1,0x2
bd001ac0:	25290000 	addiu	t1,t1,0
bd001ac4:	3c0abf88 	lui	t2,0xbf88
bd001ac8:	254a2030 	addiu	t2,t2,8240
bd001acc:	ad490000 	sw	t1,0(t2)

bd001ad0 <_ramfunc_done>:
bd001ad0:	40804800 	mtc0	zero,c0_count
bd001ad4:	240affff 	li	t2,-1
bd001ad8:	408a5800 	mtc0	t2,c0_compare
bd001adc:	3c080040 	lui	t0,0x40
bd001ae0:	400a6000 	mfc0	t2,c0_status
bd001ae4:	010a5025 	or	t2,t0,t2
bd001ae8:	408a6000 	mtc0	t2,c0_status
bd001aec:	3c099d00 	lui	t1,0x9d00
bd001af0:	25290000 	addiu	t1,t1,0
bd001af4:	000000c0 	ehb
bd001af8:	40897801 	mtc0	t1,c0_ebase
bd001afc:	3c090000 	lui	t1,0x0
bd001b00:	25290001 	addiu	t1,t1,1
bd001b04:	240a0000 	li	t2,0
bd001b08:	7d2a4944 	ins	t2,t1,0x5,0x5
bd001b0c:	408a6001 	mtc0	t2,c0_intctl
bd001b10:	3c090080 	lui	t1,0x80
bd001b14:	40896800 	mtc0	t1,c0_cause
bd001b18:	40088000 	mfc0	t0,c0_config
bd001b1c:	7d090580 	ext	t1,t0,0x16,0x1
bd001b20:	00094c40 	sll	t1,t1,0x11
bd001b24:	40086000 	mfc0	t0,c0_status
bd001b28:	3c010058 	lui	at,0x58
bd001b2c:	01014024 	and	t0,t0,at
bd001b30:	01284025 	or	t0,t1,t0
bd001b34:	40886000 	mtc0	t0,c0_status
bd001b38:	000000c0 	ehb
bd001b3c:	3c089d01 	lui	t0,0x9d01
bd001b40:	2508e0bc 	addiu	t0,t0,-8004
bd001b44:	0100f809 	jalr	t0
bd001b48:	00000000 	nop
bd001b4c:	40086000 	mfc0	t0,c0_status
bd001b50:	3c01ffbf 	lui	at,0xffbf
bd001b54:	3421ffff 	ori	at,at,0xffff
bd001b58:	01014024 	and	t0,t0,at
bd001b5c:	40886000 	mtc0	t0,c0_status
bd001b60:	30840000 	andi	a0,a0,0x0
bd001b64:	30a50000 	andi	a1,a1,0x0
bd001b68:	3c089d01 	lui	t0,0x9d01
bd001b6c:	2508d864 	addiu	t0,t0,-10140
bd001b70:	01000008 	jr	t0
bd001b74:	00000000 	nop

Disassembly of section .bev_excpt:

bd001cf0 <_bev_exception>:
bd001cf0:	3c1a9d01 	lui	k0,0x9d01
bd001cf4:	275ad9a8 	addiu	k0,k0,-9816
bd001cf8:	03400008 	jr	k0
bd001cfc:	00000000 	nop

Disassembly of section .app_excpt:

9d000180 <_gen_exception>:
9d000180:	3c1a9d01 	lui	k0,0x9d01
9d000184:	275ac754 	addiu	k0,k0,-14508
9d000188:	03400008 	jr	k0
9d00018c:	00000000 	nop

Disassembly of section .vector_0:

9d000200 <__vector_dispatch_0>:
9d000200:	0b40368e 	j	9d00da38 <.LFE0>
9d000204:	00000000 	nop

Disassembly of section .vector_1:

9d000220 <__vector_dispatch_1>:
9d000220:	0b40368e 	j	9d00da38 <.LFE0>
9d000224:	00000000 	nop

Disassembly of section .vector_2:

9d000240 <__vector_dispatch_2>:
9d000240:	0b40368e 	j	9d00da38 <.LFE0>
9d000244:	00000000 	nop

Disassembly of section .vector_3:

9d000260 <__vector_dispatch_3>:
9d000260:	0b40368e 	j	9d00da38 <.LFE0>
9d000264:	00000000 	nop

Disassembly of section .vector_4:

9d000280 <__vector_dispatch_4>:
9d000280:	0b40368e 	j	9d00da38 <.LFE0>
9d000284:	00000000 	nop

Disassembly of section .vector_5:

9d0002a0 <__vector_dispatch_5>:
9d0002a0:	0b40368e 	j	9d00da38 <.LFE0>
9d0002a4:	00000000 	nop

Disassembly of section .vector_6:

9d0002c0 <__vector_dispatch_6>:
9d0002c0:	0b40368e 	j	9d00da38 <.LFE0>
9d0002c4:	00000000 	nop

Disassembly of section .vector_7:

9d0002e0 <__vector_dispatch_7>:
9d0002e0:	0b40368e 	j	9d00da38 <.LFE0>
9d0002e4:	00000000 	nop

Disassembly of section .vector_8:

9d000300 <__vector_dispatch_8>:
9d000300:	0b40368e 	j	9d00da38 <.LFE0>
9d000304:	00000000 	nop

Disassembly of section .vector_9:

9d000320 <__vector_dispatch_9>:
9d000320:	0b40368e 	j	9d00da38 <.LFE0>
9d000324:	00000000 	nop

Disassembly of section .vector_10:

9d000340 <__vector_dispatch_10>:
9d000340:	0b40368e 	j	9d00da38 <.LFE0>
9d000344:	00000000 	nop

Disassembly of section .vector_11:

9d000360 <__vector_dispatch_11>:
9d000360:	0b40368e 	j	9d00da38 <.LFE0>
9d000364:	00000000 	nop

Disassembly of section .vector_12:

9d000380 <__vector_dispatch_12>:
9d000380:	0b40368e 	j	9d00da38 <.LFE0>
9d000384:	00000000 	nop

Disassembly of section .vector_13:

9d0003a0 <__vector_dispatch_13>:
9d0003a0:	0b40368e 	j	9d00da38 <.LFE0>
9d0003a4:	00000000 	nop

Disassembly of section .vector_14:

9d0003c0 <__vector_dispatch_14>:
9d0003c0:	0b40368e 	j	9d00da38 <.LFE0>
9d0003c4:	00000000 	nop

Disassembly of section .vector_15:

9d0003e0 <__vector_dispatch_15>:
9d0003e0:	0b40368e 	j	9d00da38 <.LFE0>
9d0003e4:	00000000 	nop

Disassembly of section .vector_16:

9d000400 <__vector_dispatch_16>:
9d000400:	0b4013b1 	j	9d004ec4 <Timer4ISR>
9d000404:	00000000 	nop

Disassembly of section .vector_17:

9d000420 <__vector_dispatch_17>:
9d000420:	0b40368e 	j	9d00da38 <.LFE0>
9d000424:	00000000 	nop

Disassembly of section .vector_18:

9d000440 <__vector_dispatch_18>:
9d000440:	0b40368e 	j	9d00da38 <.LFE0>
9d000444:	00000000 	nop

Disassembly of section .vector_19:

9d000460 <__vector_dispatch_19>:
9d000460:	0b40368e 	j	9d00da38 <.LFE0>
9d000464:	00000000 	nop

Disassembly of section .vector_20:

9d000480 <__vector_dispatch_20>:
9d000480:	0b40368e 	j	9d00da38 <.LFE0>
9d000484:	00000000 	nop

Disassembly of section .vector_21:

9d0004a0 <__vector_dispatch_21>:
9d0004a0:	0b40368e 	j	9d00da38 <.LFE0>
9d0004a4:	00000000 	nop

Disassembly of section .vector_22:

9d0004c0 <__vector_dispatch_22>:
9d0004c0:	0b40368e 	j	9d00da38 <.LFE0>
9d0004c4:	00000000 	nop

Disassembly of section .vector_23:

9d0004e0 <__vector_dispatch_23>:
9d0004e0:	0b40368e 	j	9d00da38 <.LFE0>
9d0004e4:	00000000 	nop

Disassembly of section .vector_24:

9d000500 <__vector_dispatch_24>:
9d000500:	0b40368e 	j	9d00da38 <.LFE0>
9d000504:	00000000 	nop

Disassembly of section .vector_25:

9d000520 <__vector_dispatch_25>:
9d000520:	0b40368e 	j	9d00da38 <.LFE0>
9d000524:	00000000 	nop

Disassembly of section .vector_26:

9d000540 <__vector_dispatch_26>:
9d000540:	0b40368e 	j	9d00da38 <.LFE0>
9d000544:	00000000 	nop

Disassembly of section .vector_27:

9d000560 <__vector_dispatch_27>:
9d000560:	0b40368e 	j	9d00da38 <.LFE0>
9d000564:	00000000 	nop

Disassembly of section .vector_28:

9d000580 <__vector_dispatch_28>:
9d000580:	0b40368e 	j	9d00da38 <.LFE0>
9d000584:	00000000 	nop

Disassembly of section .vector_29:

9d0005a0 <__vector_dispatch_29>:
9d0005a0:	0b40368e 	j	9d00da38 <.LFE0>
9d0005a4:	00000000 	nop

Disassembly of section .vector_30:

9d0005c0 <__vector_dispatch_30>:
9d0005c0:	0b40368e 	j	9d00da38 <.LFE0>
9d0005c4:	00000000 	nop

Disassembly of section .vector_31:

9d0005e0 <__vector_dispatch_31>:
9d0005e0:	0b40368e 	j	9d00da38 <.LFE0>
9d0005e4:	00000000 	nop

Disassembly of section .vector_32:

9d000600 <__vector_dispatch_32>:
9d000600:	0b40368e 	j	9d00da38 <.LFE0>
9d000604:	00000000 	nop

Disassembly of section .vector_33:

9d000620 <__vector_dispatch_33>:
9d000620:	0b40368e 	j	9d00da38 <.LFE0>
9d000624:	00000000 	nop

Disassembly of section .vector_34:

9d000640 <__vector_dispatch_34>:
9d000640:	0b40368e 	j	9d00da38 <.LFE0>
9d000644:	00000000 	nop

Disassembly of section .vector_35:

9d000660 <__vector_dispatch_35>:
9d000660:	0b40368e 	j	9d00da38 <.LFE0>
9d000664:	00000000 	nop

Disassembly of section .vector_36:

9d000680 <__vector_dispatch_36>:
9d000680:	0b40368e 	j	9d00da38 <.LFE0>
9d000684:	00000000 	nop

Disassembly of section .vector_37:

9d0006a0 <__vector_dispatch_37>:
9d0006a0:	0b40368e 	j	9d00da38 <.LFE0>
9d0006a4:	00000000 	nop

Disassembly of section .vector_38:

9d0006c0 <__vector_dispatch_38>:
9d0006c0:	0b40368e 	j	9d00da38 <.LFE0>
9d0006c4:	00000000 	nop

Disassembly of section .vector_39:

9d0006e0 <__vector_dispatch_39>:
9d0006e0:	0b40368e 	j	9d00da38 <.LFE0>
9d0006e4:	00000000 	nop

Disassembly of section .vector_40:

9d000700 <__vector_dispatch_40>:
9d000700:	0b40368e 	j	9d00da38 <.LFE0>
9d000704:	00000000 	nop

Disassembly of section .vector_41:

9d000720 <__vector_dispatch_41>:
9d000720:	0b40368e 	j	9d00da38 <.LFE0>
9d000724:	00000000 	nop

Disassembly of section .vector_42:

9d000740 <__vector_dispatch_42>:
9d000740:	0b40368e 	j	9d00da38 <.LFE0>
9d000744:	00000000 	nop

Disassembly of section .vector_43:

9d000760 <__vector_dispatch_43>:
9d000760:	0b40368e 	j	9d00da38 <.LFE0>
9d000764:	00000000 	nop

Disassembly of section .vector_44:

9d000780 <__vector_dispatch_44>:
9d000780:	0b40368e 	j	9d00da38 <.LFE0>
9d000784:	00000000 	nop

Disassembly of section .vector_45:

9d0007a0 <__vector_dispatch_45>:
9d0007a0:	0b40368e 	j	9d00da38 <.LFE0>
9d0007a4:	00000000 	nop

Disassembly of section .vector_46:

9d0007c0 <__vector_dispatch_46>:
9d0007c0:	0b40368e 	j	9d00da38 <.LFE0>
9d0007c4:	00000000 	nop

Disassembly of section .vector_47:

9d0007e0 <__vector_dispatch_47>:
9d0007e0:	0b40368e 	j	9d00da38 <.LFE0>
9d0007e4:	00000000 	nop

Disassembly of section .vector_48:

9d000800 <__vector_dispatch_48>:
9d000800:	0b40368e 	j	9d00da38 <.LFE0>
9d000804:	00000000 	nop

Disassembly of section .vector_49:

9d000820 <__vector_dispatch_49>:
9d000820:	0b40368e 	j	9d00da38 <.LFE0>
9d000824:	00000000 	nop

Disassembly of section .vector_50:

9d000840 <__vector_dispatch_50>:
9d000840:	0b40368e 	j	9d00da38 <.LFE0>
9d000844:	00000000 	nop

Disassembly of section .vector_51:

9d000860 <__vector_dispatch_51>:
9d000860:	0b40368e 	j	9d00da38 <.LFE0>
9d000864:	00000000 	nop

Disassembly of section ._debug_exception:

bfc00480 <__DbgExecReturn>:
bfc00480:	409bf800 	mtc0	k1,c0_desave
bfc00484:	000000c0 	ehb
bfc00488:	3c1b9d01 	lui	k1,0x9d01
bfc0048c:	277bdac8 	addiu	k1,k1,-9528
bfc00490:	13600002 	beqz	k1,bfc0049c <__DbgExecReturn+0x1c>
bfc00494:	00000000 	nop
bfc00498:	409bc000 	mtc0	k1,c0_depc
bfc0049c:	401bf800 	mfc0	k1,c0_desave
bfc004a0:	000000c0 	ehb
bfc004a4:	4200001f 	deret
bfc004a8:	00000000 	nop

Disassembly of section .text.do_scan:

9d001e00 <do_scan>:
9d001e00:	27bdff00 	addiu	sp,sp,-256
9d001e04:	afbf00fc 	sw	ra,252(sp)
9d001e08:	afbe00f8 	sw	s8,248(sp)
9d001e0c:	afb700f4 	sw	s7,244(sp)
9d001e10:	afb600f0 	sw	s6,240(sp)
9d001e14:	afb500ec 	sw	s5,236(sp)
9d001e18:	afb400e8 	sw	s4,232(sp)
9d001e1c:	afb300e4 	sw	s3,228(sp)
9d001e20:	afb200e0 	sw	s2,224(sp)
9d001e24:	afb100dc 	sw	s1,220(sp)
9d001e28:	afb000d8 	sw	s0,216(sp)
9d001e2c:	00809821 	move	s3,a0
9d001e30:	8c820018 	lw	v0,24(a0)
9d001e34:	00a08021 	move	s0,a1
9d001e38:	24050002 	li	a1,2
9d001e3c:	8c420010 	lw	v0,16(v0)
9d001e40:	0040f809 	jalr	v0
9d001e44:	00c08821 	move	s1,a2
9d001e48:	104000a2 	beqz	v0,9d0020d4 <do_scan+0x2d4>
9d001e4c:	2402ffff 	li	v0,-1
9d001e50:	afb30098 	sw	s3,152(sp)
9d001e54:	afa2009c 	sw	v0,156(sp)
9d001e58:	afb100a4 	sw	s1,164(sp)
9d001e5c:	afa000ac 	sw	zero,172(sp)
9d001e60:	afa000b0 	sw	zero,176(sp)
9d001e64:	afa000a8 	sw	zero,168(sp)
9d001e68:	02002821 	move	a1,s0
9d001e6c:	0000f021 	move	s8,zero
9d001e70:	3c109d01 	lui	s0,0x9d01
9d001e74:	2610bf79 	addiu	s0,s0,-16519
9d001e78:	3c159d00 	lui	s5,0x9d00
9d001e7c:	24a20001 	addiu	v0,a1,1
9d001e80:	afa200a0 	sw	v0,160(sp)
9d001e84:	80b10000 	lb	s1,0(a1)
9d001e88:	12200012 	beqz	s1,9d001ed4 <do_scan+0xd4>
9d001e8c:	26b51ff8 	addiu	s5,s5,8184
9d001e90:	17c00010 	bnez	s8,9d001ed4 <do_scan+0xd4>
9d001e94:	24020025 	li	v0,37
9d001e98:	12220033 	beq	s1,v0,9d001f68 <do_scan+0x168>
9d001e9c:	02301021 	addu	v0,s1,s0
9d001ea0:	80420000 	lb	v0,0(v0)
9d001ea4:	30420088 	andi	v0,v0,0x88
9d001ea8:	10400021 	beqz	v0,9d001f30 <do_scan+0x130>
9d001eac:	27a40098 	addiu	a0,sp,152
9d001eb0:	0f4033ca 	jal	9d00cf28 <_eat_white>
9d001eb4:	00000000 	nop
9d001eb8:	0040f021 	move	s8,v0
9d001ebc:	8fa500a0 	lw	a1,160(sp)
9d001ec0:	24a20001 	addiu	v0,a1,1
9d001ec4:	afa200a0 	sw	v0,160(sp)
9d001ec8:	80b10000 	lb	s1,0(a1)
9d001ecc:	1620fff0 	bnez	s1,9d001e90 <do_scan+0x90>
9d001ed0:	00000000 	nop
9d001ed4:	8fa4009c 	lw	a0,156(sp)
9d001ed8:	2402ffff 	li	v0,-1
9d001edc:	10820005 	beq	a0,v0,9d001ef4 <do_scan+0xf4>
9d001ee0:	00000000 	nop
9d001ee4:	96620010 	lhu	v0,16(s3)
9d001ee8:	30420080 	andi	v0,v0,0x80
9d001eec:	1040008d 	beqz	v0,9d002124 <do_scan+0x324>
9d001ef0:	2402ffff 	li	v0,-1
9d001ef4:	13c20075 	beq	s8,v0,9d0020cc <do_scan+0x2cc>
9d001ef8:	8fa200ac 	lw	v0,172(sp)
9d001efc:	8fa200b0 	lw	v0,176(sp)
9d001f00:	8fbf00fc 	lw	ra,252(sp)
9d001f04:	8fbe00f8 	lw	s8,248(sp)
9d001f08:	8fb700f4 	lw	s7,244(sp)
9d001f0c:	8fb600f0 	lw	s6,240(sp)
9d001f10:	8fb500ec 	lw	s5,236(sp)
9d001f14:	8fb400e8 	lw	s4,232(sp)
9d001f18:	8fb300e4 	lw	s3,228(sp)
9d001f1c:	8fb200e0 	lw	s2,224(sp)
9d001f20:	8fb100dc 	lw	s1,220(sp)
9d001f24:	8fb000d8 	lw	s0,216(sp)
9d001f28:	03e00008 	jr	ra
9d001f2c:	27bd0100 	addiu	sp,sp,256
9d001f30:	0f40359f 	jal	9d00d67c <.LFE0>
9d001f34:	00000000 	nop
9d001f38:	2403ffff 	li	v1,-1
9d001f3c:	504301ce 	beql	v0,v1,9d002678 <do_scan+0x878>
9d001f40:	241effff 	li	s8,-1
9d001f44:	5222ffde 	beql	s1,v0,9d001ec0 <do_scan+0xc0>
9d001f48:	8fa500a0 	lw	a1,160(sp)
9d001f4c:	afa2009c 	sw	v0,156(sp)
9d001f50:	241e0001 	li	s8,1
9d001f54:	8fa200a8 	lw	v0,168(sp)
9d001f58:	2442ffff 	addiu	v0,v0,-1
9d001f5c:	afa200a8 	sw	v0,168(sp)
9d001f60:	0b4007b0 	j	9d001ec0 <do_scan+0xc0>
9d001f64:	8fa500a0 	lw	a1,160(sp)
9d001f68:	24a20002 	addiu	v0,a1,2
9d001f6c:	afa200a0 	sw	v0,160(sp)
9d001f70:	80b20001 	lb	s2,1(a1)
9d001f74:	125101a1 	beq	s2,s1,9d0025fc <do_scan+0x7fc>
9d001f78:	2402002a 	li	v0,42
9d001f7c:	124200dd 	beq	s2,v0,9d0022f4 <do_scan+0x4f4>
9d001f80:	00008821 	move	s1,zero
9d001f84:	02121021 	addu	v0,s0,s2
9d001f88:	90420000 	lbu	v0,0(v0)
9d001f8c:	30420004 	andi	v0,v0,0x4
9d001f90:	144000c1 	bnez	v0,9d002298 <do_scan+0x498>
9d001f94:	3c167fff 	lui	s6,0x7fff
9d001f98:	36d6ffff 	ori	s6,s6,0xffff
9d001f9c:	24020068 	li	v0,104
9d001fa0:	124200cc 	beq	s2,v0,9d0022d4 <do_scan+0x4d4>
9d001fa4:	afb600d0 	sw	s6,208(sp)
9d001fa8:	2a420069 	slti	v0,s2,105
9d001fac:	144000b2 	bnez	v0,9d002278 <do_scan+0x478>
9d001fb0:	2402006c 	li	v0,108
9d001fb4:	12420054 	beq	s2,v0,9d002108 <do_scan+0x308>
9d001fb8:	8fa300a0 	lw	v1,160(sp)
9d001fbc:	24020071 	li	v0,113
9d001fc0:	16420005 	bne	s2,v0,9d001fd8 <do_scan+0x1d8>
9d001fc4:	8fa200a0 	lw	v0,160(sp)
9d001fc8:	36310800 	ori	s1,s1,0x800
9d001fcc:	24430001 	addiu	v1,v0,1
9d001fd0:	afa300a0 	sw	v1,160(sp)
9d001fd4:	80520000 	lb	s2,0(v0)
9d001fd8:	2652ffbc 	addiu	s2,s2,-68
9d001fdc:	2e420035 	sltiu	v0,s2,53
9d001fe0:	104001be 	beqz	v0,9d0026dc <do_scan+0x8dc>
9d001fe4:	00129080 	sll	s2,s2,0x2
9d001fe8:	02b29021 	addu	s2,s5,s2
9d001fec:	8e420000 	lw	v0,0(s2)
9d001ff0:	00400008 	jr	v0
9d001ff4:	00000000 	nop
9d001ff8:	9d002140 	0x9d002140
9d001ffc:	9d002410 	0x9d002410
9d002000:	9d002410 	0x9d002410
9d002004:	9d002410 	0x9d002410
9d002008:	9d0026dc 	0x9d0026dc
9d00200c:	9d0026dc 	0x9d0026dc
9d002010:	9d0026dc 	0x9d0026dc
9d002014:	9d0026dc 	0x9d0026dc
9d002018:	9d0026dc 	0x9d0026dc
9d00201c:	9d0026dc 	0x9d0026dc
9d002020:	9d0026dc 	0x9d0026dc
9d002024:	9d002400 	0x9d002400
9d002028:	9d0026dc 	0x9d0026dc
9d00202c:	9d0026dc 	0x9d0026dc
9d002030:	9d0026dc 	0x9d0026dc
9d002034:	9d0026dc 	0x9d0026dc
9d002038:	9d0026dc 	0x9d0026dc
9d00203c:	9d0023f0 	0x9d0023f0
9d002040:	9d0026dc 	0x9d0026dc
9d002044:	9d0026dc 	0x9d0026dc
9d002048:	9d0023e4 	0x9d0023e4
9d00204c:	9d0026dc 	0x9d0026dc
9d002050:	9d0026dc 	0x9d0026dc
9d002054:	9d002354 	0x9d002354
9d002058:	9d0026dc 	0x9d0026dc
9d00205c:	9d0026dc 	0x9d0026dc
9d002060:	9d0026dc 	0x9d0026dc
9d002064:	9d0026dc 	0x9d0026dc
9d002068:	9d0026dc 	0x9d0026dc
9d00206c:	9d0026dc 	0x9d0026dc
9d002070:	9d0026dc 	0x9d0026dc
9d002074:	9d002314 	0x9d002314
9d002078:	9d002144 	0x9d002144
9d00207c:	9d002410 	0x9d002410
9d002080:	9d002410 	0x9d002410
9d002084:	9d002410 	0x9d002410
9d002088:	9d0026dc 	0x9d0026dc
9d00208c:	9d00237c 	0x9d00237c
9d002090:	9d0026dc 	0x9d0026dc
9d002094:	9d0026dc 	0x9d0026dc
9d002098:	9d0026dc 	0x9d0026dc
9d00209c:	9d0026dc 	0x9d0026dc
9d0020a0:	9d002388 	0x9d002388
9d0020a4:	9d002308 	0x9d002308
9d0020a8:	9d0023e4 	0x9d0023e4
9d0020ac:	9d0026dc 	0x9d0026dc
9d0020b0:	9d0026dc 	0x9d0026dc
9d0020b4:	9d0023c4 	0x9d0023c4
9d0020b8:	9d0026dc 	0x9d0026dc
9d0020bc:	9d002148 	0x9d002148
9d0020c0:	9d0026dc 	0x9d0026dc
9d0020c4:	9d0026dc 	0x9d0026dc
9d0020c8:	9d0023e4 	0x9d0023e4
9d0020cc:	1440ff8c 	bnez	v0,9d001f00 <do_scan+0x100>
9d0020d0:	8fa200b0 	lw	v0,176(sp)
9d0020d4:	2402ffff 	li	v0,-1
9d0020d8:	8fbf00fc 	lw	ra,252(sp)
9d0020dc:	8fbe00f8 	lw	s8,248(sp)
9d0020e0:	8fb700f4 	lw	s7,244(sp)
9d0020e4:	8fb600f0 	lw	s6,240(sp)
9d0020e8:	8fb500ec 	lw	s5,236(sp)
9d0020ec:	8fb400e8 	lw	s4,232(sp)
9d0020f0:	8fb300e4 	lw	s3,228(sp)
9d0020f4:	8fb200e0 	lw	s2,224(sp)
9d0020f8:	8fb100dc 	lw	s1,220(sp)
9d0020fc:	8fb000d8 	lw	s0,216(sp)
9d002100:	03e00008 	jr	ra
9d002104:	27bd0100 	addiu	sp,sp,256
9d002108:	24640001 	addiu	a0,v1,1
9d00210c:	afa400a0 	sw	a0,160(sp)
9d002110:	80720000 	lb	s2,0(v1)
9d002114:	12420118 	beq	s2,v0,9d002578 <do_scan+0x778>
9d002118:	24620002 	addiu	v0,v1,2
9d00211c:	0b4007f6 	j	9d001fd8 <do_scan+0x1d8>
9d002120:	36310200 	ori	s1,s1,0x200
9d002124:	0f402d9e 	jal	9d00b678 <ungetc>
9d002128:	8fa50098 	lw	a1,152(sp)
9d00212c:	2402ffff 	li	v0,-1
9d002130:	57c2ff73 	bnel	s8,v0,9d001f00 <do_scan+0x100>
9d002134:	8fa200b0 	lw	v0,176(sp)
9d002138:	0b400833 	j	9d0020cc <do_scan+0x2cc>
9d00213c:	8fa200ac 	lw	v0,172(sp)
9d002140:	36310200 	ori	s1,s1,0x200
9d002144:	36311000 	ori	s1,s1,0x1000
9d002148:	2403000a 	li	v1,10
9d00214c:	afa300d4 	sw	v1,212(sp)
9d002150:	0f4033ca 	jal	9d00cf28 <_eat_white>
9d002154:	27a40098 	addiu	a0,sp,152
9d002158:	1440ff58 	bnez	v0,9d001ebc <do_scan+0xbc>
9d00215c:	0040f021 	move	s8,v0
9d002160:	27a40018 	addiu	a0,sp,24
9d002164:	afa400cc 	sw	a0,204(sp)
9d002168:	8fa200d0 	lw	v0,208(sp)
9d00216c:	1440010a 	bnez	v0,9d002598 <do_scan+0x798>
9d002170:	00009021 	move	s2,zero
9d002174:	27b60018 	addiu	s6,sp,24
9d002178:	8fa300d4 	lw	v1,212(sp)
9d00217c:	106000f9 	beqz	v1,9d002564 <do_scan+0x764>
9d002180:	2417ffff 	li	s7,-1
9d002184:	24020010 	li	v0,16
9d002188:	8fa300d4 	lw	v1,212(sp)
9d00218c:	10620159 	beq	v1,v0,9d0026f4 <do_scan+0x8f4>
9d002190:	24020030 	li	v0,48
9d002194:	24020008 	li	v0,8
9d002198:	8fa300d4 	lw	v1,212(sp)
9d00219c:	146200f4 	bne	v1,v0,9d002570 <do_scan+0x770>
9d0021a0:	3c029d01 	lui	v0,0x9d01
9d0021a4:	24030008 	li	v1,8
9d0021a8:	afa300d4 	sw	v1,212(sp)
9d0021ac:	3c049d01 	lui	a0,0x9d01
9d0021b0:	2494dd04 	addiu	s4,a0,-8956
9d0021b4:	2403ffff 	li	v1,-1
9d0021b8:	12e30009 	beq	s7,v1,9d0021e0 <do_scan+0x3e0>
9d0021bc:	02802021 	move	a0,s4
9d0021c0:	0f40315f 	jal	9d00c57c <strchr>
9d0021c4:	02e02821 	move	a1,s7
9d0021c8:	1040011c 	beqz	v0,9d00263c <do_scan+0x83c>
9d0021cc:	26c20001 	addiu	v0,s6,1
9d0021d0:	afa200cc 	sw	v0,204(sp)
9d0021d4:	16400120 	bnez	s2,9d002658 <do_scan+0x858>
9d0021d8:	a2d70000 	sb	s7,0(s6)
9d0021dc:	8fb600cc 	lw	s6,204(sp)
9d0021e0:	a2c00000 	sb	zero,0(s6)
9d0021e4:	2417ffff 	li	s7,-1
9d0021e8:	32340800 	andi	s4,s1,0x800
9d0021ec:	32361000 	andi	s6,s1,0x1000
9d0021f0:	27a40018 	addiu	a0,sp,24
9d0021f4:	27a500cc 	addiu	a1,sp,204
9d0021f8:	12800109 	beqz	s4,9d002620 <do_scan+0x820>
9d0021fc:	8fa600d4 	lw	a2,212(sp)
9d002200:	12c00125 	beqz	s6,9d002698 <do_scan+0x898>
9d002204:	00000000 	nop
9d002208:	0f402115 	jal	9d008454 <.LFE23>
9d00220c:	00000000 	nop
9d002210:	00402021 	move	a0,v0
9d002214:	00602821 	move	a1,v1
9d002218:	00001021 	move	v0,zero
9d00221c:	8fa300ac 	lw	v1,172(sp)
9d002220:	24630001 	addiu	v1,v1,1
9d002224:	afa300ac 	sw	v1,172(sp)
9d002228:	8fa300d0 	lw	v1,208(sp)
9d00222c:	10720114 	beq	v1,s2,9d002680 <do_scan+0x880>
9d002230:	32230001 	andi	v1,s1,0x1
9d002234:	5460ff22 	bnezl	v1,9d001ec0 <do_scan+0xc0>
9d002238:	8fa500a0 	lw	a1,160(sp)
9d00223c:	56800121 	bnezl	s4,9d0026c4 <do_scan+0x8c4>
9d002240:	8fa200a4 	lw	v0,164(sp)
9d002244:	32230200 	andi	v1,s1,0x200
9d002248:	10600170 	beqz	v1,9d00280c <do_scan+0xa0c>
9d00224c:	32230100 	andi	v1,s1,0x100
9d002250:	8fa300a4 	lw	v1,164(sp)
9d002254:	24640004 	addiu	a0,v1,4
9d002258:	afa400a4 	sw	a0,164(sp)
9d00225c:	8c630000 	lw	v1,0(v1)
9d002260:	ac620000 	sw	v0,0(v1)
9d002264:	8fa200b0 	lw	v0,176(sp)
9d002268:	24420001 	addiu	v0,v0,1
9d00226c:	afa200b0 	sw	v0,176(sp)
9d002270:	0b4007b0 	j	9d001ec0 <do_scan+0xc0>
9d002274:	8fa500a0 	lw	a1,160(sp)
9d002278:	2402004c 	li	v0,76
9d00227c:	1642ff56 	bne	s2,v0,9d001fd8 <do_scan+0x1d8>
9d002280:	8fa200a0 	lw	v0,160(sp)
9d002284:	36310400 	ori	s1,s1,0x400
9d002288:	24430001 	addiu	v1,v0,1
9d00228c:	afa300a0 	sw	v1,160(sp)
9d002290:	0b4007f6 	j	9d001fd8 <do_scan+0x1d8>
9d002294:	80520000 	lb	s2,0(v0)
9d002298:	27a500a0 	addiu	a1,sp,160
9d00229c:	2406000a 	li	a2,10
9d0022a0:	8fa200a0 	lw	v0,160(sp)
9d0022a4:	2442ffff 	addiu	v0,v0,-1
9d0022a8:	00402021 	move	a0,v0
9d0022ac:	0f402697 	jal	9d009a5c <strtoul>
9d0022b0:	afa200a0 	sw	v0,160(sp)
9d0022b4:	afa200d0 	sw	v0,208(sp)
9d0022b8:	8fa200a0 	lw	v0,160(sp)
9d0022bc:	24430001 	addiu	v1,v0,1
9d0022c0:	afa300a0 	sw	v1,160(sp)
9d0022c4:	80520000 	lb	s2,0(v0)
9d0022c8:	24020068 	li	v0,104
9d0022cc:	5642ff37 	bnel	s2,v0,9d001fac <do_scan+0x1ac>
9d0022d0:	2a420069 	slti	v0,s2,105
9d0022d4:	8fa300a0 	lw	v1,160(sp)
9d0022d8:	24640001 	addiu	a0,v1,1
9d0022dc:	afa400a0 	sw	a0,160(sp)
9d0022e0:	80720000 	lb	s2,0(v1)
9d0022e4:	124200a8 	beq	s2,v0,9d002588 <do_scan+0x788>
9d0022e8:	24620002 	addiu	v0,v1,2
9d0022ec:	0b4007f6 	j	9d001fd8 <do_scan+0x1d8>
9d0022f0:	36310100 	ori	s1,s1,0x100
9d0022f4:	24a20003 	addiu	v0,a1,3
9d0022f8:	afa200a0 	sw	v0,160(sp)
9d0022fc:	80b20002 	lb	s2,2(a1)
9d002300:	0b4007e1 	j	9d001f84 <do_scan+0x184>
9d002304:	24110001 	li	s1,1
9d002308:	24030008 	li	v1,8
9d00230c:	0b400854 	j	9d002150 <do_scan+0x350>
9d002310:	afa300d4 	sw	v1,212(sp)
9d002314:	3c077fff 	lui	a3,0x7fff
9d002318:	34e7ffff 	ori	a3,a3,0xffff
9d00231c:	8fa300d0 	lw	v1,208(sp)
9d002320:	00673826 	xor	a3,v1,a3
9d002324:	27a20098 	addiu	v0,sp,152
9d002328:	afa20010 	sw	v0,16(sp)
9d00232c:	00002021 	move	a0,zero
9d002330:	00002821 	move	a1,zero
9d002334:	02203021 	move	a2,s1
9d002338:	24020001 	li	v0,1
9d00233c:	0047180a 	movz	v1,v0,a3
9d002340:	0f4025f6 	jal	9d0097d8 <_strtostr>
9d002344:	00603821 	move	a3,v1
9d002348:	0040f021 	move	s8,v0
9d00234c:	0b4007b0 	j	9d001ec0 <do_scan+0xc0>
9d002350:	8fa500a0 	lw	a1,160(sp)
9d002354:	27a20098 	addiu	v0,sp,152
9d002358:	afa20010 	sw	v0,16(sp)
9d00235c:	24040002 	li	a0,2
9d002360:	24050001 	li	a1,1
9d002364:	02203021 	move	a2,s1
9d002368:	0f4025f6 	jal	9d0097d8 <_strtostr>
9d00236c:	8fa700d0 	lw	a3,208(sp)
9d002370:	0040f021 	move	s8,v0
9d002374:	0b4007b0 	j	9d001ec0 <do_scan+0xc0>
9d002378:	8fa500a0 	lw	a1,160(sp)
9d00237c:	36311000 	ori	s1,s1,0x1000
9d002380:	0b400854 	j	9d002150 <do_scan+0x350>
9d002384:	afa000d4 	sw	zero,212(sp)
9d002388:	32220001 	andi	v0,s1,0x1
9d00238c:	1440fecc 	bnez	v0,9d001ec0 <do_scan+0xc0>
9d002390:	8fa500a0 	lw	a1,160(sp)
9d002394:	32230800 	andi	v1,s1,0x800
9d002398:	10600112 	beqz	v1,9d0027e4 <do_scan+0x9e4>
9d00239c:	8fa200a8 	lw	v0,168(sp)
9d0023a0:	8fa300a4 	lw	v1,164(sp)
9d0023a4:	000227c3 	sra	a0,v0,0x1f
9d0023a8:	24650004 	addiu	a1,v1,4
9d0023ac:	afa500a4 	sw	a1,164(sp)
9d0023b0:	8c630000 	lw	v1,0(v1)
9d0023b4:	ac620000 	sw	v0,0(v1)
9d0023b8:	ac640004 	sw	a0,4(v1)
9d0023bc:	0b4007b0 	j	9d001ec0 <do_scan+0xc0>
9d0023c0:	8fa500a0 	lw	a1,160(sp)
9d0023c4:	0f4033ca 	jal	9d00cf28 <_eat_white>
9d0023c8:	27a40098 	addiu	a0,sp,152
9d0023cc:	1440febb 	bnez	v0,9d001ebc <do_scan+0xbc>
9d0023d0:	0040f021 	move	s8,v0
9d0023d4:	27a20098 	addiu	v0,sp,152
9d0023d8:	afa20010 	sw	v0,16(sp)
9d0023dc:	0b4008d8 	j	9d002360 <do_scan+0x560>
9d0023e0:	24040001 	li	a0,1
9d0023e4:	24030010 	li	v1,16
9d0023e8:	0b400854 	j	9d002150 <do_scan+0x350>
9d0023ec:	afa300d4 	sw	v1,212(sp)
9d0023f0:	36310200 	ori	s1,s1,0x200
9d0023f4:	2403000a 	li	v1,10
9d0023f8:	0b400854 	j	9d002150 <do_scan+0x350>
9d0023fc:	afa300d4 	sw	v1,212(sp)
9d002400:	36310200 	ori	s1,s1,0x200
9d002404:	24030008 	li	v1,8
9d002408:	0b400854 	j	9d002150 <do_scan+0x350>
9d00240c:	afa300d4 	sw	v1,212(sp)
9d002410:	0f4033ca 	jal	9d00cf28 <_eat_white>
9d002414:	27a40098 	addiu	a0,sp,152
9d002418:	1440fea8 	bnez	v0,9d001ebc <do_scan+0xbc>
9d00241c:	0040f021 	move	s8,v0
9d002420:	8fa400d0 	lw	a0,208(sp)
9d002424:	afa400b8 	sw	a0,184(sp)
9d002428:	27a20098 	addiu	v0,sp,152
9d00242c:	afa200b4 	sw	v0,180(sp)
9d002430:	27a20018 	addiu	v0,sp,24
9d002434:	afa200bc 	sw	v0,188(sp)
9d002438:	afa000c0 	sw	zero,192(sp)
9d00243c:	24020080 	li	v0,128
9d002440:	afa200c4 	sw	v0,196(sp)
9d002444:	14800109 	bnez	a0,9d00286c <do_scan+0xa6c>
9d002448:	afa000c8 	sw	zero,200(sp)
9d00244c:	3c049d01 	lui	a0,0x9d01
9d002450:	2482bf78 	addiu	v0,a0,-16520
9d002454:	2416ffff 	li	s6,-1
9d002458:	0000a021 	move	s4,zero
9d00245c:	0b40091d 	j	9d002474 <do_scan+0x674>
9d002460:	27b200b4 	addiu	s2,sp,180
9d002464:	0f402f58 	jal	9d00bd60 <putget.2780>
9d002468:	02c02021 	move	a0,s6
9d00246c:	0040b021 	move	s6,v0
9d002470:	02021021 	addu	v0,s0,v0
9d002474:	90420000 	lbu	v0,0(v0)
9d002478:	30420004 	andi	v0,v0,0x4
9d00247c:	1440fff9 	bnez	v0,9d002464 <do_scan+0x664>
9d002480:	02407821 	move	t7,s2
9d002484:	2402002e 	li	v0,46
9d002488:	12c20135 	beq	s6,v0,9d002960 <do_scan+0xb60>
9d00248c:	8fa200c8 	lw	v0,200(sp)
9d002490:	00541023 	subu	v0,v0,s4
9d002494:	18400005 	blez	v0,9d0024ac <do_scan+0x6ac>
9d002498:	2404ffdf 	li	a0,-33
9d00249c:	02c41824 	and	v1,s6,a0
9d0024a0:	24020045 	li	v0,69
9d0024a4:	1062010a 	beq	v1,v0,9d0028d0 <do_scan+0xad0>
9d0024a8:	02407821 	move	t7,s2
9d0024ac:	02407821 	move	t7,s2
9d0024b0:	0f402f58 	jal	9d00bd60 <putget.2780>
9d0024b4:	00002021 	move	a0,zero
9d0024b8:	2402ffff 	li	v0,-1
9d0024bc:	12c20008 	beq	s6,v0,9d0024e0 <do_scan+0x6e0>
9d0024c0:	8fa200b4 	lw	v0,180(sp)
9d0024c4:	8c430010 	lw	v1,16(v0)
9d0024c8:	8fa400b8 	lw	a0,184(sp)
9d0024cc:	24840001 	addiu	a0,a0,1
9d0024d0:	afa400b8 	sw	a0,184(sp)
9d0024d4:	2463ffff 	addiu	v1,v1,-1
9d0024d8:	ac560004 	sw	s6,4(v0)
9d0024dc:	ac430010 	sw	v1,16(v0)
9d0024e0:	8fa200c8 	lw	v0,200(sp)
9d0024e4:	0054a023 	subu	s4,v0,s4
9d0024e8:	1a8000f7 	blez	s4,9d0028c8 <do_scan+0xac8>
9d0024ec:	8fa200b4 	lw	v0,180(sp)
9d0024f0:	32230001 	andi	v1,s1,0x1
9d0024f4:	8c440014 	lw	a0,20(v0)
9d0024f8:	24840001 	addiu	a0,a0,1
9d0024fc:	14600011 	bnez	v1,9d002544 <do_scan+0x744>
9d002500:	ac440014 	sw	a0,20(v0)
9d002504:	32230400 	andi	v1,s1,0x400
9d002508:	14600129 	bnez	v1,9d0029b0 <do_scan+0xbb0>
9d00250c:	00002821 	move	a1,zero
9d002510:	32310200 	andi	s1,s1,0x200
9d002514:	8c43000c 	lw	v1,12(v0)
9d002518:	8fa400bc 	lw	a0,188(sp)
9d00251c:	24660004 	addiu	a2,v1,4
9d002520:	1220011c 	beqz	s1,9d002994 <do_scan+0xb94>
9d002524:	ac46000c 	sw	a2,12(v0)
9d002528:	0f403779 	jal	9d00dde4 <strtod>
9d00252c:	8c710000 	lw	s1,0(v1)
9d002530:	ae220000 	sw	v0,0(s1)
9d002534:	8fa200b4 	lw	v0,180(sp)
9d002538:	8c430018 	lw	v1,24(v0)
9d00253c:	24630001 	addiu	v1,v1,1
9d002540:	ac430018 	sw	v1,24(v0)
9d002544:	8fa400c0 	lw	a0,192(sp)
9d002548:	5080fe5d 	beqzl	a0,9d001ec0 <do_scan+0xc0>
9d00254c:	8fa500a0 	lw	a1,160(sp)
9d002550:	0f402737 	jal	9d009cdc <free>
9d002554:	00000000 	nop
9d002558:	0b4007b0 	j	9d001ec0 <do_scan+0xc0>
9d00255c:	8fa500a0 	lw	a1,160(sp)
9d002560:	2417ffff 	li	s7,-1
9d002564:	2403000a 	li	v1,10
9d002568:	afa300d4 	sw	v1,212(sp)
9d00256c:	3c029d01 	lui	v0,0x9d01
9d002570:	0b40086d 	j	9d0021b4 <do_scan+0x3b4>
9d002574:	2454dd28 	addiu	s4,v0,-8920
9d002578:	afa200a0 	sw	v0,160(sp)
9d00257c:	80720001 	lb	s2,1(v1)
9d002580:	0b4007f6 	j	9d001fd8 <do_scan+0x1d8>
9d002584:	36310800 	ori	s1,s1,0x800
9d002588:	afa200a0 	sw	v0,160(sp)
9d00258c:	80720001 	lb	s2,1(v1)
9d002590:	0b4007f6 	j	9d001fd8 <do_scan+0x1d8>
9d002594:	36310080 	ori	s1,s1,0x80
9d002598:	0f40359f 	jal	9d00d67c <.LFE0>
9d00259c:	27a40098 	addiu	a0,sp,152
9d0025a0:	0040b821 	move	s7,v0
9d0025a4:	2402ffff 	li	v0,-1
9d0025a8:	12e2004f 	beq	s7,v0,9d0026e8 <do_scan+0x8e8>
9d0025ac:	8fa300d0 	lw	v1,208(sp)
9d0025b0:	2402002b 	li	v0,43
9d0025b4:	16e2010c 	bne	s7,v0,9d0029e8 <do_scan+0xbe8>
9d0025b8:	2472ffff 	addiu	s2,v1,-1
9d0025bc:	8fa200cc 	lw	v0,204(sp)
9d0025c0:	24430001 	addiu	v1,v0,1
9d0025c4:	afa300cc 	sw	v1,204(sp)
9d0025c8:	16400063 	bnez	s2,9d002758 <do_scan+0x958>
9d0025cc:	a0570000 	sb	s7,0(v0)
9d0025d0:	8fa300d4 	lw	v1,212(sp)
9d0025d4:	1060ffe2 	beqz	v1,9d002560 <do_scan+0x760>
9d0025d8:	8fb600cc 	lw	s6,204(sp)
9d0025dc:	24020010 	li	v0,16
9d0025e0:	1462feec 	bne	v1,v0,9d002194 <do_scan+0x394>
9d0025e4:	2417ffff 	li	s7,-1
9d0025e8:	24030010 	li	v1,16
9d0025ec:	afa300d4 	sw	v1,212(sp)
9d0025f0:	3c049d01 	lui	a0,0x9d01
9d0025f4:	0b40086d 	j	9d0021b4 <do_scan+0x3b4>
9d0025f8:	2494dd10 	addiu	s4,a0,-8944
9d0025fc:	0f40359f 	jal	9d00d67c <.LFE0>
9d002600:	27a40098 	addiu	a0,sp,152
9d002604:	2403ffff 	li	v1,-1
9d002608:	5043001b 	beql	v0,v1,9d002678 <do_scan+0x878>
9d00260c:	241effff 	li	s8,-1
9d002610:	5452fe4f 	bnel	v0,s2,9d001f50 <do_scan+0x150>
9d002614:	afa2009c 	sw	v0,156(sp)
9d002618:	0b4007b0 	j	9d001ec0 <do_scan+0xc0>
9d00261c:	8fa500a0 	lw	a1,160(sp)
9d002620:	12c00023 	beqz	s6,9d0026b0 <do_scan+0x8b0>
9d002624:	00000000 	nop
9d002628:	0f4027d6 	jal	9d009f58 <strtol>
9d00262c:	00000000 	nop
9d002630:	00002021 	move	a0,zero
9d002634:	0b400887 	j	9d00221c <do_scan+0x41c>
9d002638:	00002821 	move	a1,zero
9d00263c:	a2c00000 	sb	zero,0(s6)
9d002640:	26520001 	addiu	s2,s2,1
9d002644:	afb7009c 	sw	s7,156(sp)
9d002648:	8fa200a8 	lw	v0,168(sp)
9d00264c:	2442ffff 	addiu	v0,v0,-1
9d002650:	0b40087a 	j	9d0021e8 <do_scan+0x3e8>
9d002654:	afa200a8 	sw	v0,168(sp)
9d002658:	0f40359f 	jal	9d00d67c <.LFE0>
9d00265c:	27a40098 	addiu	a0,sp,152
9d002660:	0040b821 	move	s7,v0
9d002664:	00021027 	nor	v0,zero,v0
9d002668:	8fb600cc 	lw	s6,204(sp)
9d00266c:	0002102b 	sltu	v0,zero,v0
9d002670:	0b40086d 	j	9d0021b4 <do_scan+0x3b4>
9d002674:	02429023 	subu	s2,s2,v0
9d002678:	0b4007b0 	j	9d001ec0 <do_scan+0xc0>
9d00267c:	8fa500a0 	lw	a1,160(sp)
9d002680:	241effff 	li	s8,-1
9d002684:	00174027 	nor	t0,zero,s7
9d002688:	24020001 	li	v0,1
9d00268c:	0048f00b 	movn	s8,v0,t0
9d002690:	0b4007b0 	j	9d001ec0 <do_scan+0xc0>
9d002694:	8fa500a0 	lw	a1,160(sp)
9d002698:	0f402533 	jal	9d0094cc <.LFE1>
9d00269c:	00000000 	nop
9d0026a0:	00402021 	move	a0,v0
9d0026a4:	00602821 	move	a1,v1
9d0026a8:	0b400887 	j	9d00221c <do_scan+0x41c>
9d0026ac:	00001021 	move	v0,zero
9d0026b0:	0f402697 	jal	9d009a5c <strtoul>
9d0026b4:	00000000 	nop
9d0026b8:	00002021 	move	a0,zero
9d0026bc:	0b400887 	j	9d00221c <do_scan+0x41c>
9d0026c0:	00002821 	move	a1,zero
9d0026c4:	24430004 	addiu	v1,v0,4
9d0026c8:	afa300a4 	sw	v1,164(sp)
9d0026cc:	8c420000 	lw	v0,0(v0)
9d0026d0:	ac440000 	sw	a0,0(v0)
9d0026d4:	0b400899 	j	9d002264 <do_scan+0x464>
9d0026d8:	ac450004 	sw	a1,4(v0)
9d0026dc:	241e0001 	li	s8,1
9d0026e0:	0b4007b0 	j	9d001ec0 <do_scan+0xc0>
9d0026e4:	8fa500a0 	lw	a1,160(sp)
9d0026e8:	8fb600cc 	lw	s6,204(sp)
9d0026ec:	0b40085e 	j	9d002178 <do_scan+0x378>
9d0026f0:	8fb200d0 	lw	s2,208(sp)
9d0026f4:	16e2ffbd 	bne	s7,v0,9d0025ec <do_scan+0x7ec>
9d0026f8:	24030010 	li	v1,16
9d0026fc:	26c20001 	addiu	v0,s6,1
9d002700:	afa200cc 	sw	v0,204(sp)
9d002704:	16400004 	bnez	s2,9d002718 <do_scan+0x918>
9d002708:	a2d70000 	sb	s7,0(s6)
9d00270c:	8fb600cc 	lw	s6,204(sp)
9d002710:	0b40097a 	j	9d0025e8 <do_scan+0x7e8>
9d002714:	2417ffff 	li	s7,-1
9d002718:	0f40359f 	jal	9d00d67c <.LFE0>
9d00271c:	27a40098 	addiu	a0,sp,152
9d002720:	2416ffff 	li	s6,-1
9d002724:	1056fff9 	beq	v0,s6,9d00270c <do_scan+0x90c>
9d002728:	0040b821 	move	s7,v0
9d00272c:	2404ffdf 	li	a0,-33
9d002730:	00441824 	and	v1,v0,a0
9d002734:	24020058 	li	v0,88
9d002738:	146200a8 	bne	v1,v0,9d0029dc <do_scan+0xbdc>
9d00273c:	2654ffff 	addiu	s4,s2,-1
9d002740:	16800080 	bnez	s4,9d002944 <do_scan+0xb44>
9d002744:	00000000 	nop
9d002748:	8fb600cc 	lw	s6,204(sp)
9d00274c:	00009021 	move	s2,zero
9d002750:	0b40097a 	j	9d0025e8 <do_scan+0x7e8>
9d002754:	2417ffff 	li	s7,-1
9d002758:	0f40359f 	jal	9d00d67c <.LFE0>
9d00275c:	27a40098 	addiu	a0,sp,152
9d002760:	0040b821 	move	s7,v0
9d002764:	2402ffff 	li	v0,-1
9d002768:	12e2ff9a 	beq	s7,v0,9d0025d4 <do_scan+0x7d4>
9d00276c:	8fa300d4 	lw	v1,212(sp)
9d002770:	8fb600cc 	lw	s6,204(sp)
9d002774:	8fa400d0 	lw	a0,208(sp)
9d002778:	2492fffe 	addiu	s2,a0,-2
9d00277c:	8fa300d4 	lw	v1,212(sp)
9d002780:	1460fe82 	bnez	v1,9d00218c <do_scan+0x38c>
9d002784:	24020010 	li	v0,16
9d002788:	24020030 	li	v0,48
9d00278c:	16e2ff76 	bne	s7,v0,9d002568 <do_scan+0x768>
9d002790:	2403000a 	li	v1,10
9d002794:	26c20001 	addiu	v0,s6,1
9d002798:	afa200cc 	sw	v0,204(sp)
9d00279c:	16400004 	bnez	s2,9d0027b0 <do_scan+0x9b0>
9d0027a0:	a2d70000 	sb	s7,0(s6)
9d0027a4:	2417ffff 	li	s7,-1
9d0027a8:	0b400869 	j	9d0021a4 <do_scan+0x3a4>
9d0027ac:	8fb600cc 	lw	s6,204(sp)
9d0027b0:	0f40359f 	jal	9d00d67c <.LFE0>
9d0027b4:	27a40098 	addiu	a0,sp,152
9d0027b8:	2416ffff 	li	s6,-1
9d0027bc:	1056fff9 	beq	v0,s6,9d0027a4 <do_scan+0x9a4>
9d0027c0:	0040b821 	move	s7,v0
9d0027c4:	2404ffdf 	li	a0,-33
9d0027c8:	00441824 	and	v1,v0,a0
9d0027cc:	24020058 	li	v0,88
9d0027d0:	1062ffdb 	beq	v1,v0,9d002740 <do_scan+0x940>
9d0027d4:	2654ffff 	addiu	s4,s2,-1
9d0027d8:	02809021 	move	s2,s4
9d0027dc:	0b400869 	j	9d0021a4 <do_scan+0x3a4>
9d0027e0:	8fb600cc 	lw	s6,204(sp)
9d0027e4:	32230200 	andi	v1,s1,0x200
9d0027e8:	10600010 	beqz	v1,9d00282c <do_scan+0xa2c>
9d0027ec:	32230100 	andi	v1,s1,0x100
9d0027f0:	8fa300a4 	lw	v1,164(sp)
9d0027f4:	24640004 	addiu	a0,v1,4
9d0027f8:	afa400a4 	sw	a0,164(sp)
9d0027fc:	8c630000 	lw	v1,0(v1)
9d002800:	ac620000 	sw	v0,0(v1)
9d002804:	0b4007b0 	j	9d001ec0 <do_scan+0xc0>
9d002808:	8fa500a0 	lw	a1,160(sp)
9d00280c:	10600010 	beqz	v1,9d002850 <do_scan+0xa50>
9d002810:	32310080 	andi	s1,s1,0x80
9d002814:	8fa300a4 	lw	v1,164(sp)
9d002818:	24640004 	addiu	a0,v1,4
9d00281c:	afa400a4 	sw	a0,164(sp)
9d002820:	8c630000 	lw	v1,0(v1)
9d002824:	0b400899 	j	9d002264 <do_scan+0x464>
9d002828:	a4620000 	sh	v0,0(v1)
9d00282c:	1060003d 	beqz	v1,9d002924 <do_scan+0xb24>
9d002830:	32310080 	andi	s1,s1,0x80
9d002834:	8fa300a4 	lw	v1,164(sp)
9d002838:	24640004 	addiu	a0,v1,4
9d00283c:	afa400a4 	sw	a0,164(sp)
9d002840:	8c630000 	lw	v1,0(v1)
9d002844:	a4620000 	sh	v0,0(v1)
9d002848:	0b4007b0 	j	9d001ec0 <do_scan+0xc0>
9d00284c:	8fa500a0 	lw	a1,160(sp)
9d002850:	8fa300a4 	lw	v1,164(sp)
9d002854:	24640004 	addiu	a0,v1,4
9d002858:	afa400a4 	sw	a0,164(sp)
9d00285c:	1220002f 	beqz	s1,9d00291c <do_scan+0xb1c>
9d002860:	8c630000 	lw	v1,0(v1)
9d002864:	0b400899 	j	9d002264 <do_scan+0x464>
9d002868:	a0620000 	sb	v0,0(v1)
9d00286c:	0f40359f 	jal	9d00d67c <.LFE0>
9d002870:	27a40098 	addiu	a0,sp,152
9d002874:	0040b021 	move	s6,v0
9d002878:	2402ffff 	li	v0,-1
9d00287c:	52c2fef4 	beql	s6,v0,9d002450 <do_scan+0x650>
9d002880:	3c049d01 	lui	a0,0x9d01
9d002884:	8fa200b8 	lw	v0,184(sp)
9d002888:	2442ffff 	addiu	v0,v0,-1
9d00288c:	afa200b8 	sw	v0,184(sp)
9d002890:	2402002b 	li	v0,43
9d002894:	56c20059 	bnel	s6,v0,9d0029fc <do_scan+0xbfc>
9d002898:	2402002d 	li	v0,45
9d00289c:	27b200b4 	addiu	s2,sp,180
9d0028a0:	02407821 	move	t7,s2
9d0028a4:	0f402f58 	jal	9d00bd60 <putget.2780>
9d0028a8:	02c02021 	move	a0,s6
9d0028ac:	0040b021 	move	s6,v0
9d0028b0:	24420001 	addiu	v0,v0,1
9d0028b4:	3c049d01 	lui	a0,0x9d01
9d0028b8:	2483bf78 	addiu	v1,a0,-16520
9d0028bc:	00621021 	addu	v0,v1,v0
9d0028c0:	0b40091d 	j	9d002474 <do_scan+0x674>
9d0028c4:	24140001 	li	s4,1
9d0028c8:	0b400951 	j	9d002544 <do_scan+0x744>
9d0028cc:	241e0001 	li	s8,1
9d0028d0:	0f402f58 	jal	9d00bd60 <putget.2780>
9d0028d4:	02c02021 	move	a0,s6
9d0028d8:	0040b021 	move	s6,v0
9d0028dc:	2402002d 	li	v0,45
9d0028e0:	12c20003 	beq	s6,v0,9d0028f0 <do_scan+0xaf0>
9d0028e4:	2402002b 	li	v0,43
9d0028e8:	16c20006 	bne	s6,v0,9d002904 <do_scan+0xb04>
9d0028ec:	02161021 	addu	v0,s0,s6
9d0028f0:	02407821 	move	t7,s2
9d0028f4:	0f402f58 	jal	9d00bd60 <putget.2780>
9d0028f8:	02c02021 	move	a0,s6
9d0028fc:	0040b021 	move	s6,v0
9d002900:	02161021 	addu	v0,s0,s6
9d002904:	90420000 	lbu	v0,0(v0)
9d002908:	30420004 	andi	v0,v0,0x4
9d00290c:	1440fff9 	bnez	v0,9d0028f4 <do_scan+0xaf4>
9d002910:	02407821 	move	t7,s2
9d002914:	0b40092c 	j	9d0024b0 <do_scan+0x6b0>
9d002918:	00000000 	nop
9d00291c:	0b400899 	j	9d002264 <do_scan+0x464>
9d002920:	ac620000 	sw	v0,0(v1)
9d002924:	8fa300a4 	lw	v1,164(sp)
9d002928:	24640004 	addiu	a0,v1,4
9d00292c:	afa400a4 	sw	a0,164(sp)
9d002930:	1220001c 	beqz	s1,9d0029a4 <do_scan+0xba4>
9d002934:	8c630000 	lw	v1,0(v1)
9d002938:	a0620000 	sb	v0,0(v1)
9d00293c:	0b4007b0 	j	9d001ec0 <do_scan+0xc0>
9d002940:	8fa500a0 	lw	a1,160(sp)
9d002944:	0f40359f 	jal	9d00d67c <.LFE0>
9d002948:	27a40098 	addiu	a0,sp,152
9d00294c:	10560023 	beq	v0,s6,9d0029dc <do_scan+0xbdc>
9d002950:	0040b821 	move	s7,v0
9d002954:	2652fffe 	addiu	s2,s2,-2
9d002958:	0b40097a 	j	9d0025e8 <do_scan+0x7e8>
9d00295c:	8fb600cc 	lw	s6,204(sp)
9d002960:	0b400a5b 	j	9d00296c <do_scan+0xb6c>
9d002964:	2404002e 	li	a0,46
9d002968:	02c02021 	move	a0,s6
9d00296c:	0f402f58 	jal	9d00bd60 <putget.2780>
9d002970:	00000000 	nop
9d002974:	0040b021 	move	s6,v0
9d002978:	02021021 	addu	v0,s0,v0
9d00297c:	90420000 	lbu	v0,0(v0)
9d002980:	30420004 	andi	v0,v0,0x4
9d002984:	1440fff8 	bnez	v0,9d002968 <do_scan+0xb68>
9d002988:	02407821 	move	t7,s2
9d00298c:	0b400924 	j	9d002490 <do_scan+0x690>
9d002990:	8fa200c8 	lw	v0,200(sp)
9d002994:	0f4037e5 	jal	9d00df94 <strtof>
9d002998:	8c710000 	lw	s1,0(v1)
9d00299c:	0b40094d 	j	9d002534 <do_scan+0x734>
9d0029a0:	ae220000 	sw	v0,0(s1)
9d0029a4:	ac620000 	sw	v0,0(v1)
9d0029a8:	0b4007b0 	j	9d001ec0 <do_scan+0xc0>
9d0029ac:	8fa500a0 	lw	a1,160(sp)
9d0029b0:	8c43000c 	lw	v1,12(v0)
9d0029b4:	8fa400bc 	lw	a0,188(sp)
9d0029b8:	24660004 	addiu	a2,v1,4
9d0029bc:	ac46000c 	sw	a2,12(v0)
9d0029c0:	0f403779 	jal	9d00dde4 <strtod>
9d0029c4:	8c710000 	lw	s1,0(v1)
9d0029c8:	0f4032fe 	jal	9d00cbf8 <__extendsfdf2>
9d0029cc:	00402021 	move	a0,v0
9d0029d0:	ae220000 	sw	v0,0(s1)
9d0029d4:	0b40094d 	j	9d002534 <do_scan+0x734>
9d0029d8:	ae230004 	sw	v1,4(s1)
9d0029dc:	8fb600cc 	lw	s6,204(sp)
9d0029e0:	0b40097a 	j	9d0025e8 <do_scan+0x7e8>
9d0029e4:	02809021 	move	s2,s4
9d0029e8:	2402002d 	li	v0,45
9d0029ec:	12e2fef4 	beq	s7,v0,9d0025c0 <do_scan+0x7c0>
9d0029f0:	8fa200cc 	lw	v0,204(sp)
9d0029f4:	0b4009df 	j	9d00277c <do_scan+0x97c>
9d0029f8:	8fb600cc 	lw	s6,204(sp)
9d0029fc:	52c2ffa8 	beql	s6,v0,9d0028a0 <do_scan+0xaa0>
9d002a00:	27b200b4 	addiu	s2,sp,180
9d002a04:	26c20001 	addiu	v0,s6,1
9d002a08:	3c049d01 	lui	a0,0x9d01
9d002a0c:	2483bf78 	addiu	v1,a0,-16520
9d002a10:	0b400916 	j	9d002458 <do_scan+0x658>
9d002a14:	00621021 	addu	v0,v1,v0

Disassembly of section .dinit:

9d002a18 <.dinit>:
9d002a18:	a0000d28 	sb	zero,3368(zero)
9d002a1c:	000000b0 	tge	zero,zero,0x2
9d002a20:	00000001 	movf	zero,zero,$fcc0
9d002a24:	377ec477 	ori	s8,k1,0xc477
9d002a28:	37fec477 	ori	s8,ra,0xc477
9d002a2c:	377ec477 	ori	s8,k1,0xc477
9d002a30:	3f800000 	0x3f800000
9d002a34:	bffddfb2 	cache	0x1d,-8270(ra)
9d002a38:	3f7bbf64 	0x3f7bbf64
9d002a3c:	387fe0e3 	xori	ra,v1,0xe0e3
9d002a40:	38ffe0e3 	xori	ra,a3,0xe0e3
9d002a44:	387fe0e3 	xori	ra,v1,0xe0e3
9d002a48:	3f800000 	0x3f800000
9d002a4c:	bffd281c 	cache	0x1d,10268(ra)
9d002a50:	3f7a6035 	0x3f7a6035
9d002a54:	3df3b646 	0x3df3b646
9d002a58:	3d9db22d 	0x3d9db22d
9d002a5c:	3d4d35a8 	0x3d4d35a8
9d002a60:	3d07fcb9 	0x3d07fcb9
9d002a64:	3cb020c5 	0x3cb020c5
9d002a68:	3c656042 	0x3c656042
9d002a6c:	3c15182b 	lui	s5,0x182b
9d002a70:	3bc49ba6 	xori	a0,s8,0x9ba6
9d002a74:	41a00000 	0x41a00000
9d002a78:	41f80000 	0x41f80000
9d002a7c:	423c0000 	c0	0x3c0000
9d002a80:	42900000 	c0	0x900000
9d002a84:	42de0000 	c0	0xde0000
9d002a88:	432a0000 	c0	0x12a0000
9d002a8c:	43828000 	c0	0x1828000
9d002a90:	43c80000 	c0	0x1c80000
9d002a94:	42f00000 	c0	0xf00000
9d002a98:	42d20000 	c0	0xd20000
9d002a9c:	42c80000 	c0	0xc80000
9d002aa0:	42c00000 	c0	0xc00000
9d002aa4:	42a00000 	c0	0xa00000
9d002aa8:	40e00000 	0x40e00000
9d002aac:	42aa0000 	c0	0xaa0000
9d002ab0:	43c80000 	c0	0x1c80000
9d002ab4:	42c80000 	c0	0xc80000
9d002ab8:	42dc0000 	c0	0xdc0000
9d002abc:	42d20000 	c0	0xd20000
9d002ac0:	42c80000 	c0	0xc80000
9d002ac4:	42968000 	c0	0x968000
9d002ac8:	40e00000 	0x40e00000
9d002acc:	42c80000 	c0	0xc80000
9d002ad0:	43be0000 	c0	0x1be0000
9d002ad4:	a0000968 	sb	zero,2408(zero)
9d002ad8:	000000c0 	ehb
9d002adc:	00000000 	nop
9d002ae0:	a0000000 	sb	zero,0(zero)
9d002ae4:	00000020 	add	zero,zero,zero
9d002ae8:	00000001 	movf	zero,zero,$fcc0
9d002aec:	40000000 	mfc0	zero,c0_index
9d002af0:	3f800000 	0x3f800000
9d002af4:	00000005 	0x5
9d002af8:	3d7837b5 	0x3d7837b5
9d002afc:	3d63bcd3 	0x3d63bcd3
9d002b00:	457ff000 	0x457ff000
9d002b04:	477fff00 	c1	0x17fff00
9d002b08:	000003e8 	0x3e8
9d002b0c:	a0000088 	sb	zero,136(zero)
9d002b10:	000000a4 	0xa4
9d002b14:	00000000 	nop
9d002b18:	a0000320 	sb	zero,800(zero)
9d002b1c:	00000064 	0x64
9d002b20:	00000000 	nop
9d002b24:	a0000dd8 	sb	zero,3544(zero)
9d002b28:	000000b0 	tge	zero,zero,0x2
9d002b2c:	00000001 	movf	zero,zero,$fcc0
9d002b30:	377ec477 	ori	s8,k1,0xc477
9d002b34:	37fec477 	ori	s8,ra,0xc477
9d002b38:	377ec477 	ori	s8,k1,0xc477
9d002b3c:	3f800000 	0x3f800000
9d002b40:	bffddfb2 	cache	0x1d,-8270(ra)
9d002b44:	3f7bbf64 	0x3f7bbf64
9d002b48:	387fe0e3 	xori	ra,v1,0xe0e3
9d002b4c:	38ffe0e3 	xori	ra,a3,0xe0e3
9d002b50:	387fe0e3 	xori	ra,v1,0xe0e3
9d002b54:	3f800000 	0x3f800000
9d002b58:	bffd281c 	cache	0x1d,10268(ra)
9d002b5c:	3f7a6035 	0x3f7a6035
9d002b60:	3df3b646 	0x3df3b646
9d002b64:	3d9db22d 	0x3d9db22d
9d002b68:	3d4d35a8 	0x3d4d35a8
9d002b6c:	3d07fcb9 	0x3d07fcb9
9d002b70:	3cb020c5 	0x3cb020c5
9d002b74:	3c656042 	0x3c656042
9d002b78:	3c15182b 	lui	s5,0x182b
9d002b7c:	3bc49ba6 	xori	a0,s8,0x9ba6
9d002b80:	41a00000 	0x41a00000
9d002b84:	41f80000 	0x41f80000
9d002b88:	423c0000 	c0	0x3c0000
9d002b8c:	42900000 	c0	0x900000
9d002b90:	42de0000 	c0	0xde0000
9d002b94:	432a0000 	c0	0x12a0000
9d002b98:	43828000 	c0	0x1828000
9d002b9c:	43c80000 	c0	0x1c80000
9d002ba0:	42f00000 	c0	0xf00000
9d002ba4:	42d20000 	c0	0xd20000
9d002ba8:	42c80000 	c0	0xc80000
9d002bac:	42c00000 	c0	0xc00000
9d002bb0:	42a00000 	c0	0xa00000
9d002bb4:	40e00000 	0x40e00000
9d002bb8:	42aa0000 	c0	0xaa0000
9d002bbc:	43c80000 	c0	0x1c80000
9d002bc0:	42c80000 	c0	0xc80000
9d002bc4:	42dc0000 	c0	0xdc0000
9d002bc8:	42d20000 	c0	0xd20000
9d002bcc:	42c80000 	c0	0xc80000
9d002bd0:	42968000 	c0	0x968000
9d002bd4:	40e00000 	0x40e00000
9d002bd8:	42c80000 	c0	0xc80000
9d002bdc:	43be0000 	c0	0x1be0000
9d002be0:	a0000a28 	sb	zero,2600(zero)
9d002be4:	000000c0 	ehb
9d002be8:	00000000 	nop
9d002bec:	a0000020 	sb	zero,32(zero)
9d002bf0:	00000020 	add	zero,zero,zero
9d002bf4:	00000001 	movf	zero,zero,$fcc0
9d002bf8:	40000000 	mfc0	zero,c0_index
9d002bfc:	3f800000 	0x3f800000
9d002c00:	00000005 	0x5
9d002c04:	3d7837b5 	0x3d7837b5
9d002c08:	3d63bcd3 	0x3d63bcd3
9d002c0c:	457ff000 	0x457ff000
9d002c10:	477fff00 	c1	0x17fff00
9d002c14:	000003e8 	0x3e8
9d002c18:	a000012c 	sb	zero,300(zero)
9d002c1c:	000000a4 	0xa4
9d002c20:	00000000 	nop
9d002c24:	a0000e88 	sb	zero,3720(zero)
9d002c28:	000000b0 	tge	zero,zero,0x2
9d002c2c:	00000001 	movf	zero,zero,$fcc0
9d002c30:	377ec477 	ori	s8,k1,0xc477
9d002c34:	37fec477 	ori	s8,ra,0xc477
9d002c38:	377ec477 	ori	s8,k1,0xc477
9d002c3c:	3f800000 	0x3f800000
9d002c40:	bffddfb2 	cache	0x1d,-8270(ra)
9d002c44:	3f7bbf64 	0x3f7bbf64
9d002c48:	387fe0e3 	xori	ra,v1,0xe0e3
9d002c4c:	38ffe0e3 	xori	ra,a3,0xe0e3
9d002c50:	387fe0e3 	xori	ra,v1,0xe0e3
9d002c54:	3f800000 	0x3f800000
9d002c58:	bffd281c 	cache	0x1d,10268(ra)
9d002c5c:	3f7a6035 	0x3f7a6035
9d002c60:	3df3b646 	0x3df3b646
9d002c64:	3d9db22d 	0x3d9db22d
9d002c68:	3d4d35a8 	0x3d4d35a8
9d002c6c:	3d07fcb9 	0x3d07fcb9
9d002c70:	3cb020c5 	0x3cb020c5
9d002c74:	3c656042 	0x3c656042
9d002c78:	3c15182b 	lui	s5,0x182b
9d002c7c:	3bc49ba6 	xori	a0,s8,0x9ba6
9d002c80:	41a00000 	0x41a00000
9d002c84:	41f80000 	0x41f80000
9d002c88:	423c0000 	c0	0x3c0000
9d002c8c:	42900000 	c0	0x900000
9d002c90:	42de0000 	c0	0xde0000
9d002c94:	432a0000 	c0	0x12a0000
9d002c98:	43828000 	c0	0x1828000
9d002c9c:	43c80000 	c0	0x1c80000
9d002ca0:	42f00000 	c0	0xf00000
9d002ca4:	42d20000 	c0	0xd20000
9d002ca8:	42c80000 	c0	0xc80000
9d002cac:	42c00000 	c0	0xc00000
9d002cb0:	42a00000 	c0	0xa00000
9d002cb4:	40e00000 	0x40e00000
9d002cb8:	42aa0000 	c0	0xaa0000
9d002cbc:	43c80000 	c0	0x1c80000
9d002cc0:	42c80000 	c0	0xc80000
9d002cc4:	42dc0000 	c0	0xdc0000
9d002cc8:	42d20000 	c0	0xd20000
9d002ccc:	42c80000 	c0	0xc80000
9d002cd0:	42968000 	c0	0x968000
9d002cd4:	40e00000 	0x40e00000
9d002cd8:	42c80000 	c0	0xc80000
9d002cdc:	43be0000 	c0	0x1be0000
9d002ce0:	a0000ae8 	sb	zero,2792(zero)
9d002ce4:	000000c0 	ehb
9d002ce8:	00000000 	nop
9d002cec:	a0000040 	sb	zero,64(zero)
9d002cf0:	00000020 	add	zero,zero,zero
9d002cf4:	00000001 	movf	zero,zero,$fcc0
9d002cf8:	40000000 	mfc0	zero,c0_index
9d002cfc:	3f800000 	0x3f800000
9d002d00:	00000005 	0x5
9d002d04:	3d7837b5 	0x3d7837b5
9d002d08:	3d63bcd3 	0x3d63bcd3
9d002d0c:	457ff000 	0x457ff000
9d002d10:	477fff00 	c1	0x17fff00
9d002d14:	000003e8 	0x3e8
9d002d18:	a00001d0 	sb	zero,464(zero)
9d002d1c:	000000a4 	0xa4
9d002d20:	00000000 	nop
9d002d24:	a0000f38 	sb	zero,3896(zero)
9d002d28:	000000b0 	tge	zero,zero,0x2
9d002d2c:	00000001 	movf	zero,zero,$fcc0
9d002d30:	377ec477 	ori	s8,k1,0xc477
9d002d34:	37fec477 	ori	s8,ra,0xc477
9d002d38:	377ec477 	ori	s8,k1,0xc477
9d002d3c:	3f800000 	0x3f800000
9d002d40:	bffddfb2 	cache	0x1d,-8270(ra)
9d002d44:	3f7bbf64 	0x3f7bbf64
9d002d48:	387fe0e3 	xori	ra,v1,0xe0e3
9d002d4c:	38ffe0e3 	xori	ra,a3,0xe0e3
9d002d50:	387fe0e3 	xori	ra,v1,0xe0e3
9d002d54:	3f800000 	0x3f800000
9d002d58:	bffd281c 	cache	0x1d,10268(ra)
9d002d5c:	3f7a6035 	0x3f7a6035
9d002d60:	3df3b646 	0x3df3b646
9d002d64:	3d9db22d 	0x3d9db22d
9d002d68:	3d4d35a8 	0x3d4d35a8
9d002d6c:	3d07fcb9 	0x3d07fcb9
9d002d70:	3cb020c5 	0x3cb020c5
9d002d74:	3c656042 	0x3c656042
9d002d78:	3c15182b 	lui	s5,0x182b
9d002d7c:	3bc49ba6 	xori	a0,s8,0x9ba6
9d002d80:	41a00000 	0x41a00000
9d002d84:	41f80000 	0x41f80000
9d002d88:	423c0000 	c0	0x3c0000
9d002d8c:	42900000 	c0	0x900000
9d002d90:	42de0000 	c0	0xde0000
9d002d94:	432a0000 	c0	0x12a0000
9d002d98:	43828000 	c0	0x1828000
9d002d9c:	43c80000 	c0	0x1c80000
9d002da0:	42f00000 	c0	0xf00000
9d002da4:	42d20000 	c0	0xd20000
9d002da8:	42c80000 	c0	0xc80000
9d002dac:	42c00000 	c0	0xc00000
9d002db0:	42a00000 	c0	0xa00000
9d002db4:	40e00000 	0x40e00000
9d002db8:	42aa0000 	c0	0xaa0000
9d002dbc:	43c80000 	c0	0x1c80000
9d002dc0:	42c80000 	c0	0xc80000
9d002dc4:	42dc0000 	c0	0xdc0000
9d002dc8:	42d20000 	c0	0xd20000
9d002dcc:	42c80000 	c0	0xc80000
9d002dd0:	42968000 	c0	0x968000
9d002dd4:	40e00000 	0x40e00000
9d002dd8:	42c80000 	c0	0xc80000
9d002ddc:	43be0000 	c0	0x1be0000
9d002de0:	a0000ba8 	sb	zero,2984(zero)
9d002de4:	000000c0 	ehb
9d002de8:	00000000 	nop
9d002dec:	a0000060 	sb	zero,96(zero)
9d002df0:	00000020 	add	zero,zero,zero
9d002df4:	00000001 	movf	zero,zero,$fcc0
9d002df8:	40000000 	mfc0	zero,c0_index
9d002dfc:	3f800000 	0x3f800000
9d002e00:	00000005 	0x5
9d002e04:	3d7837b5 	0x3d7837b5
9d002e08:	3d63bcd3 	0x3d63bcd3
9d002e0c:	457ff000 	0x457ff000
9d002e10:	477fff00 	c1	0x17fff00
9d002e14:	000003e8 	0x3e8
9d002e18:	a0000274 	sb	zero,628(zero)
9d002e1c:	000000a4 	0xa4
9d002e20:	00000000 	nop
9d002e24:	a00010a4 	sb	zero,4260(zero)
9d002e28:	00000030 	tge	zero,zero
9d002e2c:	00000001 	movf	zero,zero,$fcc0
9d002e30:	377ec477 	ori	s8,k1,0xc477
9d002e34:	37fec477 	ori	s8,ra,0xc477
9d002e38:	377ec477 	ori	s8,k1,0xc477
9d002e3c:	3f800000 	0x3f800000
9d002e40:	bffddfb2 	cache	0x1d,-8270(ra)
9d002e44:	3f7bbf64 	0x3f7bbf64
9d002e48:	387fe0e3 	xori	ra,v1,0xe0e3
9d002e4c:	38ffe0e3 	xori	ra,a3,0xe0e3
9d002e50:	387fe0e3 	xori	ra,v1,0xe0e3
9d002e54:	3f800000 	0x3f800000
9d002e58:	bffd281c 	cache	0x1d,10268(ra)
9d002e5c:	3f7a6035 	0x3f7a6035
9d002e60:	a0000c68 	sb	zero,3176(zero)
9d002e64:	000000c0 	ehb
9d002e68:	00000000 	nop
9d002e6c:	a0000894 	sb	zero,2196(zero)
9d002e70:	000000d4 	0xd4
9d002e74:	00000001 	movf	zero,zero,$fcc0
9d002e78:	a00008f8 	sb	zero,2296(zero)
9d002e7c:	a0000914 	sb	zero,2324(zero)
9d002e80:	a0000930 	sb	zero,2352(zero)
9d002e84:	a00008f4 	sb	zero,2292(zero)
9d002e88:	a0000fe8 	sb	zero,4072(zero)
9d002e8c:	00000001 	movf	zero,zero,$fcc0
	...
9d002edc:	ffffffff 	sdc3	$31,-1(ra)
9d002ee0:	ffffffff 	sdc3	$31,-1(ra)
9d002ee4:	00000000 	nop
9d002ee8:	00000040 	ssnop
9d002eec:	00001009 	jalr	v0,zero
9d002ef0:	00000000 	nop
9d002ef4:	9d00e048 	0x9d00e048
9d002ef8:	ffffffff 	sdc3	$31,-1(ra)
	...
9d002f08:	00011002 	srl	v0,at,0x0
9d002f0c:	00000000 	nop
9d002f10:	9d00e048 	0x9d00e048
9d002f14:	ffffffff 	sdc3	$31,-1(ra)
	...
9d002f24:	00020002 	srl	zero,v0,0x0
9d002f28:	00000000 	nop
9d002f2c:	9d00e048 	0x9d00e048
9d002f30:	fffffffd 	sdc3	$31,-3(ra)
	...
9d002f4c:	a0000fe8 	sb	zero,4072(zero)
9d002f50:	00000088 	0x88
9d002f54:	00000000 	nop
9d002f58:	a0000080 	sb	zero,128(zero)
9d002f5c:	00000004 	sllv	zero,zero,zero
9d002f60:	00000001 	movf	zero,zero,$fcc0
9d002f64:	a0000894 	sb	zero,2196(zero)
9d002f68:	a000113c 	sb	zero,4412(zero)
9d002f6c:	00000004 	sllv	zero,zero,zero
9d002f70:	00000000 	nop
9d002f74:	a0000384 	sb	zero,900(zero)
9d002f78:	00000410 	0x410
9d002f7c:	00000001 	movf	zero,zero,$fcc0
9d002f80:	ffffffff 	sdc3	$31,-1(ra)
9d002f84:	00002000 	sll	a0,zero,0x0
	...
9d002f90:	a000038c 	sb	zero,908(zero)
9d002f94:	a000038c 	sb	zero,908(zero)
9d002f98:	a0000394 	sb	zero,916(zero)
9d002f9c:	a0000394 	sb	zero,916(zero)
9d002fa0:	a000039c 	sb	zero,924(zero)
9d002fa4:	a000039c 	sb	zero,924(zero)
9d002fa8:	a00003a4 	sb	zero,932(zero)
9d002fac:	a00003a4 	sb	zero,932(zero)
9d002fb0:	a00003ac 	sb	zero,940(zero)
9d002fb4:	a00003ac 	sb	zero,940(zero)
9d002fb8:	a00003b4 	sb	zero,948(zero)
9d002fbc:	a00003b4 	sb	zero,948(zero)
9d002fc0:	a00003bc 	sb	zero,956(zero)
9d002fc4:	a00003bc 	sb	zero,956(zero)
9d002fc8:	a00003c4 	sb	zero,964(zero)
9d002fcc:	a00003c4 	sb	zero,964(zero)
9d002fd0:	a00003cc 	sb	zero,972(zero)
9d002fd4:	a00003cc 	sb	zero,972(zero)
9d002fd8:	a00003d4 	sb	zero,980(zero)
9d002fdc:	a00003d4 	sb	zero,980(zero)
9d002fe0:	a00003dc 	sb	zero,988(zero)
9d002fe4:	a00003dc 	sb	zero,988(zero)
9d002fe8:	a00003e4 	sb	zero,996(zero)
9d002fec:	a00003e4 	sb	zero,996(zero)
9d002ff0:	a00003ec 	sb	zero,1004(zero)
9d002ff4:	a00003ec 	sb	zero,1004(zero)
9d002ff8:	a00003f4 	sb	zero,1012(zero)
9d002ffc:	a00003f4 	sb	zero,1012(zero)
9d003000:	a00003fc 	sb	zero,1020(zero)
9d003004:	a00003fc 	sb	zero,1020(zero)
9d003008:	a0000404 	sb	zero,1028(zero)
9d00300c:	a0000404 	sb	zero,1028(zero)
9d003010:	a000040c 	sb	zero,1036(zero)
9d003014:	a000040c 	sb	zero,1036(zero)
9d003018:	a0000414 	sb	zero,1044(zero)
9d00301c:	a0000414 	sb	zero,1044(zero)
9d003020:	a000041c 	sb	zero,1052(zero)
9d003024:	a000041c 	sb	zero,1052(zero)
9d003028:	a0000424 	sb	zero,1060(zero)
9d00302c:	a0000424 	sb	zero,1060(zero)
9d003030:	a000042c 	sb	zero,1068(zero)
9d003034:	a000042c 	sb	zero,1068(zero)
9d003038:	a0000434 	sb	zero,1076(zero)
9d00303c:	a0000434 	sb	zero,1076(zero)
9d003040:	a000043c 	sb	zero,1084(zero)
9d003044:	a000043c 	sb	zero,1084(zero)
9d003048:	a0000444 	sb	zero,1092(zero)
9d00304c:	a0000444 	sb	zero,1092(zero)
9d003050:	a000044c 	sb	zero,1100(zero)
9d003054:	a000044c 	sb	zero,1100(zero)
9d003058:	a0000454 	sb	zero,1108(zero)
9d00305c:	a0000454 	sb	zero,1108(zero)
9d003060:	a000045c 	sb	zero,1116(zero)
9d003064:	a000045c 	sb	zero,1116(zero)
9d003068:	a0000464 	sb	zero,1124(zero)
9d00306c:	a0000464 	sb	zero,1124(zero)
9d003070:	a000046c 	sb	zero,1132(zero)
9d003074:	a000046c 	sb	zero,1132(zero)
9d003078:	a0000474 	sb	zero,1140(zero)
9d00307c:	a0000474 	sb	zero,1140(zero)
9d003080:	a000047c 	sb	zero,1148(zero)
9d003084:	a000047c 	sb	zero,1148(zero)
9d003088:	a0000484 	sb	zero,1156(zero)
9d00308c:	a0000484 	sb	zero,1156(zero)
9d003090:	a000048c 	sb	zero,1164(zero)
9d003094:	a000048c 	sb	zero,1164(zero)
9d003098:	a0000494 	sb	zero,1172(zero)
9d00309c:	a0000494 	sb	zero,1172(zero)
9d0030a0:	a000049c 	sb	zero,1180(zero)
9d0030a4:	a000049c 	sb	zero,1180(zero)
9d0030a8:	a00004a4 	sb	zero,1188(zero)
9d0030ac:	a00004a4 	sb	zero,1188(zero)
9d0030b0:	a00004ac 	sb	zero,1196(zero)
9d0030b4:	a00004ac 	sb	zero,1196(zero)
9d0030b8:	a00004b4 	sb	zero,1204(zero)
9d0030bc:	a00004b4 	sb	zero,1204(zero)
9d0030c0:	a00004bc 	sb	zero,1212(zero)
9d0030c4:	a00004bc 	sb	zero,1212(zero)
9d0030c8:	a00004c4 	sb	zero,1220(zero)
9d0030cc:	a00004c4 	sb	zero,1220(zero)
9d0030d0:	a00004cc 	sb	zero,1228(zero)
9d0030d4:	a00004cc 	sb	zero,1228(zero)
9d0030d8:	a00004d4 	sb	zero,1236(zero)
9d0030dc:	a00004d4 	sb	zero,1236(zero)
9d0030e0:	a00004dc 	sb	zero,1244(zero)
9d0030e4:	a00004dc 	sb	zero,1244(zero)
9d0030e8:	a00004e4 	sb	zero,1252(zero)
9d0030ec:	a00004e4 	sb	zero,1252(zero)
9d0030f0:	a00004ec 	sb	zero,1260(zero)
9d0030f4:	a00004ec 	sb	zero,1260(zero)
9d0030f8:	a00004f4 	sb	zero,1268(zero)
9d0030fc:	a00004f4 	sb	zero,1268(zero)
9d003100:	a00004fc 	sb	zero,1276(zero)
9d003104:	a00004fc 	sb	zero,1276(zero)
9d003108:	a0000504 	sb	zero,1284(zero)
9d00310c:	a0000504 	sb	zero,1284(zero)
9d003110:	a000050c 	sb	zero,1292(zero)
9d003114:	a000050c 	sb	zero,1292(zero)
9d003118:	a0000514 	sb	zero,1300(zero)
9d00311c:	a0000514 	sb	zero,1300(zero)
9d003120:	a000051c 	sb	zero,1308(zero)
9d003124:	a000051c 	sb	zero,1308(zero)
9d003128:	a0000524 	sb	zero,1316(zero)
9d00312c:	a0000524 	sb	zero,1316(zero)
9d003130:	a000052c 	sb	zero,1324(zero)
9d003134:	a000052c 	sb	zero,1324(zero)
9d003138:	a0000534 	sb	zero,1332(zero)
9d00313c:	a0000534 	sb	zero,1332(zero)
9d003140:	a000053c 	sb	zero,1340(zero)
9d003144:	a000053c 	sb	zero,1340(zero)
9d003148:	a0000544 	sb	zero,1348(zero)
9d00314c:	a0000544 	sb	zero,1348(zero)
9d003150:	a000054c 	sb	zero,1356(zero)
9d003154:	a000054c 	sb	zero,1356(zero)
9d003158:	a0000554 	sb	zero,1364(zero)
9d00315c:	a0000554 	sb	zero,1364(zero)
9d003160:	a000055c 	sb	zero,1372(zero)
9d003164:	a000055c 	sb	zero,1372(zero)
9d003168:	a0000564 	sb	zero,1380(zero)
9d00316c:	a0000564 	sb	zero,1380(zero)
9d003170:	a000056c 	sb	zero,1388(zero)
9d003174:	a000056c 	sb	zero,1388(zero)
9d003178:	a0000574 	sb	zero,1396(zero)
9d00317c:	a0000574 	sb	zero,1396(zero)
9d003180:	a000057c 	sb	zero,1404(zero)
9d003184:	a000057c 	sb	zero,1404(zero)
9d003188:	a0000584 	sb	zero,1412(zero)
9d00318c:	a0000584 	sb	zero,1412(zero)
9d003190:	a000058c 	sb	zero,1420(zero)
9d003194:	a000058c 	sb	zero,1420(zero)
9d003198:	a0000594 	sb	zero,1428(zero)
9d00319c:	a0000594 	sb	zero,1428(zero)
9d0031a0:	a000059c 	sb	zero,1436(zero)
9d0031a4:	a000059c 	sb	zero,1436(zero)
9d0031a8:	a00005a4 	sb	zero,1444(zero)
9d0031ac:	a00005a4 	sb	zero,1444(zero)
9d0031b0:	a00005ac 	sb	zero,1452(zero)
9d0031b4:	a00005ac 	sb	zero,1452(zero)
9d0031b8:	a00005b4 	sb	zero,1460(zero)
9d0031bc:	a00005b4 	sb	zero,1460(zero)
9d0031c0:	a00005bc 	sb	zero,1468(zero)
9d0031c4:	a00005bc 	sb	zero,1468(zero)
9d0031c8:	a00005c4 	sb	zero,1476(zero)
9d0031cc:	a00005c4 	sb	zero,1476(zero)
9d0031d0:	a00005cc 	sb	zero,1484(zero)
9d0031d4:	a00005cc 	sb	zero,1484(zero)
9d0031d8:	a00005d4 	sb	zero,1492(zero)
9d0031dc:	a00005d4 	sb	zero,1492(zero)
9d0031e0:	a00005dc 	sb	zero,1500(zero)
9d0031e4:	a00005dc 	sb	zero,1500(zero)
9d0031e8:	a00005e4 	sb	zero,1508(zero)
9d0031ec:	a00005e4 	sb	zero,1508(zero)
9d0031f0:	a00005ec 	sb	zero,1516(zero)
9d0031f4:	a00005ec 	sb	zero,1516(zero)
9d0031f8:	a00005f4 	sb	zero,1524(zero)
9d0031fc:	a00005f4 	sb	zero,1524(zero)
9d003200:	a00005fc 	sb	zero,1532(zero)
9d003204:	a00005fc 	sb	zero,1532(zero)
9d003208:	a0000604 	sb	zero,1540(zero)
9d00320c:	a0000604 	sb	zero,1540(zero)
9d003210:	a000060c 	sb	zero,1548(zero)
9d003214:	a000060c 	sb	zero,1548(zero)
9d003218:	a0000614 	sb	zero,1556(zero)
9d00321c:	a0000614 	sb	zero,1556(zero)
9d003220:	a000061c 	sb	zero,1564(zero)
9d003224:	a000061c 	sb	zero,1564(zero)
9d003228:	a0000624 	sb	zero,1572(zero)
9d00322c:	a0000624 	sb	zero,1572(zero)
9d003230:	a000062c 	sb	zero,1580(zero)
9d003234:	a000062c 	sb	zero,1580(zero)
9d003238:	a0000634 	sb	zero,1588(zero)
9d00323c:	a0000634 	sb	zero,1588(zero)
9d003240:	a000063c 	sb	zero,1596(zero)
9d003244:	a000063c 	sb	zero,1596(zero)
9d003248:	a0000644 	sb	zero,1604(zero)
9d00324c:	a0000644 	sb	zero,1604(zero)
9d003250:	a000064c 	sb	zero,1612(zero)
9d003254:	a000064c 	sb	zero,1612(zero)
9d003258:	a0000654 	sb	zero,1620(zero)
9d00325c:	a0000654 	sb	zero,1620(zero)
9d003260:	a000065c 	sb	zero,1628(zero)
9d003264:	a000065c 	sb	zero,1628(zero)
9d003268:	a0000664 	sb	zero,1636(zero)
9d00326c:	a0000664 	sb	zero,1636(zero)
9d003270:	a000066c 	sb	zero,1644(zero)
9d003274:	a000066c 	sb	zero,1644(zero)
9d003278:	a0000674 	sb	zero,1652(zero)
9d00327c:	a0000674 	sb	zero,1652(zero)
9d003280:	a000067c 	sb	zero,1660(zero)
9d003284:	a000067c 	sb	zero,1660(zero)
9d003288:	a0000684 	sb	zero,1668(zero)
9d00328c:	a0000684 	sb	zero,1668(zero)
9d003290:	a000068c 	sb	zero,1676(zero)
9d003294:	a000068c 	sb	zero,1676(zero)
9d003298:	a0000694 	sb	zero,1684(zero)
9d00329c:	a0000694 	sb	zero,1684(zero)
9d0032a0:	a000069c 	sb	zero,1692(zero)
9d0032a4:	a000069c 	sb	zero,1692(zero)
9d0032a8:	a00006a4 	sb	zero,1700(zero)
9d0032ac:	a00006a4 	sb	zero,1700(zero)
9d0032b0:	a00006ac 	sb	zero,1708(zero)
9d0032b4:	a00006ac 	sb	zero,1708(zero)
9d0032b8:	a00006b4 	sb	zero,1716(zero)
9d0032bc:	a00006b4 	sb	zero,1716(zero)
9d0032c0:	a00006bc 	sb	zero,1724(zero)
9d0032c4:	a00006bc 	sb	zero,1724(zero)
9d0032c8:	a00006c4 	sb	zero,1732(zero)
9d0032cc:	a00006c4 	sb	zero,1732(zero)
9d0032d0:	a00006cc 	sb	zero,1740(zero)
9d0032d4:	a00006cc 	sb	zero,1740(zero)
9d0032d8:	a00006d4 	sb	zero,1748(zero)
9d0032dc:	a00006d4 	sb	zero,1748(zero)
9d0032e0:	a00006dc 	sb	zero,1756(zero)
9d0032e4:	a00006dc 	sb	zero,1756(zero)
9d0032e8:	a00006e4 	sb	zero,1764(zero)
9d0032ec:	a00006e4 	sb	zero,1764(zero)
9d0032f0:	a00006ec 	sb	zero,1772(zero)
9d0032f4:	a00006ec 	sb	zero,1772(zero)
9d0032f8:	a00006f4 	sb	zero,1780(zero)
9d0032fc:	a00006f4 	sb	zero,1780(zero)
9d003300:	a00006fc 	sb	zero,1788(zero)
9d003304:	a00006fc 	sb	zero,1788(zero)
9d003308:	a0000704 	sb	zero,1796(zero)
9d00330c:	a0000704 	sb	zero,1796(zero)
9d003310:	a000070c 	sb	zero,1804(zero)
9d003314:	a000070c 	sb	zero,1804(zero)
9d003318:	a0000714 	sb	zero,1812(zero)
9d00331c:	a0000714 	sb	zero,1812(zero)
9d003320:	a000071c 	sb	zero,1820(zero)
9d003324:	a000071c 	sb	zero,1820(zero)
9d003328:	a0000724 	sb	zero,1828(zero)
9d00332c:	a0000724 	sb	zero,1828(zero)
9d003330:	a000072c 	sb	zero,1836(zero)
9d003334:	a000072c 	sb	zero,1836(zero)
9d003338:	a0000734 	sb	zero,1844(zero)
9d00333c:	a0000734 	sb	zero,1844(zero)
9d003340:	a000073c 	sb	zero,1852(zero)
9d003344:	a000073c 	sb	zero,1852(zero)
9d003348:	a0000744 	sb	zero,1860(zero)
9d00334c:	a0000744 	sb	zero,1860(zero)
9d003350:	a000074c 	sb	zero,1868(zero)
9d003354:	a000074c 	sb	zero,1868(zero)
9d003358:	a0000754 	sb	zero,1876(zero)
9d00335c:	a0000754 	sb	zero,1876(zero)
9d003360:	a000075c 	sb	zero,1884(zero)
9d003364:	a000075c 	sb	zero,1884(zero)
9d003368:	a0000764 	sb	zero,1892(zero)
9d00336c:	a0000764 	sb	zero,1892(zero)
9d003370:	a000076c 	sb	zero,1900(zero)
9d003374:	a000076c 	sb	zero,1900(zero)
9d003378:	a0000774 	sb	zero,1908(zero)
9d00337c:	a0000774 	sb	zero,1908(zero)
9d003380:	a000077c 	sb	zero,1916(zero)
9d003384:	a000077c 	sb	zero,1916(zero)
9d003388:	a0000784 	sb	zero,1924(zero)
9d00338c:	a0000784 	sb	zero,1924(zero)
9d003390:	a0001070 	sb	zero,4208(zero)
9d003394:	00000034 	teq	zero,zero
9d003398:	00000000 	nop
9d00339c:	a0000318 	sb	zero,792(zero)
9d0033a0:	00000004 	sllv	zero,zero,zero
9d0033a4:	00000000 	nop
9d0033a8:	a000111c 	sb	zero,4380(zero)
9d0033ac:	00000020 	add	zero,zero,zero
9d0033b0:	00000001 	movf	zero,zero,$fcc0
9d0033b4:	00000000 	nop
9d0033b8:	ffffffff 	sdc3	$31,-1(ra)
	...
9d0033d4:	a0001140 	sb	zero,4416(zero)
9d0033d8:	00000004 	sllv	zero,zero,zero
9d0033dc:	00000000 	nop
9d0033e0:	a0000794 	sb	zero,1940(zero)
9d0033e4:	00000100 	sll	zero,zero,0x4
9d0033e8:	00000001 	movf	zero,zero,$fcc0
	...
9d0033f4:	ffeaaddd 	sdc3	$10,-21027(ra)
9d0033f8:	00000079 	0x79
9d0033fc:	ffaaddb9 	sdc3	$10,-8775(sp)
9d003400:	0000007a 	0x7a
9d003404:	bf70c130 	cache	0x10,-16080(k1)
9d003408:	0000007b 	0x7b
9d00340c:	feadd4d5 	sdc3	$13,-11051(s5)
9d003410:	0000007b 	0x7b
9d003414:	9eb77746 	0x9eb77746
9d003418:	0000007c 	0x7c
9d00341c:	bdcbda5e 	cache	0xb,-9634(t6)
9d003420:	0000007c 	0x7c
9d003424:	dc86ba95 	ldc3	$6,-17771(a0)
9d003428:	0000007c 	0x7c
9d00342c:	fadbafc9 	sdc2	$27,-20535(s6)
9d003430:	0000007c 	0x7c
9d003434:	8c5fad18 	lw	ra,-21224(v0)
9d003438:	0000007d 	0x7d
9d00343c:	9b13b9b8 	lwr	s3,-17992(t8)
9d003440:	0000007d 	0x7d
9d003444:	a9856ccb 	swl	a1,27851(t4)
9d003448:	0000007d 	0x7d
9d00344c:	b7b0ca0f 	0xb7b0ca0f
9d003450:	0000007d 	0x7d
9d003454:	c59269ca 	lwc1	$f18,27082(t4)
9d003458:	0000007d 	0x7d
9d00345c:	d327761e 	0xd327761e
9d003460:	0000007d 	0x7d
9d003464:	e06da64a 	sc	t5,-22966(v1)
9d003468:	0000007d 	0x7d
9d00346c:	ed63382b 	swc3	$3,14379(t3)
9d003470:	0000007d 	0x7d
9d003474:	fa06e85b 	sdc2	$6,-6053(s0)
9d003478:	0000007d 	0x7d
9d00347c:	832bf4a7 	lb	t3,-2905(t9)
9d003480:	0000007e 	0x7e
9d003484:	892aece0 	lwl	t2,-4896(t1)
9d003488:	0000007e 	0x7e
9d00348c:	8f005d5f 	lw	zero,23903(t8)
9d003490:	0000007e 	0x7e
9d003494:	94ac72c9 	lhu	t4,29385(a1)
9d003498:	0000007e 	0x7e
9d00349c:	9a2f80e6 	lwr	t7,-32538(s1)
9d0034a0:	0000007e 	0x7e
9d0034a4:	9f89fdc5 	0x9f89fdc5
9d0034a8:	0000007e 	0x7e
9d0034ac:	a4bc7d19 	sh	gp,32025(a1)
9d0034b0:	0000007e 	0x7e
9d0034b4:	a9c7abdc 	swl	a3,-21540(t6)
9d0034b8:	0000007e 	0x7e
9d0034bc:	aeac4c39 	sw	t4,19513(s5)
9d0034c0:	0000007e 	0x7e
9d0034c4:	b36b31c9 	0xb36b31c9
9d0034c8:	0000007e 	0x7e
9d0034cc:	b8053e2c 	swr	a1,15916(zero)
9d0034d0:	0000007e 	0x7e
9d0034d4:	bc7b5deb 	cache	0x1b,24043(v1)
9d0034d8:	0000007e 	0x7e
9d0034dc:	c0ce85b9 	ll	t6,-31303(a2)
9d0034e0:	0000007e 	0x7e
9d0034e4:	c4ffaffb 	lwc1	$f31,-20485(a3)
9d0034e8:	0000007e 	0x7e
9d0034ec:	a00010d4 	sb	zero,4308(zero)
9d0034f0:	00000024 	and	zero,zero,zero
9d0034f4:	00000001 	movf	zero,zero,$fcc0
9d0034f8:	00067677 	0x67677
9d0034fc:	01111553 	0x1111553
9d003500:	15555724 	bne	t2,s5,9d019194 <.LFE0+0xafe8>
9d003504:	8000006e 	lb	zero,110(zero)
9d003508:	0000ceb4 	teq	zero,zero,0x33a
9d00350c:	002d867d 	0x2d867d
9d003510:	05555837 	0x5555837
9d003514:	40000089 	0x40000089
9d003518:	80000044 	lb	zero,68(zero)
9d00351c:	a0001144 	sb	zero,4420(zero)
9d003520:	00000004 	sllv	zero,zero,zero
9d003524:	00000001 	movf	zero,zero,$fcc0
9d003528:	00000001 	movf	zero,zero,$fcc0
9d00352c:	a00010f8 	sb	zero,4344(zero)
9d003530:	00000024 	and	zero,zero,zero
9d003534:	00000000 	nop
9d003538:	a0000084 	sb	zero,132(zero)
9d00353c:	00000004 	sllv	zero,zero,zero
9d003540:	00000001 	movf	zero,zero,$fcc0
9d003544:	00000002 	srl	zero,zero,0x0
9d003548:	00000000 	nop
9d00354c:	22222222 	addi	v0,s1,8738
9d003550:	22222222 	addi	v0,s1,8738
9d003554:	22222222 	addi	v0,s1,8738

Disassembly of section .text._do_print_cdfFnopsuxX:

9d003558 <_do_print_cdfFnopsuxX>:
9d003558:	27bdff60 	addiu	sp,sp,-160
9d00355c:	afbf009c 	sw	ra,156(sp)
9d003560:	afbe0098 	sw	s8,152(sp)
9d003564:	afb70094 	sw	s7,148(sp)
9d003568:	afb60090 	sw	s6,144(sp)
9d00356c:	afb5008c 	sw	s5,140(sp)
9d003570:	afb40088 	sw	s4,136(sp)
9d003574:	afb30084 	sw	s3,132(sp)
9d003578:	afb20080 	sw	s2,128(sp)
9d00357c:	afb1007c 	sw	s1,124(sp)
9d003580:	afb00078 	sw	s0,120(sp)
9d003584:	afa400a0 	sw	a0,160(sp)
9d003588:	8c820018 	lw	v0,24(a0)
9d00358c:	00a09021 	move	s2,a1
9d003590:	24050001 	li	a1,1
9d003594:	8c420010 	lw	v0,16(v0)
9d003598:	0040f809 	jalr	v0
9d00359c:	afa600a8 	sw	a2,168(sp)
9d0035a0:	104001a7 	beqz	v0,9d003c40 <_do_print_cdfFnopsuxX+0x6e8>
9d0035a4:	27a20058 	addiu	v0,sp,88
9d0035a8:	afa00068 	sw	zero,104(sp)
9d0035ac:	afa20060 	sw	v0,96(sp)
9d0035b0:	82440000 	lb	a0,0(s2)
9d0035b4:	1080000d 	beqz	a0,9d0035ec <_do_print_cdfFnopsuxX+0x94>
9d0035b8:	26500001 	addiu	s0,s2,1
9d0035bc:	24020025 	li	v0,37
9d0035c0:	5082001c 	beql	a0,v0,9d003634 <_do_print_cdfFnopsuxX+0xdc>
9d0035c4:	82420001 	lb	v0,1(s2)
9d0035c8:	0f4032d3 	jal	9d00cb4c <fputc>
9d0035cc:	8fa500a0 	lw	a1,160(sp)
9d0035d0:	8fa30068 	lw	v1,104(sp)
9d0035d4:	24630001 	addiu	v1,v1,1
9d0035d8:	afa30068 	sw	v1,104(sp)
9d0035dc:	02009021 	move	s2,s0
9d0035e0:	82440000 	lb	a0,0(s2)
9d0035e4:	1480fff5 	bnez	a0,9d0035bc <_do_print_cdfFnopsuxX+0x64>
9d0035e8:	26500001 	addiu	s0,s2,1
9d0035ec:	8fa400a0 	lw	a0,160(sp)
9d0035f0:	94820010 	lhu	v0,16(a0)
9d0035f4:	30420040 	andi	v0,v0,0x40
9d0035f8:	14400192 	bnez	v0,9d003c44 <_do_print_cdfFnopsuxX+0x6ec>
9d0035fc:	2402ffff 	li	v0,-1
9d003600:	8fa20068 	lw	v0,104(sp)
9d003604:	8fbf009c 	lw	ra,156(sp)
9d003608:	8fbe0098 	lw	s8,152(sp)
9d00360c:	8fb70094 	lw	s7,148(sp)
9d003610:	8fb60090 	lw	s6,144(sp)
9d003614:	8fb5008c 	lw	s5,140(sp)
9d003618:	8fb40088 	lw	s4,136(sp)
9d00361c:	8fb30084 	lw	s3,132(sp)
9d003620:	8fb20080 	lw	s2,128(sp)
9d003624:	8fb1007c 	lw	s1,124(sp)
9d003628:	8fb00078 	lw	s0,120(sp)
9d00362c:	03e00008 	jr	ra
9d003630:	27bd00a0 	addiu	sp,sp,160
9d003634:	10440172 	beq	v0,a0,9d003c00 <_do_print_cdfFnopsuxX+0x6a8>
9d003638:	0000b821 	move	s7,zero
9d00363c:	2403002d 	li	v1,45
9d003640:	2404002b 	li	a0,43
9d003644:	24050020 	li	a1,32
9d003648:	24060023 	li	a2,35
9d00364c:	1043000e 	beq	v0,v1,9d003688 <_do_print_cdfFnopsuxX+0x130>
9d003650:	24070030 	li	a3,48
9d003654:	50440010 	beql	v0,a0,9d003698 <_do_print_cdfFnopsuxX+0x140>
9d003658:	36f70002 	ori	s7,s7,0x2
9d00365c:	50450011 	beql	v0,a1,9d0036a4 <_do_print_cdfFnopsuxX+0x14c>
9d003660:	36f70001 	ori	s7,s7,0x1
9d003664:	50460012 	beql	v0,a2,9d0036b0 <_do_print_cdfFnopsuxX+0x158>
9d003668:	36f70800 	ori	s7,s7,0x800
9d00366c:	54470013 	bnel	v0,a3,9d0036bc <_do_print_cdfFnopsuxX+0x164>
9d003670:	2403002a 	li	v1,42
9d003674:	36f70004 	ori	s7,s7,0x4
9d003678:	26100001 	addiu	s0,s0,1
9d00367c:	82020000 	lb	v0,0(s0)
9d003680:	1443fff4 	bne	v0,v1,9d003654 <_do_print_cdfFnopsuxX+0xfc>
9d003684:	00000000 	nop
9d003688:	36f70008 	ori	s7,s7,0x8
9d00368c:	26100001 	addiu	s0,s0,1
9d003690:	0b400da0 	j	9d003680 <_do_print_cdfFnopsuxX+0x128>
9d003694:	82020000 	lb	v0,0(s0)
9d003698:	26100001 	addiu	s0,s0,1
9d00369c:	0b400da0 	j	9d003680 <_do_print_cdfFnopsuxX+0x128>
9d0036a0:	82020000 	lb	v0,0(s0)
9d0036a4:	26100001 	addiu	s0,s0,1
9d0036a8:	0b400da0 	j	9d003680 <_do_print_cdfFnopsuxX+0x128>
9d0036ac:	82020000 	lb	v0,0(s0)
9d0036b0:	26100001 	addiu	s0,s0,1
9d0036b4:	0b400da0 	j	9d003680 <_do_print_cdfFnopsuxX+0x128>
9d0036b8:	82020000 	lb	v0,0(s0)
9d0036bc:	10430126 	beq	v0,v1,9d003b58 <_do_print_cdfFnopsuxX+0x600>
9d0036c0:	02002021 	move	a0,s0
9d0036c4:	2443ffd0 	addiu	v1,v0,-48
9d0036c8:	2c63000a 	sltiu	v1,v1,10
9d0036cc:	1060000b 	beqz	v1,9d0036fc <_do_print_cdfFnopsuxX+0x1a4>
9d0036d0:	0000b021 	move	s6,zero
9d0036d4:	00161840 	sll	v1,s6,0x1
9d0036d8:	001650c0 	sll	t2,s6,0x3
9d0036dc:	006a5021 	addu	t2,v1,t2
9d0036e0:	26100001 	addiu	s0,s0,1
9d0036e4:	01425021 	addu	t2,t2,v0
9d0036e8:	82020000 	lb	v0,0(s0)
9d0036ec:	2443ffd0 	addiu	v1,v0,-48
9d0036f0:	2c63000a 	sltiu	v1,v1,10
9d0036f4:	1460fff7 	bnez	v1,9d0036d4 <_do_print_cdfFnopsuxX+0x17c>
9d0036f8:	2556ffd0 	addiu	s6,t2,-48
9d0036fc:	2403002e 	li	v1,46
9d003700:	104300ee 	beq	v0,v1,9d003abc <_do_print_cdfFnopsuxX+0x564>
9d003704:	241effff 	li	s8,-1
9d003708:	24030068 	li	v1,104
9d00370c:	50430101 	beql	v0,v1,9d003b14 <_do_print_cdfFnopsuxX+0x5bc>
9d003710:	82030001 	lb	v1,1(s0)
9d003714:	2403006c 	li	v1,108
9d003718:	10430119 	beq	v0,v1,9d003b80 <_do_print_cdfFnopsuxX+0x628>
9d00371c:	24030071 	li	v1,113
9d003720:	10430143 	beq	v0,v1,9d003c30 <_do_print_cdfFnopsuxX+0x6d8>
9d003724:	2403004c 	li	v1,76
9d003728:	504301d0 	beql	v0,v1,9d003e6c <_do_print_cdfFnopsuxX+0x914>
9d00372c:	82020001 	lb	v0,1(s0)
9d003730:	32e40002 	andi	a0,s7,0x2
9d003734:	32e3fffe 	andi	v1,s7,0xfffe
9d003738:	0064b80b 	movn	s7,v1,a0
9d00373c:	2442ffbc 	addiu	v0,v0,-68
9d003740:	32e50008 	andi	a1,s7,0x8
9d003744:	32e4fffb 	andi	a0,s7,0xfffb
9d003748:	2c430035 	sltiu	v1,v0,53
9d00374c:	26120001 	addiu	s2,s0,1
9d003750:	106000ff 	beqz	v1,9d003b50 <_do_print_cdfFnopsuxX+0x5f8>
9d003754:	0085b80b 	movn	s7,a0,a1
9d003758:	00021080 	sll	v0,v0,0x2
9d00375c:	3c049d00 	lui	a0,0x9d00
9d003760:	24843774 	addiu	a0,a0,14196
9d003764:	00821021 	addu	v0,a0,v0
9d003768:	8c420000 	lw	v0,0(v0)
9d00376c:	00400008 	jr	v0
9d003770:	00000000 	nop
9d003774:	9d0039d4 	0x9d0039d4
9d003778:	9d003b50 	0x9d003b50
9d00377c:	9d003b50 	0x9d003b50
9d003780:	9d003b50 	0x9d003b50
9d003784:	9d003b50 	0x9d003b50
9d003788:	9d003b50 	0x9d003b50
9d00378c:	9d003b50 	0x9d003b50
9d003790:	9d003b50 	0x9d003b50
9d003794:	9d003b50 	0x9d003b50
9d003798:	9d003b50 	0x9d003b50
9d00379c:	9d003b50 	0x9d003b50
9d0037a0:	9d003e2c 	0x9d003e2c
9d0037a4:	9d003a44 	0x9d003a44
9d0037a8:	9d003b50 	0x9d003b50
9d0037ac:	9d003b50 	0x9d003b50
9d0037b0:	9d003b50 	0x9d003b50
9d0037b4:	9d003b50 	0x9d003b50
9d0037b8:	9d003a34 	0x9d003a34
9d0037bc:	9d003b50 	0x9d003b50
9d0037c0:	9d003b50 	0x9d003b50
9d0037c4:	9d003848 	0x9d003848
9d0037c8:	9d003b50 	0x9d003b50
9d0037cc:	9d003b50 	0x9d003b50
9d0037d0:	9d003b50 	0x9d003b50
9d0037d4:	9d003b50 	0x9d003b50
9d0037d8:	9d003b50 	0x9d003b50
9d0037dc:	9d003b50 	0x9d003b50
9d0037e0:	9d003b50 	0x9d003b50
9d0037e4:	9d003b50 	0x9d003b50
9d0037e8:	9d003b50 	0x9d003b50
9d0037ec:	9d003b50 	0x9d003b50
9d0037f0:	9d003df8 	0x9d003df8
9d0037f4:	9d0039d8 	0x9d0039d8
9d0037f8:	9d003b50 	0x9d003b50
9d0037fc:	9d003db4 	0x9d003db4
9d003800:	9d003b50 	0x9d003b50
9d003804:	9d003b50 	0x9d003b50
9d003808:	9d0039d8 	0x9d0039d8
9d00380c:	9d003b50 	0x9d003b50
9d003810:	9d003b50 	0x9d003b50
9d003814:	9d003b50 	0x9d003b50
9d003818:	9d003b50 	0x9d003b50
9d00381c:	9d003d6c 	0x9d003d6c
9d003820:	9d003cf0 	0x9d003cf0
9d003824:	9d003a48 	0x9d003a48
9d003828:	9d003b50 	0x9d003b50
9d00382c:	9d003b50 	0x9d003b50
9d003830:	9d003cf8 	0x9d003cf8
9d003834:	9d003b50 	0x9d003b50
9d003838:	9d003a38 	0x9d003a38
9d00383c:	9d003b50 	0x9d003b50
9d003840:	9d003b50 	0x9d003b50
9d003844:	9d00384c 	0x9d00384c
9d003848:	36f70020 	ori	s7,s7,0x20
9d00384c:	24100010 	li	s0,16
9d003850:	2402ffff 	li	v0,-1
9d003854:	13c20066 	beq	s8,v0,9d0039f0 <_do_print_cdfFnopsuxX+0x498>
9d003858:	00002821 	move	a1,zero
9d00385c:	32f7fffb 	andi	s7,s7,0xfffb
9d003860:	27c5ffff 	addiu	a1,s8,-1
9d003864:	32e200c0 	andi	v0,s7,0xc0
9d003868:	10400065 	beqz	v0,9d003a00 <_do_print_cdfFnopsuxX+0x4a8>
9d00386c:	afa2006c 	sw	v0,108(sp)
9d003870:	7c171620 	seh	v0,s7
9d003874:	0440018f 	bltz	v0,9d003eb4 <_do_print_cdfFnopsuxX+0x95c>
9d003878:	32e20010 	andi	v0,s7,0x10
9d00387c:	104000fd 	beqz	v0,9d003c74 <_do_print_cdfFnopsuxX+0x71c>
9d003880:	32e20041 	andi	v0,s7,0x41
9d003884:	8fa200a8 	lw	v0,168(sp)
9d003888:	8c550000 	lw	s5,0(v0)
9d00388c:	24420004 	addiu	v0,v0,4
9d003890:	0015a7c3 	sra	s4,s5,0x1f
9d003894:	0680010a 	bltz	s4,9d003cc0 <_do_print_cdfFnopsuxX+0x768>
9d003898:	afa200a8 	sw	v0,168(sp)
9d00389c:	afa00074 	sw	zero,116(sp)
9d0038a0:	128000be 	beqz	s4,9d003b9c <_do_print_cdfFnopsuxX+0x644>
9d0038a4:	02b41025 	or	v0,s5,s4
9d0038a8:	104001ab 	beqz	v0,9d003f58 <_do_print_cdfFnopsuxX+0xa00>
9d0038ac:	27a20057 	addiu	v0,sp,87
9d0038b0:	afa20070 	sw	v0,112(sp)
9d0038b4:	32e30020 	andi	v1,s7,0x20
9d0038b8:	24040037 	li	a0,55
9d0038bc:	00108fc3 	sra	s1,s0,0x1f
9d0038c0:	00409821 	move	s3,v0
9d0038c4:	24020057 	li	v0,87
9d0038c8:	0043200a 	movz	a0,v0,v1
9d0038cc:	afa40064 	sw	a0,100(sp)
9d0038d0:	02a02021 	move	a0,s5
9d0038d4:	02802821 	move	a1,s4
9d0038d8:	02003021 	move	a2,s0
9d0038dc:	0f401bd9 	jal	9d006f64 <.LFE9>
9d0038e0:	02203821 	move	a3,s1
9d0038e4:	2843000a 	slti	v1,v0,10
9d0038e8:	24460030 	addiu	a2,v0,48
9d0038ec:	8fa40064 	lw	a0,100(sp)
9d0038f0:	00441021 	addu	v0,v0,a0
9d0038f4:	0043300a 	movz	a2,v0,v1
9d0038f8:	2673ffff 	addiu	s3,s3,-1
9d0038fc:	02a02021 	move	a0,s5
9d003900:	02802821 	move	a1,s4
9d003904:	a2660001 	sb	a2,1(s3)
9d003908:	02003021 	move	a2,s0
9d00390c:	0f401cf2 	jal	9d0073c8 <__udivdi3>
9d003910:	02203821 	move	a3,s1
9d003914:	00622025 	or	a0,v1,v0
9d003918:	0040a821 	move	s5,v0
9d00391c:	0060a021 	move	s4,v1
9d003920:	1480ffeb 	bnez	a0,9d0038d0 <_do_print_cdfFnopsuxX+0x378>
9d003924:	27deffff 	addiu	s8,s8,-1
9d003928:	27c5ffff 	addiu	a1,s8,-1
9d00392c:	04a0000a 	bltz	a1,9d003958 <_do_print_cdfFnopsuxX+0x400>
9d003930:	02601021 	move	v0,s3
9d003934:	2664ffff 	addiu	a0,s3,-1
9d003938:	00852023 	subu	a0,a0,a1
9d00393c:	24030030 	li	v1,48
9d003940:	a0430000 	sb	v1,0(v0)
9d003944:	2442ffff 	addiu	v0,v0,-1
9d003948:	5444fffe 	bnel	v0,a0,9d003944 <_do_print_cdfFnopsuxX+0x3ec>
9d00394c:	a0430000 	sb	v1,0(v0)
9d003950:	00052827 	nor	a1,zero,a1
9d003954:	02659821 	addu	s3,s3,a1
9d003958:	32e20004 	andi	v0,s7,0x4
9d00395c:	1440003d 	bnez	v0,9d003a54 <_do_print_cdfFnopsuxX+0x4fc>
9d003960:	32e40800 	andi	a0,s7,0x800
9d003964:	3084ffff 	andi	a0,a0,0xffff
9d003968:	50800007 	beqzl	a0,9d003988 <_do_print_cdfFnopsuxX+0x430>
9d00396c:	8fa3006c 	lw	v1,108(sp)
9d003970:	24020008 	li	v0,8
9d003974:	12020140 	beq	s0,v0,9d003e78 <_do_print_cdfFnopsuxX+0x920>
9d003978:	24020010 	li	v0,16
9d00397c:	12020165 	beq	s0,v0,9d003f14 <_do_print_cdfFnopsuxX+0x9bc>
9d003980:	32e40020 	andi	a0,s7,0x20
9d003984:	8fa3006c 	lw	v1,108(sp)
9d003988:	10600007 	beqz	v1,9d0039a8 <_do_print_cdfFnopsuxX+0x450>
9d00398c:	8fa40074 	lw	a0,116(sp)
9d003990:	148000a3 	bnez	a0,9d003c20 <_do_print_cdfFnopsuxX+0x6c8>
9d003994:	32e20002 	andi	v0,s7,0x2
9d003998:	10400003 	beqz	v0,9d0039a8 <_do_print_cdfFnopsuxX+0x450>
9d00399c:	2402002b 	li	v0,43
9d0039a0:	a2620000 	sb	v0,0(s3)
9d0039a4:	2673ffff 	addiu	s3,s3,-1
9d0039a8:	26650001 	addiu	a1,s3,1
9d0039ac:	afb70010 	sw	s7,16(sp)
9d0039b0:	8fa400a0 	lw	a0,160(sp)
9d0039b4:	8fa20060 	lw	v0,96(sp)
9d0039b8:	00453023 	subu	a2,v0,a1
9d0039bc:	0f402d4f 	jal	9d00b53c <_outcnvrt>
9d0039c0:	02c03821 	move	a3,s6
9d0039c4:	8fa30068 	lw	v1,104(sp)
9d0039c8:	00621821 	addu	v1,v1,v0
9d0039cc:	0b400d6c 	j	9d0035b0 <_do_print_cdfFnopsuxX+0x58>
9d0039d0:	afa30068 	sw	v1,104(sp)
9d0039d4:	36f70010 	ori	s7,s7,0x10
9d0039d8:	32e8f7ff 	andi	t0,s7,0xf7ff
9d0039dc:	351700c0 	ori	s7,t0,0xc0
9d0039e0:	2402ffff 	li	v0,-1
9d0039e4:	17c2ff9d 	bne	s8,v0,9d00385c <_do_print_cdfFnopsuxX+0x304>
9d0039e8:	2410000a 	li	s0,10
9d0039ec:	00002821 	move	a1,zero
9d0039f0:	241e0001 	li	s8,1
9d0039f4:	32e200c0 	andi	v0,s7,0xc0
9d0039f8:	1440ff9d 	bnez	v0,9d003870 <_do_print_cdfFnopsuxX+0x318>
9d0039fc:	afa2006c 	sw	v0,108(sp)
9d003a00:	7c171620 	seh	v0,s7
9d003a04:	04400123 	bltz	v0,9d003e94 <_do_print_cdfFnopsuxX+0x93c>
9d003a08:	8fa300a8 	lw	v1,168(sp)
9d003a0c:	32e20010 	andi	v0,s7,0x10
9d003a10:	504000a2 	beqzl	v0,9d003c9c <_do_print_cdfFnopsuxX+0x744>
9d003a14:	32e20041 	andi	v0,s7,0x41
9d003a18:	8fa200a8 	lw	v0,168(sp)
9d003a1c:	8c550000 	lw	s5,0(v0)
9d003a20:	0000a021 	move	s4,zero
9d003a24:	24420004 	addiu	v0,v0,4
9d003a28:	afa200a8 	sw	v0,168(sp)
9d003a2c:	0b400e28 	j	9d0038a0 <_do_print_cdfFnopsuxX+0x348>
9d003a30:	afa00074 	sw	zero,116(sp)
9d003a34:	36f70010 	ori	s7,s7,0x10
9d003a38:	32f7f7ff 	andi	s7,s7,0xf7ff
9d003a3c:	0b400e14 	j	9d003850 <_do_print_cdfFnopsuxX+0x2f8>
9d003a40:	2410000a 	li	s0,10
9d003a44:	36f70020 	ori	s7,s7,0x20
9d003a48:	36f70810 	ori	s7,s7,0x810
9d003a4c:	0b400e14 	j	9d003850 <_do_print_cdfFnopsuxX+0x2f8>
9d003a50:	24100010 	li	s0,16
9d003a54:	8fa20070 	lw	v0,112(sp)
9d003a58:	02621823 	subu	v1,s3,v0
9d003a5c:	3084ffff 	andi	a0,a0,0xffff
9d003a60:	10800006 	beqz	a0,9d003a7c <_do_print_cdfFnopsuxX+0x524>
9d003a64:	02c31821 	addu	v1,s6,v1
9d003a68:	24020008 	li	v0,8
9d003a6c:	12020135 	beq	s0,v0,9d003f44 <_do_print_cdfFnopsuxX+0x9ec>
9d003a70:	2462fffe 	addiu	v0,v1,-2
9d003a74:	3a050010 	xori	a1,s0,0x10
9d003a78:	0045180a 	movz	v1,v0,a1
9d003a7c:	8fa2006c 	lw	v0,108(sp)
9d003a80:	10400004 	beqz	v0,9d003a94 <_do_print_cdfFnopsuxX+0x53c>
9d003a84:	8fa20074 	lw	v0,116(sp)
9d003a88:	10400095 	beqz	v0,9d003ce0 <_do_print_cdfFnopsuxX+0x788>
9d003a8c:	32e20003 	andi	v0,s7,0x3
9d003a90:	2463ffff 	addiu	v1,v1,-1
9d003a94:	1860ffb4 	blez	v1,9d003968 <_do_print_cdfFnopsuxX+0x410>
9d003a98:	02601021 	move	v0,s3
9d003a9c:	02634823 	subu	t1,s3,v1
9d003aa0:	24030030 	li	v1,48
9d003aa4:	a0430000 	sb	v1,0(v0)
9d003aa8:	2442ffff 	addiu	v0,v0,-1
9d003aac:	5522fffe 	bnel	t1,v0,9d003aa8 <_do_print_cdfFnopsuxX+0x550>
9d003ab0:	a0430000 	sb	v1,0(v0)
9d003ab4:	0b400e5a 	j	9d003968 <_do_print_cdfFnopsuxX+0x410>
9d003ab8:	01209821 	move	s3,t1
9d003abc:	82020001 	lb	v0,1(s0)
9d003ac0:	2403002a 	li	v1,42
9d003ac4:	10430109 	beq	v0,v1,9d003eec <_do_print_cdfFnopsuxX+0x994>
9d003ac8:	2443ffd0 	addiu	v1,v0,-48
9d003acc:	2c63000a 	sltiu	v1,v1,10
9d003ad0:	26100001 	addiu	s0,s0,1
9d003ad4:	1060ff0c 	beqz	v1,9d003708 <_do_print_cdfFnopsuxX+0x1b0>
9d003ad8:	0000f021 	move	s8,zero
9d003adc:	001e1840 	sll	v1,s8,0x1
9d003ae0:	001e58c0 	sll	t3,s8,0x3
9d003ae4:	006b5821 	addu	t3,v1,t3
9d003ae8:	26100001 	addiu	s0,s0,1
9d003aec:	01625821 	addu	t3,t3,v0
9d003af0:	82020000 	lb	v0,0(s0)
9d003af4:	2443ffd0 	addiu	v1,v0,-48
9d003af8:	2c63000a 	sltiu	v1,v1,10
9d003afc:	1460fff7 	bnez	v1,9d003adc <_do_print_cdfFnopsuxX+0x584>
9d003b00:	257effd0 	addiu	s8,t3,-48
9d003b04:	24030068 	li	v1,104
9d003b08:	1443ff03 	bne	v0,v1,9d003718 <_do_print_cdfFnopsuxX+0x1c0>
9d003b0c:	2403006c 	li	v1,108
9d003b10:	82030001 	lb	v1,1(s0)
9d003b14:	506200f1 	beql	v1,v0,9d003edc <_do_print_cdfFnopsuxX+0x984>
9d003b18:	82020002 	lb	v0,2(s0)
9d003b1c:	36f70040 	ori	s7,s7,0x40
9d003b20:	00601021 	move	v0,v1
9d003b24:	26100001 	addiu	s0,s0,1
9d003b28:	32e40002 	andi	a0,s7,0x2
9d003b2c:	32e3fffe 	andi	v1,s7,0xfffe
9d003b30:	0064b80b 	movn	s7,v1,a0
9d003b34:	2442ffbc 	addiu	v0,v0,-68
9d003b38:	32e50008 	andi	a1,s7,0x8
9d003b3c:	32e4fffb 	andi	a0,s7,0xfffb
9d003b40:	2c430035 	sltiu	v1,v0,53
9d003b44:	26120001 	addiu	s2,s0,1
9d003b48:	1460ff03 	bnez	v1,9d003758 <_do_print_cdfFnopsuxX+0x200>
9d003b4c:	0085b80b 	movn	s7,a0,a1
9d003b50:	0b400e71 	j	9d0039c4 <_do_print_cdfFnopsuxX+0x46c>
9d003b54:	00001021 	move	v0,zero
9d003b58:	8fa200a8 	lw	v0,168(sp)
9d003b5c:	8c560000 	lw	s6,0(v0)
9d003b60:	24550004 	addiu	s5,v0,4
9d003b64:	26100001 	addiu	s0,s0,1
9d003b68:	06c10003 	bgez	s6,9d003b78 <_do_print_cdfFnopsuxX+0x620>
9d003b6c:	80820001 	lb	v0,1(a0)
9d003b70:	36f70008 	ori	s7,s7,0x8
9d003b74:	0016b023 	negu	s6,s6
9d003b78:	0b400dbf 	j	9d0036fc <_do_print_cdfFnopsuxX+0x1a4>
9d003b7c:	afb500a8 	sw	s5,168(sp)
9d003b80:	82030001 	lb	v1,1(s0)
9d003b84:	506200eb 	beql	v1,v0,9d003f34 <_do_print_cdfFnopsuxX+0x9dc>
9d003b88:	82020002 	lb	v0,2(s0)
9d003b8c:	36f70010 	ori	s7,s7,0x10
9d003b90:	00601021 	move	v0,v1
9d003b94:	0b400eca 	j	9d003b28 <_do_print_cdfFnopsuxX+0x5d0>
9d003b98:	26100001 	addiu	s0,s0,1
9d003b9c:	12a00114 	beqz	s5,9d003ff0 <_do_print_cdfFnopsuxX+0xa98>
9d003ba0:	02a06821 	move	t5,s5
9d003ba4:	27a40057 	addiu	a0,sp,87
9d003ba8:	afa40070 	sw	a0,112(sp)
9d003bac:	32e30020 	andi	v1,s7,0x20
9d003bb0:	24050037 	li	a1,55
9d003bb4:	00809821 	move	s3,a0
9d003bb8:	24020057 	li	v0,87
9d003bbc:	0043280a 	movz	a1,v0,v1
9d003bc0:	01b0001b 	divu	zero,t5,s0
9d003bc4:	020001f4 	teq	s0,zero,0x7
9d003bc8:	00001810 	mfhi	v1
9d003bcc:	2673ffff 	addiu	s3,s3,-1
9d003bd0:	27deffff 	addiu	s8,s8,-1
9d003bd4:	01b0001b 	divu	zero,t5,s0
9d003bd8:	020001f4 	teq	s0,zero,0x7
9d003bdc:	00006812 	mflo	t5
9d003be0:	2864000a 	slti	a0,v1,10
9d003be4:	24620030 	addiu	v0,v1,48
9d003be8:	00651821 	addu	v1,v1,a1
9d003bec:	0064100a 	movz	v0,v1,a0
9d003bf0:	15a0fff3 	bnez	t5,9d003bc0 <_do_print_cdfFnopsuxX+0x668>
9d003bf4:	a2620001 	sb	v0,1(s3)
9d003bf8:	0b400e4b 	j	9d00392c <_do_print_cdfFnopsuxX+0x3d4>
9d003bfc:	27c5ffff 	addiu	a1,s8,-1
9d003c00:	24040025 	li	a0,37
9d003c04:	0f4032d3 	jal	9d00cb4c <fputc>
9d003c08:	8fa500a0 	lw	a1,160(sp)
9d003c0c:	26520002 	addiu	s2,s2,2
9d003c10:	8fa40068 	lw	a0,104(sp)
9d003c14:	24840001 	addiu	a0,a0,1
9d003c18:	0b400d6c 	j	9d0035b0 <_do_print_cdfFnopsuxX+0x58>
9d003c1c:	afa40068 	sw	a0,104(sp)
9d003c20:	2402002d 	li	v0,45
9d003c24:	a2620000 	sb	v0,0(s3)
9d003c28:	0b400e6a 	j	9d0039a8 <_do_print_cdfFnopsuxX+0x450>
9d003c2c:	2673ffff 	addiu	s3,s3,-1
9d003c30:	82020001 	lb	v0,1(s0)
9d003c34:	36f78000 	ori	s7,s7,0x8000
9d003c38:	0b400dcc 	j	9d003730 <_do_print_cdfFnopsuxX+0x1d8>
9d003c3c:	26100001 	addiu	s0,s0,1
9d003c40:	2402ffff 	li	v0,-1
9d003c44:	8fbf009c 	lw	ra,156(sp)
9d003c48:	8fbe0098 	lw	s8,152(sp)
9d003c4c:	8fb70094 	lw	s7,148(sp)
9d003c50:	8fb60090 	lw	s6,144(sp)
9d003c54:	8fb5008c 	lw	s5,140(sp)
9d003c58:	8fb40088 	lw	s4,136(sp)
9d003c5c:	8fb30084 	lw	s3,132(sp)
9d003c60:	8fb20080 	lw	s2,128(sp)
9d003c64:	8fb1007c 	lw	s1,124(sp)
9d003c68:	8fb00078 	lw	s0,120(sp)
9d003c6c:	03e00008 	jr	ra
9d003c70:	27bd00a0 	addiu	sp,sp,160
9d003c74:	10400076 	beqz	v0,9d003e50 <_do_print_cdfFnopsuxX+0x8f8>
9d003c78:	8fa400a8 	lw	a0,168(sp)
9d003c7c:	8fa300a8 	lw	v1,168(sp)
9d003c80:	8c750000 	lw	s5,0(v1)
9d003c84:	24630004 	addiu	v1,v1,4
9d003c88:	0015a7c3 	sra	s4,s5,0x1f
9d003c8c:	0681ff03 	bgez	s4,9d00389c <_do_print_cdfFnopsuxX+0x344>
9d003c90:	afa300a8 	sw	v1,168(sp)
9d003c94:	0b400f31 	j	9d003cc4 <_do_print_cdfFnopsuxX+0x76c>
9d003c98:	00156823 	negu	t5,s5
9d003c9c:	10400066 	beqz	v0,9d003e38 <_do_print_cdfFnopsuxX+0x8e0>
9d003ca0:	8fa400a8 	lw	a0,168(sp)
9d003ca4:	8fa300a8 	lw	v1,168(sp)
9d003ca8:	8c750000 	lw	s5,0(v1)
9d003cac:	0000a021 	move	s4,zero
9d003cb0:	24630004 	addiu	v1,v1,4
9d003cb4:	afa300a8 	sw	v1,168(sp)
9d003cb8:	0b400e28 	j	9d0038a0 <_do_print_cdfFnopsuxX+0x348>
9d003cbc:	afa00074 	sw	zero,116(sp)
9d003cc0:	00156823 	negu	t5,s5
9d003cc4:	000d102b 	sltu	v0,zero,t5
9d003cc8:	00146023 	negu	t4,s4
9d003ccc:	01a0a821 	move	s5,t5
9d003cd0:	0182a023 	subu	s4,t4,v0
9d003cd4:	24020001 	li	v0,1
9d003cd8:	0b400e28 	j	9d0038a0 <_do_print_cdfFnopsuxX+0x348>
9d003cdc:	afa20074 	sw	v0,116(sp)
9d003ce0:	5440ff6c 	bnezl	v0,9d003a94 <_do_print_cdfFnopsuxX+0x53c>
9d003ce4:	2463ffff 	addiu	v1,v1,-1
9d003ce8:	0b400ea5 	j	9d003a94 <_do_print_cdfFnopsuxX+0x53c>
9d003cec:	00000000 	nop
9d003cf0:	0b400e14 	j	9d003850 <_do_print_cdfFnopsuxX+0x2f8>
9d003cf4:	24100008 	li	s0,8
9d003cf8:	8fa400a8 	lw	a0,168(sp)
9d003cfc:	8c900000 	lw	s0,0(a0)
9d003d00:	3c039d01 	lui	v1,0x9d01
9d003d04:	2462d8b8 	addiu	v0,v1,-10056
9d003d08:	0050800a 	movz	s0,v0,s0
9d003d0c:	2402ffff 	li	v0,-1
9d003d10:	13c200a8 	beq	s8,v0,9d003fb4 <_do_print_cdfFnopsuxX+0xa5c>
9d003d14:	24950004 	addiu	s5,a0,4
9d003d18:	1bc000c3 	blez	s8,9d004028 <_do_print_cdfFnopsuxX+0xad0>
9d003d1c:	021e5821 	addu	t3,s0,s8
9d003d20:	82030000 	lb	v1,0(s0)
9d003d24:	14600005 	bnez	v1,9d003d3c <_do_print_cdfFnopsuxX+0x7e4>
9d003d28:	02001021 	move	v0,s0
9d003d2c:	0b400f53 	j	9d003d4c <_do_print_cdfFnopsuxX+0x7f4>
9d003d30:	00001021 	move	v0,zero
9d003d34:	50600005 	beqzl	v1,9d003d4c <_do_print_cdfFnopsuxX+0x7f4>
9d003d38:	00501023 	subu	v0,v0,s0
9d003d3c:	24420001 	addiu	v0,v0,1
9d003d40:	544bfffc 	bnel	v0,t3,9d003d34 <_do_print_cdfFnopsuxX+0x7dc>
9d003d44:	80430000 	lb	v1,0(v0)
9d003d48:	00501023 	subu	v0,v0,s0
9d003d4c:	afb70010 	sw	s7,16(sp)
9d003d50:	8fa400a0 	lw	a0,160(sp)
9d003d54:	02002821 	move	a1,s0
9d003d58:	00403021 	move	a2,v0
9d003d5c:	0f402d4f 	jal	9d00b53c <_outcnvrt>
9d003d60:	02c03821 	move	a3,s6
9d003d64:	0b400e71 	j	9d0039c4 <_do_print_cdfFnopsuxX+0x46c>
9d003d68:	afb500a8 	sw	s5,168(sp)
9d003d6c:	7c171620 	seh	v0,s7
9d003d70:	04400094 	bltz	v0,9d003fc4 <_do_print_cdfFnopsuxX+0xa6c>
9d003d74:	8fa400a8 	lw	a0,168(sp)
9d003d78:	32e20010 	andi	v0,s7,0x10
9d003d7c:	14400085 	bnez	v0,9d003f94 <_do_print_cdfFnopsuxX+0xa3c>
9d003d80:	8fa200a8 	lw	v0,168(sp)
9d003d84:	32e20040 	andi	v0,s7,0x40
9d003d88:	1040009d 	beqz	v0,9d004000 <_do_print_cdfFnopsuxX+0xaa8>
9d003d8c:	32e80001 	andi	t0,s7,0x1
9d003d90:	8fa200a8 	lw	v0,168(sp)
9d003d94:	8c430000 	lw	v1,0(v0)
9d003d98:	00001021 	move	v0,zero
9d003d9c:	8fa400a8 	lw	a0,168(sp)
9d003da0:	24840004 	addiu	a0,a0,4
9d003da4:	afa400a8 	sw	a0,168(sp)
9d003da8:	8fa40068 	lw	a0,104(sp)
9d003dac:	0b400e71 	j	9d0039c4 <_do_print_cdfFnopsuxX+0x46c>
9d003db0:	a4640000 	sh	a0,0(v1)
9d003db4:	32e20080 	andi	v0,s7,0x80
9d003db8:	1440006b 	bnez	v0,9d003f68 <_do_print_cdfFnopsuxX+0xa10>
9d003dbc:	36f00400 	ori	s0,s7,0x400
9d003dc0:	8fa400a8 	lw	a0,168(sp)
9d003dc4:	8c820000 	lw	v0,0(a0)
9d003dc8:	24840004 	addiu	a0,a0,4
9d003dcc:	afa400a8 	sw	a0,168(sp)
9d003dd0:	afa20058 	sw	v0,88(sp)
9d003dd4:	8fa50058 	lw	a1,88(sp)
9d003dd8:	afbe0010 	sw	s8,16(sp)
9d003ddc:	afb00014 	sw	s0,20(sp)
9d003de0:	8fa400a0 	lw	a0,160(sp)
9d003de4:	24060066 	li	a2,102
9d003de8:	0f40170e 	jal	9d005c38 <_fconvert>
9d003dec:	02c03821 	move	a3,s6
9d003df0:	0b400e72 	j	9d0039c8 <_do_print_cdfFnopsuxX+0x470>
9d003df4:	8fa30068 	lw	v1,104(sp)
9d003df8:	8fa300a8 	lw	v1,168(sp)
9d003dfc:	8c620000 	lw	v0,0(v1)
9d003e00:	24750004 	addiu	s5,v1,4
9d003e04:	afb70010 	sw	s7,16(sp)
9d003e08:	8fa400a0 	lw	a0,160(sp)
9d003e0c:	27a50018 	addiu	a1,sp,24
9d003e10:	24060001 	li	a2,1
9d003e14:	02c03821 	move	a3,s6
9d003e18:	a3a20018 	sb	v0,24(sp)
9d003e1c:	0f402d4f 	jal	9d00b53c <_outcnvrt>
9d003e20:	afb500a8 	sw	s5,168(sp)
9d003e24:	0b400e72 	j	9d0039c8 <_do_print_cdfFnopsuxX+0x470>
9d003e28:	8fa30068 	lw	v1,104(sp)
9d003e2c:	36f70010 	ori	s7,s7,0x10
9d003e30:	0b400e14 	j	9d003850 <_do_print_cdfFnopsuxX+0x2f8>
9d003e34:	24100008 	li	s0,8
9d003e38:	8c950000 	lw	s5,0(a0)
9d003e3c:	0000a021 	move	s4,zero
9d003e40:	24840004 	addiu	a0,a0,4
9d003e44:	afa400a8 	sw	a0,168(sp)
9d003e48:	0b400e28 	j	9d0038a0 <_do_print_cdfFnopsuxX+0x348>
9d003e4c:	afa00074 	sw	zero,116(sp)
9d003e50:	8c950000 	lw	s5,0(a0)
9d003e54:	24840004 	addiu	a0,a0,4
9d003e58:	0015a7c3 	sra	s4,s5,0x1f
9d003e5c:	0681fe8f 	bgez	s4,9d00389c <_do_print_cdfFnopsuxX+0x344>
9d003e60:	afa400a8 	sw	a0,168(sp)
9d003e64:	0b400f31 	j	9d003cc4 <_do_print_cdfFnopsuxX+0x76c>
9d003e68:	00156823 	negu	t5,s5
9d003e6c:	36f70080 	ori	s7,s7,0x80
9d003e70:	0b400eca 	j	9d003b28 <_do_print_cdfFnopsuxX+0x5d0>
9d003e74:	26100001 	addiu	s0,s0,1
9d003e78:	82630001 	lb	v1,1(s3)
9d003e7c:	24020030 	li	v0,48
9d003e80:	1062fec1 	beq	v1,v0,9d003988 <_do_print_cdfFnopsuxX+0x430>
9d003e84:	8fa3006c 	lw	v1,108(sp)
9d003e88:	a2620000 	sb	v0,0(s3)
9d003e8c:	0b400e61 	j	9d003984 <_do_print_cdfFnopsuxX+0x42c>
9d003e90:	2673ffff 	addiu	s3,s3,-1
9d003e94:	24620007 	addiu	v0,v1,7
9d003e98:	7c021004 	ins	v0,zero,0x0,0x3
9d003e9c:	24440008 	addiu	a0,v0,8
9d003ea0:	afa400a8 	sw	a0,168(sp)
9d003ea4:	8c550000 	lw	s5,0(v0)
9d003ea8:	8c540004 	lw	s4,4(v0)
9d003eac:	0b400e28 	j	9d0038a0 <_do_print_cdfFnopsuxX+0x348>
9d003eb0:	afa00074 	sw	zero,116(sp)
9d003eb4:	8fa300a8 	lw	v1,168(sp)
9d003eb8:	24620007 	addiu	v0,v1,7
9d003ebc:	7c021004 	ins	v0,zero,0x0,0x3
9d003ec0:	24440008 	addiu	a0,v0,8
9d003ec4:	afa400a8 	sw	a0,168(sp)
9d003ec8:	8c540004 	lw	s4,4(v0)
9d003ecc:	0681fe73 	bgez	s4,9d00389c <_do_print_cdfFnopsuxX+0x344>
9d003ed0:	8c550000 	lw	s5,0(v0)
9d003ed4:	0b400f31 	j	9d003cc4 <_do_print_cdfFnopsuxX+0x76c>
9d003ed8:	00156823 	negu	t5,s5
9d003edc:	36f70001 	ori	s7,s7,0x1
9d003ee0:	26100001 	addiu	s0,s0,1
9d003ee4:	0b400eca 	j	9d003b28 <_do_print_cdfFnopsuxX+0x5d0>
9d003ee8:	26100001 	addiu	s0,s0,1
9d003eec:	8fa300a8 	lw	v1,168(sp)
9d003ef0:	8c7e0000 	lw	s8,0(v1)
9d003ef4:	24750004 	addiu	s5,v1,4
9d003ef8:	26030002 	addiu	v1,s0,2
9d003efc:	82020002 	lb	v0,2(s0)
9d003f00:	afb500a8 	sw	s5,168(sp)
9d003f04:	07c1fe00 	bgez	s8,9d003708 <_do_print_cdfFnopsuxX+0x1b0>
9d003f08:	00608021 	move	s0,v1
9d003f0c:	0b400dc2 	j	9d003708 <_do_print_cdfFnopsuxX+0x1b0>
9d003f10:	241effff 	li	s8,-1
9d003f14:	24020058 	li	v0,88
9d003f18:	24030078 	li	v1,120
9d003f1c:	0064100a 	movz	v0,v1,a0
9d003f20:	a2620000 	sb	v0,0(s3)
9d003f24:	24020030 	li	v0,48
9d003f28:	a262ffff 	sb	v0,-1(s3)
9d003f2c:	0b400e61 	j	9d003984 <_do_print_cdfFnopsuxX+0x42c>
9d003f30:	2673fffe 	addiu	s3,s3,-2
9d003f34:	36f78000 	ori	s7,s7,0x8000
9d003f38:	26100001 	addiu	s0,s0,1
9d003f3c:	0b400eca 	j	9d003b28 <_do_print_cdfFnopsuxX+0x5d0>
9d003f40:	26100001 	addiu	s0,s0,1
9d003f44:	82620001 	lb	v0,1(s3)
9d003f48:	38420030 	xori	v0,v0,0x30
9d003f4c:	0002102b 	sltu	v0,zero,v0
9d003f50:	0b400e9f 	j	9d003a7c <_do_print_cdfFnopsuxX+0x524>
9d003f54:	00621823 	subu	v1,v1,v0
9d003f58:	27a30057 	addiu	v1,sp,87
9d003f5c:	afa30070 	sw	v1,112(sp)
9d003f60:	0b400e4b 	j	9d00392c <_do_print_cdfFnopsuxX+0x3d4>
9d003f64:	00609821 	move	s3,v1
9d003f68:	8fa300a8 	lw	v1,168(sp)
9d003f6c:	24750007 	addiu	s5,v1,7
9d003f70:	7c151004 	ins	s5,zero,0x0,0x3
9d003f74:	8ea40000 	lw	a0,0(s5)
9d003f78:	8ea50004 	lw	a1,4(s5)
9d003f7c:	26b50008 	addiu	s5,s5,8
9d003f80:	0f4030a1 	jal	9d00c284 <.LFE23>
9d003f84:	afb500a8 	sw	s5,168(sp)
9d003f88:	afa20058 	sw	v0,88(sp)
9d003f8c:	0b400f75 	j	9d003dd4 <_do_print_cdfFnopsuxX+0x87c>
9d003f90:	00000000 	nop
9d003f94:	8c430000 	lw	v1,0(v0)
9d003f98:	00001021 	move	v0,zero
9d003f9c:	8fa400a8 	lw	a0,168(sp)
9d003fa0:	24840004 	addiu	a0,a0,4
9d003fa4:	afa400a8 	sw	a0,168(sp)
9d003fa8:	8fa40068 	lw	a0,104(sp)
9d003fac:	0b400e71 	j	9d0039c4 <_do_print_cdfFnopsuxX+0x46c>
9d003fb0:	ac640000 	sw	a0,0(v1)
9d003fb4:	0f40343e 	jal	9d00d0f8 <strlen>
9d003fb8:	02002021 	move	a0,s0
9d003fbc:	0b400f54 	j	9d003d50 <_do_print_cdfFnopsuxX+0x7f8>
9d003fc0:	afb70010 	sw	s7,16(sp)
9d003fc4:	8c820000 	lw	v0,0(a0)
9d003fc8:	8fa40068 	lw	a0,104(sp)
9d003fcc:	00041fc3 	sra	v1,a0,0x1f
9d003fd0:	8fa400a8 	lw	a0,168(sp)
9d003fd4:	24840004 	addiu	a0,a0,4
9d003fd8:	afa400a8 	sw	a0,168(sp)
9d003fdc:	8fa40068 	lw	a0,104(sp)
9d003fe0:	ac440000 	sw	a0,0(v0)
9d003fe4:	ac430004 	sw	v1,4(v0)
9d003fe8:	0b400e71 	j	9d0039c4 <_do_print_cdfFnopsuxX+0x46c>
9d003fec:	00001021 	move	v0,zero
9d003ff0:	27a20057 	addiu	v0,sp,87
9d003ff4:	afa20070 	sw	v0,112(sp)
9d003ff8:	0b400e4b 	j	9d00392c <_do_print_cdfFnopsuxX+0x3d4>
9d003ffc:	00409821 	move	s3,v0
9d004000:	8fa200a8 	lw	v0,168(sp)
9d004004:	8c430000 	lw	v1,0(v0)
9d004008:	00001021 	move	v0,zero
9d00400c:	8fa400a8 	lw	a0,168(sp)
9d004010:	24840004 	addiu	a0,a0,4
9d004014:	afa400a8 	sw	a0,168(sp)
9d004018:	11000005 	beqz	t0,9d004030 <_do_print_cdfFnopsuxX+0xad8>
9d00401c:	8fa40068 	lw	a0,104(sp)
9d004020:	0b400e71 	j	9d0039c4 <_do_print_cdfFnopsuxX+0x46c>
9d004024:	a0640000 	sb	a0,0(v1)
9d004028:	0b400f53 	j	9d003d4c <_do_print_cdfFnopsuxX+0x7f4>
9d00402c:	00001021 	move	v0,zero
9d004030:	0b400e71 	j	9d0039c4 <_do_print_cdfFnopsuxX+0x46c>
9d004034:	ac640000 	sw	a0,0(v1)

Disassembly of section .text.malloc:

9d004038 <malloc>:
9d004038:	27bdffc0 	addiu	sp,sp,-64
9d00403c:	afbf003c 	sw	ra,60(sp)
9d004040:	afbe0038 	sw	s8,56(sp)
9d004044:	afb70034 	sw	s7,52(sp)
9d004048:	afb60030 	sw	s6,48(sp)
9d00404c:	afb5002c 	sw	s5,44(sp)
9d004050:	afb40028 	sw	s4,40(sp)
9d004054:	afb30024 	sw	s3,36(sp)
9d004058:	afb20020 	sw	s2,32(sp)
9d00405c:	afb1001c 	sw	s1,28(sp)
9d004060:	afb00018 	sw	s0,24(sp)
9d004064:	2490000b 	addiu	s0,a0,11
9d004068:	2e020017 	sltiu	v0,s0,23
9d00406c:	10400021 	beqz	v0,9d0040f4 <malloc+0xbc>
9d004070:	7c101004 	ins	s0,zero,0x0,0x3
9d004074:	2c840011 	sltiu	a0,a0,17
9d004078:	10800086 	beqz	a0,9d004294 <malloc+0x25c>
9d00407c:	24100010 	li	s0,16
9d004080:	3c11a000 	lui	s1,0xa000
9d004084:	2631038c 	addiu	s1,s1,908
9d004088:	02301821 	addu	v1,s1,s0
9d00408c:	8c62000c 	lw	v0,12(v1)
9d004090:	104300bb 	beq	v0,v1,9d004380 <malloc+0x348>
9d004094:	001040c2 	srl	t0,s0,0x3
9d004098:	8c430004 	lw	v1,4(v0)
9d00409c:	8c44000c 	lw	a0,12(v0)
9d0040a0:	8c450008 	lw	a1,8(v0)
9d0040a4:	7c030804 	ins	v1,zero,0x0,0x2
9d0040a8:	00431821 	addu	v1,v0,v1
9d0040ac:	8c660004 	lw	a2,4(v1)
9d0040b0:	aca4000c 	sw	a0,12(a1)
9d0040b4:	24420008 	addiu	v0,v0,8
9d0040b8:	34c60001 	ori	a2,a2,0x1
9d0040bc:	ac850008 	sw	a1,8(a0)
9d0040c0:	ac660004 	sw	a2,4(v1)
9d0040c4:	8fbf003c 	lw	ra,60(sp)
9d0040c8:	8fbe0038 	lw	s8,56(sp)
9d0040cc:	8fb70034 	lw	s7,52(sp)
9d0040d0:	8fb60030 	lw	s6,48(sp)
9d0040d4:	8fb5002c 	lw	s5,44(sp)
9d0040d8:	8fb40028 	lw	s4,40(sp)
9d0040dc:	8fb30024 	lw	s3,36(sp)
9d0040e0:	8fb20020 	lw	s2,32(sp)
9d0040e4:	8fb1001c 	lw	s1,28(sp)
9d0040e8:	8fb00018 	lw	s0,24(sp)
9d0040ec:	03e00008 	jr	ra
9d0040f0:	27bd0040 	addiu	sp,sp,64
9d0040f4:	06000067 	bltz	s0,9d004294 <malloc+0x25c>
9d0040f8:	0204202b 	sltu	a0,s0,a0
9d0040fc:	14800065 	bnez	a0,9d004294 <malloc+0x25c>
9d004100:	2e0201f8 	sltiu	v0,s0,504
9d004104:	1440ffdf 	bnez	v0,9d004084 <malloc+0x4c>
9d004108:	3c11a000 	lui	s1,0xa000
9d00410c:	00101242 	srl	v0,s0,0x9
9d004110:	1040000a 	beqz	v0,9d00413c <malloc+0x104>
9d004114:	2406007e 	li	a2,126
9d004118:	2c430005 	sltiu	v1,v0,5
9d00411c:	1460003d 	bnez	v1,9d004214 <malloc+0x1dc>
9d004120:	00104182 	srl	t0,s0,0x6
9d004124:	2c430015 	sltiu	v1,v0,21
9d004128:	106000fc 	beqz	v1,9d00451c <malloc+0x4e4>
9d00412c:	2c430055 	sltiu	v1,v0,85
9d004130:	2448005b 	addiu	t0,v0,91
9d004134:	0b401051 	j	9d004144 <malloc+0x10c>
9d004138:	00083040 	sll	a2,t0,0x1
9d00413c:	2408003f 	li	t0,63
9d004140:	3c11a000 	lui	s1,0xa000
9d004144:	00063080 	sll	a2,a2,0x2
9d004148:	2631038c 	addiu	s1,s1,908
9d00414c:	02263021 	addu	a2,s1,a2
9d004150:	8cc2000c 	lw	v0,12(a2)
9d004154:	54c20009 	bnel	a2,v0,9d00417c <malloc+0x144>
9d004158:	8c440004 	lw	a0,4(v0)
9d00415c:	0b401066 	j	9d004198 <malloc+0x160>
9d004160:	25080001 	addiu	t0,t0,1
9d004164:	0463005b 	bgezl	v1,9d0042d4 <malloc+0x29c>
9d004168:	00442021 	addu	a0,v0,a0
9d00416c:	8c42000c 	lw	v0,12(v0)
9d004170:	50c20009 	beql	a2,v0,9d004198 <malloc+0x160>
9d004174:	25080001 	addiu	t0,t0,1
9d004178:	8c440004 	lw	a0,4(v0)
9d00417c:	7c040804 	ins	a0,zero,0x0,0x2
9d004180:	00901823 	subu	v1,a0,s0
9d004184:	28650010 	slti	a1,v1,16
9d004188:	14a0fff6 	bnez	a1,9d004164 <malloc+0x12c>
9d00418c:	00000000 	nop
9d004190:	2508ffff 	addiu	t0,t0,-1
9d004194:	25080001 	addiu	t0,t0,1
9d004198:	8e220010 	lw	v0,16(s1)
9d00419c:	3c06a000 	lui	a2,0xa000
9d0041a0:	24c60394 	addiu	a2,a2,916
9d0041a4:	5046007c 	beql	v0,a2,9d004398 <malloc+0x360>
9d0041a8:	8e240004 	lw	a0,4(s1)
9d0041ac:	8c440004 	lw	a0,4(v0)
9d0041b0:	7c040804 	ins	a0,zero,0x0,0x2
9d0041b4:	00901823 	subu	v1,a0,s0
9d0041b8:	28650010 	slti	a1,v1,16
9d0041bc:	50a00059 	beqzl	a1,9d004324 <malloc+0x2ec>
9d0041c0:	00502021 	addu	a0,v0,s0
9d0041c4:	ae260014 	sw	a2,20(s1)
9d0041c8:	04600015 	bltz	v1,9d004220 <malloc+0x1e8>
9d0041cc:	ae260010 	sw	a2,16(s1)
9d0041d0:	00442021 	addu	a0,v0,a0
9d0041d4:	8c830004 	lw	v1,4(a0)
9d0041d8:	24420008 	addiu	v0,v0,8
9d0041dc:	34630001 	ori	v1,v1,0x1
9d0041e0:	ac830004 	sw	v1,4(a0)
9d0041e4:	8fbf003c 	lw	ra,60(sp)
9d0041e8:	8fbe0038 	lw	s8,56(sp)
9d0041ec:	8fb70034 	lw	s7,52(sp)
9d0041f0:	8fb60030 	lw	s6,48(sp)
9d0041f4:	8fb5002c 	lw	s5,44(sp)
9d0041f8:	8fb40028 	lw	s4,40(sp)
9d0041fc:	8fb30024 	lw	s3,36(sp)
9d004200:	8fb20020 	lw	s2,32(sp)
9d004204:	8fb1001c 	lw	s1,28(sp)
9d004208:	8fb00018 	lw	s0,24(sp)
9d00420c:	03e00008 	jr	ra
9d004210:	27bd0040 	addiu	sp,sp,64
9d004214:	25080038 	addiu	t0,t0,56
9d004218:	0b401050 	j	9d004140 <malloc+0x108>
9d00421c:	00083040 	sll	a2,t0,0x1
9d004220:	2c830200 	sltiu	v1,a0,512
9d004224:	546000c6 	bnezl	v1,9d004540 <malloc+0x508>
9d004228:	000420c2 	srl	a0,a0,0x3
9d00422c:	00041a42 	srl	v1,a0,0x9
9d004230:	2c650005 	sltiu	a1,v1,5
9d004234:	10a0014b 	beqz	a1,9d004764 <malloc+0x72c>
9d004238:	2c650015 	sltiu	a1,v1,21
9d00423c:	00042982 	srl	a1,a0,0x6
9d004240:	24a50038 	addiu	a1,a1,56
9d004244:	000538c0 	sll	a3,a1,0x3
9d004248:	02273821 	addu	a3,s1,a3
9d00424c:	8ce30008 	lw	v1,8(a3)
9d004250:	50670151 	beql	v1,a3,9d004798 <malloc+0x760>
9d004254:	8e240004 	lw	a0,4(s1)
9d004258:	8c650004 	lw	a1,4(v1)
9d00425c:	7c050804 	ins	a1,zero,0x0,0x2
9d004260:	0085282b 	sltu	a1,a0,a1
9d004264:	50a00005 	beqzl	a1,9d00427c <malloc+0x244>
9d004268:	8c65000c 	lw	a1,12(v1)
9d00426c:	8c630008 	lw	v1,8(v1)
9d004270:	54e3fffa 	bnel	a3,v1,9d00425c <malloc+0x224>
9d004274:	8c650004 	lw	a1,4(v1)
9d004278:	8c65000c 	lw	a1,12(v1)
9d00427c:	8e240004 	lw	a0,4(s1)
9d004280:	ac45000c 	sw	a1,12(v0)
9d004284:	ac430008 	sw	v1,8(v0)
9d004288:	aca20008 	sw	v0,8(a1)
9d00428c:	0b4010e6 	j	9d004398 <malloc+0x360>
9d004290:	ac62000c 	sw	v0,12(v1)
9d004294:	2403000c 	li	v1,12
9d004298:	3c02a000 	lui	v0,0xa000
9d00429c:	ac430318 	sw	v1,792(v0)
9d0042a0:	00001021 	move	v0,zero
9d0042a4:	8fbf003c 	lw	ra,60(sp)
9d0042a8:	8fbe0038 	lw	s8,56(sp)
9d0042ac:	8fb70034 	lw	s7,52(sp)
9d0042b0:	8fb60030 	lw	s6,48(sp)
9d0042b4:	8fb5002c 	lw	s5,44(sp)
9d0042b8:	8fb40028 	lw	s4,40(sp)
9d0042bc:	8fb30024 	lw	s3,36(sp)
9d0042c0:	8fb20020 	lw	s2,32(sp)
9d0042c4:	8fb1001c 	lw	s1,28(sp)
9d0042c8:	8fb00018 	lw	s0,24(sp)
9d0042cc:	03e00008 	jr	ra
9d0042d0:	27bd0040 	addiu	sp,sp,64
9d0042d4:	8c860004 	lw	a2,4(a0)
9d0042d8:	8c43000c 	lw	v1,12(v0)
9d0042dc:	8c450008 	lw	a1,8(v0)
9d0042e0:	34c60001 	ori	a2,a2,0x1
9d0042e4:	24420008 	addiu	v0,v0,8
9d0042e8:	aca3000c 	sw	v1,12(a1)
9d0042ec:	ac650008 	sw	a1,8(v1)
9d0042f0:	ac860004 	sw	a2,4(a0)
9d0042f4:	8fbf003c 	lw	ra,60(sp)
9d0042f8:	8fbe0038 	lw	s8,56(sp)
9d0042fc:	8fb70034 	lw	s7,52(sp)
9d004300:	8fb60030 	lw	s6,48(sp)
9d004304:	8fb5002c 	lw	s5,44(sp)
9d004308:	8fb40028 	lw	s4,40(sp)
9d00430c:	8fb30024 	lw	s3,36(sp)
9d004310:	8fb20020 	lw	s2,32(sp)
9d004314:	8fb1001c 	lw	s1,28(sp)
9d004318:	8fb00018 	lw	s0,24(sp)
9d00431c:	03e00008 	jr	ra
9d004320:	27bd0040 	addiu	sp,sp,64
9d004324:	36100001 	ori	s0,s0,0x1
9d004328:	34670001 	ori	a3,v1,0x1
9d00432c:	00832821 	addu	a1,a0,v1
9d004330:	ac500004 	sw	s0,4(v0)
9d004334:	24420008 	addiu	v0,v0,8
9d004338:	ae240014 	sw	a0,20(s1)
9d00433c:	ae240010 	sw	a0,16(s1)
9d004340:	ac86000c 	sw	a2,12(a0)
9d004344:	ac860008 	sw	a2,8(a0)
9d004348:	ac870004 	sw	a3,4(a0)
9d00434c:	aca30000 	sw	v1,0(a1)
9d004350:	8fbf003c 	lw	ra,60(sp)
9d004354:	8fbe0038 	lw	s8,56(sp)
9d004358:	8fb70034 	lw	s7,52(sp)
9d00435c:	8fb60030 	lw	s6,48(sp)
9d004360:	8fb5002c 	lw	s5,44(sp)
9d004364:	8fb40028 	lw	s4,40(sp)
9d004368:	8fb30024 	lw	s3,36(sp)
9d00436c:	8fb20020 	lw	s2,32(sp)
9d004370:	8fb1001c 	lw	s1,28(sp)
9d004374:	8fb00018 	lw	s0,24(sp)
9d004378:	03e00008 	jr	ra
9d00437c:	27bd0040 	addiu	sp,sp,64
9d004380:	24430008 	addiu	v1,v0,8
9d004384:	8c420014 	lw	v0,20(v0)
9d004388:	1062ff83 	beq	v1,v0,9d004198 <malloc+0x160>
9d00438c:	25080002 	addiu	t0,t0,2
9d004390:	0b401027 	j	9d00409c <malloc+0x64>
9d004394:	8c430004 	lw	v1,4(v0)
9d004398:	00081083 	sra	v0,t0,0x2
9d00439c:	24070001 	li	a3,1
9d0043a0:	00473804 	sllv	a3,a3,v0
9d0043a4:	0087102b 	sltu	v0,a0,a3
9d0043a8:	5440002a 	bnezl	v0,9d004454 <malloc+0x41c>
9d0043ac:	8e320008 	lw	s2,8(s1)
9d0043b0:	00871024 	and	v0,a0,a3
9d0043b4:	50400070 	beqzl	v0,9d004578 <malloc+0x540>
9d0043b8:	00073840 	sll	a3,a3,0x1
9d0043bc:	000850c0 	sll	t2,t0,0x3
9d0043c0:	022a5021 	addu	t2,s1,t2
9d0043c4:	01404821 	move	t1,t2
9d0043c8:	01005821 	move	t3,t0
9d0043cc:	8d22000c 	lw	v0,12(t1)
9d0043d0:	55220009 	bnel	t1,v0,9d0043f8 <malloc+0x3c0>
9d0043d4:	8c440004 	lw	a0,4(v0)
9d0043d8:	0b40116b 	j	9d0045ac <malloc+0x574>
9d0043dc:	256b0001 	addiu	t3,t3,1
9d0043e0:	04630090 	bgezl	v1,9d004624 <malloc+0x5ec>
9d0043e4:	00442021 	addu	a0,v0,a0
9d0043e8:	8c42000c 	lw	v0,12(v0)
9d0043ec:	5122006f 	beql	t1,v0,9d0045ac <malloc+0x574>
9d0043f0:	256b0001 	addiu	t3,t3,1
9d0043f4:	8c440004 	lw	a0,4(v0)
9d0043f8:	7c040804 	ins	a0,zero,0x0,0x2
9d0043fc:	00901823 	subu	v1,a0,s0
9d004400:	28650010 	slti	a1,v1,16
9d004404:	14a0fff6 	bnez	a1,9d0043e0 <malloc+0x3a8>
9d004408:	00000000 	nop
9d00440c:	8c45000c 	lw	a1,12(v0)
9d004410:	8c470008 	lw	a3,8(v0)
9d004414:	00502021 	addu	a0,v0,s0
9d004418:	36100001 	ori	s0,s0,0x1
9d00441c:	34690001 	ori	t1,v1,0x1
9d004420:	00834021 	addu	t0,a0,v1
9d004424:	ac500004 	sw	s0,4(v0)
9d004428:	24420008 	addiu	v0,v0,8
9d00442c:	ace5000c 	sw	a1,12(a3)
9d004430:	aca70008 	sw	a3,8(a1)
9d004434:	ae240014 	sw	a0,20(s1)
9d004438:	ae240010 	sw	a0,16(s1)
9d00443c:	ac86000c 	sw	a2,12(a0)
9d004440:	ac860008 	sw	a2,8(a0)
9d004444:	ac890004 	sw	t1,4(a0)
9d004448:	0b401031 	j	9d0040c4 <malloc+0x8c>
9d00444c:	ad030000 	sw	v1,0(t0)
9d004450:	8e320008 	lw	s2,8(s1)
9d004454:	8e540004 	lw	s4,4(s2)
9d004458:	7c140804 	ins	s4,zero,0x0,0x2
9d00445c:	0290102b 	sltu	v0,s4,s0
9d004460:	14400004 	bnez	v0,9d004474 <malloc+0x43c>
9d004464:	02901023 	subu	v0,s4,s0
9d004468:	28430010 	slti	v1,v0,16
9d00446c:	10600024 	beqz	v1,9d004500 <malloc+0x4c8>
9d004470:	02501821 	addu	v1,s2,s0
9d004474:	3c02a000 	lui	v0,0xa000
9d004478:	8c5510a0 	lw	s5,4256(v0)
9d00447c:	3c1ea000 	lui	s8,0xa000
9d004480:	0254b821 	addu	s7,s2,s4
9d004484:	26b50010 	addiu	s5,s5,16
9d004488:	0f403865 	jal	9d00e194 <getpagesize>
9d00448c:	02b0a821 	addu	s5,s5,s0
9d004490:	0040b021 	move	s6,v0
9d004494:	8fc30384 	lw	v1,900(s8)
9d004498:	2402ffff 	li	v0,-1
9d00449c:	10620004 	beq	v1,v0,9d0044b0 <malloc+0x478>
9d0044a0:	26a2ffff 	addiu	v0,s5,-1
9d0044a4:	00561021 	addu	v0,v0,s6
9d0044a8:	0016a823 	negu	s5,s6
9d0044ac:	02a2a824 	and	s5,s5,v0
9d0044b0:	0f403643 	jal	9d00d90c <sbrk>
9d0044b4:	02a02021 	move	a0,s5
9d0044b8:	00409821 	move	s3,v0
9d0044bc:	2402ffff 	li	v0,-1
9d0044c0:	52620007 	beql	s3,v0,9d0044e0 <malloc+0x4a8>
9d0044c4:	8e320008 	lw	s2,8(s1)
9d0044c8:	0277102b 	sltu	v0,s3,s7
9d0044cc:	1040005e 	beqz	v0,9d004648 <malloc+0x610>
9d0044d0:	3c03a000 	lui	v1,0xa000
9d0044d4:	5251005d 	beql	s2,s1,9d00464c <malloc+0x614>
9d0044d8:	8c621070 	lw	v0,4208(v1)
9d0044dc:	8e320008 	lw	s2,8(s1)
9d0044e0:	8e420004 	lw	v0,4(s2)
9d0044e4:	7c020804 	ins	v0,zero,0x0,0x2
9d0044e8:	0050182b 	sltu	v1,v0,s0
9d0044ec:	146000a1 	bnez	v1,9d004774 <malloc+0x73c>
9d0044f0:	00501023 	subu	v0,v0,s0
9d0044f4:	28430010 	slti	v1,v0,16
9d0044f8:	1460009e 	bnez	v1,9d004774 <malloc+0x73c>
9d0044fc:	02501821 	addu	v1,s2,s0
9d004500:	36100001 	ori	s0,s0,0x1
9d004504:	34440001 	ori	a0,v0,0x1
9d004508:	ae500004 	sw	s0,4(s2)
9d00450c:	26420008 	addiu	v0,s2,8
9d004510:	ae230008 	sw	v1,8(s1)
9d004514:	0b401031 	j	9d0040c4 <malloc+0x8c>
9d004518:	ac640004 	sw	a0,4(v1)
9d00451c:	14600020 	bnez	v1,9d0045a0 <malloc+0x568>
9d004520:	00104302 	srl	t0,s0,0xc
9d004524:	2c430155 	sltiu	v1,v0,341
9d004528:	10600088 	beqz	v1,9d00474c <malloc+0x714>
9d00452c:	2c420555 	sltiu	v0,v0,1365
9d004530:	001043c2 	srl	t0,s0,0xf
9d004534:	25080077 	addiu	t0,t0,119
9d004538:	0b401050 	j	9d004140 <malloc+0x108>
9d00453c:	00083040 	sll	a2,t0,0x1
9d004540:	000418c0 	sll	v1,a0,0x3
9d004544:	02231821 	addu	v1,s1,v1
9d004548:	8e270004 	lw	a3,4(s1)
9d00454c:	8c650008 	lw	a1,8(v1)
9d004550:	00042083 	sra	a0,a0,0x2
9d004554:	24090001 	li	t1,1
9d004558:	00892004 	sllv	a0,t1,a0
9d00455c:	00872025 	or	a0,a0,a3
9d004560:	ac43000c 	sw	v1,12(v0)
9d004564:	ac450008 	sw	a1,8(v0)
9d004568:	ae240004 	sw	a0,4(s1)
9d00456c:	ac620008 	sw	v0,8(v1)
9d004570:	0b4010e6 	j	9d004398 <malloc+0x360>
9d004574:	aca2000c 	sw	v0,12(a1)
9d004578:	7c080804 	ins	t0,zero,0x0,0x2
9d00457c:	00871024 	and	v0,a0,a3
9d004580:	1440ff8e 	bnez	v0,9d0043bc <malloc+0x384>
9d004584:	25080004 	addiu	t0,t0,4
9d004588:	00073840 	sll	a3,a3,0x1
9d00458c:	00871024 	and	v0,a0,a3
9d004590:	1040fffd 	beqz	v0,9d004588 <malloc+0x550>
9d004594:	25080004 	addiu	t0,t0,4
9d004598:	0b4010f0 	j	9d0043c0 <malloc+0x388>
9d00459c:	000850c0 	sll	t2,t0,0x3
9d0045a0:	2508006e 	addiu	t0,t0,110
9d0045a4:	0b401050 	j	9d004140 <malloc+0x108>
9d0045a8:	00083040 	sll	a2,t0,0x1
9d0045ac:	31620003 	andi	v0,t3,0x3
9d0045b0:	1440ff86 	bnez	v0,9d0043cc <malloc+0x394>
9d0045b4:	25290008 	addiu	t1,t1,8
9d0045b8:	0b401173 	j	9d0045cc <malloc+0x594>
9d0045bc:	2542fff8 	addiu	v0,t2,-8
9d0045c0:	15420009 	bne	t2,v0,9d0045e8 <malloc+0x5b0>
9d0045c4:	2508ffff 	addiu	t0,t0,-1
9d0045c8:	2542fff8 	addiu	v0,t2,-8
9d0045cc:	31030003 	andi	v1,t0,0x3
9d0045d0:	5460fffb 	bnezl	v1,9d0045c0 <malloc+0x588>
9d0045d4:	8d4a0000 	lw	t2,0(t2)
9d0045d8:	8e220004 	lw	v0,4(s1)
9d0045dc:	00071827 	nor	v1,zero,a3
9d0045e0:	00621024 	and	v0,v1,v0
9d0045e4:	ae220004 	sw	v0,4(s1)
9d0045e8:	8e220004 	lw	v0,4(s1)
9d0045ec:	00073840 	sll	a3,a3,0x1
9d0045f0:	0047182b 	sltu	v1,v0,a3
9d0045f4:	5460ff97 	bnezl	v1,9d004454 <malloc+0x41c>
9d0045f8:	8e320008 	lw	s2,8(s1)
9d0045fc:	10e0ff94 	beqz	a3,9d004450 <malloc+0x418>
9d004600:	00e21824 	and	v1,a3,v0
9d004604:	1460ff6d 	bnez	v1,9d0043bc <malloc+0x384>
9d004608:	01604021 	move	t0,t3
9d00460c:	00073840 	sll	a3,a3,0x1
9d004610:	00e21824 	and	v1,a3,v0
9d004614:	1060fffd 	beqz	v1,9d00460c <malloc+0x5d4>
9d004618:	25080004 	addiu	t0,t0,4
9d00461c:	0b4010f0 	j	9d0043c0 <malloc+0x388>
9d004620:	000850c0 	sll	t2,t0,0x3
9d004624:	8c860004 	lw	a2,4(a0)
9d004628:	8c43000c 	lw	v1,12(v0)
9d00462c:	8c450008 	lw	a1,8(v0)
9d004630:	34c60001 	ori	a2,a2,0x1
9d004634:	ac860004 	sw	a2,4(a0)
9d004638:	24420008 	addiu	v0,v0,8
9d00463c:	aca3000c 	sw	v1,12(a1)
9d004640:	0b401031 	j	9d0040c4 <malloc+0x8c>
9d004644:	ac650008 	sw	a1,8(v1)
9d004648:	8c621070 	lw	v0,4208(v1)
9d00464c:	26c5ffff 	addiu	a1,s6,-1
9d004650:	02a21021 	addu	v0,s5,v0
9d004654:	12f3005c 	beq	s7,s3,9d0047c8 <malloc+0x790>
9d004658:	ac621070 	sw	v0,4208(v1)
9d00465c:	8fc60384 	lw	a2,900(s8)
9d004660:	2404ffff 	li	a0,-1
9d004664:	50c40068 	beql	a2,a0,9d004808 <malloc+0x7d0>
9d004668:	3c02a000 	lui	v0,0xa000
9d00466c:	0277b823 	subu	s7,s3,s7
9d004670:	00571021 	addu	v0,v0,s7
9d004674:	ac621070 	sw	v0,4208(v1)
9d004678:	32640007 	andi	a0,s3,0x7
9d00467c:	10800004 	beqz	a0,9d004690 <malloc+0x658>
9d004680:	00001021 	move	v0,zero
9d004684:	24020008 	li	v0,8
9d004688:	00441023 	subu	v0,v0,a0
9d00468c:	02629821 	addu	s3,s3,v0
9d004690:	0275a821 	addu	s5,s3,s5
9d004694:	00561021 	addu	v0,v0,s6
9d004698:	02a52824 	and	a1,s5,a1
9d00469c:	0045a823 	subu	s5,v0,a1
9d0046a0:	02a02021 	move	a0,s5
9d0046a4:	0f403643 	jal	9d00d90c <sbrk>
9d0046a8:	afa30010 	sw	v1,16(sp)
9d0046ac:	2404ffff 	li	a0,-1
9d0046b0:	10440052 	beq	v0,a0,9d0047fc <malloc+0x7c4>
9d0046b4:	8fa30010 	lw	v1,16(sp)
9d0046b8:	00531023 	subu	v0,v0,s3
9d0046bc:	02a22021 	addu	a0,s5,v0
9d0046c0:	34840001 	ori	a0,a0,0x1
9d0046c4:	8c621070 	lw	v0,4208(v1)
9d0046c8:	ae330008 	sw	s3,8(s1)
9d0046cc:	02a21021 	addu	v0,s5,v0
9d0046d0:	ac621070 	sw	v0,4208(v1)
9d0046d4:	1251000f 	beq	s2,s1,9d004714 <malloc+0x6dc>
9d0046d8:	ae640004 	sw	a0,4(s3)
9d0046dc:	2e830010 	sltiu	v1,s4,16
9d0046e0:	14600028 	bnez	v1,9d004784 <malloc+0x74c>
9d0046e4:	2683fff4 	addiu	v1,s4,-12
9d0046e8:	7c031004 	ins	v1,zero,0x0,0x3
9d0046ec:	02432021 	addu	a0,s2,v1
9d0046f0:	24050005 	li	a1,5
9d0046f4:	ac850004 	sw	a1,4(a0)
9d0046f8:	ac850008 	sw	a1,8(a0)
9d0046fc:	8e450004 	lw	a1,4(s2)
9d004700:	2c640010 	sltiu	a0,v1,16
9d004704:	30a50001 	andi	a1,a1,0x1
9d004708:	00651825 	or	v1,v1,a1
9d00470c:	10800036 	beqz	a0,9d0047e8 <malloc+0x7b0>
9d004710:	ae430004 	sw	v1,4(s2)
9d004714:	3c03a000 	lui	v1,0xa000
9d004718:	8c64109c 	lw	a0,4252(v1)
9d00471c:	0082202b 	sltu	a0,a0,v0
9d004720:	54800001 	bnezl	a0,9d004728 <malloc+0x6f0>
9d004724:	ac62109c 	sw	v0,4252(v1)
9d004728:	3c03a000 	lui	v1,0xa000
9d00472c:	8c641098 	lw	a0,4248(v1)
9d004730:	0082202b 	sltu	a0,a0,v0
9d004734:	10800002 	beqz	a0,9d004740 <malloc+0x708>
9d004738:	8e320008 	lw	s2,8(s1)
9d00473c:	ac621098 	sw	v0,4248(v1)
9d004740:	8e420004 	lw	v0,4(s2)
9d004744:	0b40113a 	j	9d0044e8 <malloc+0x4b0>
9d004748:	7c020804 	ins	v0,zero,0x0,0x2
9d00474c:	5040000b 	beqzl	v0,9d00477c <malloc+0x744>
9d004750:	240600fc 	li	a2,252
9d004754:	00104482 	srl	t0,s0,0x12
9d004758:	2508007c 	addiu	t0,t0,124
9d00475c:	0b401050 	j	9d004140 <malloc+0x108>
9d004760:	00083040 	sll	a2,t0,0x1
9d004764:	50a00013 	beqzl	a1,9d0047b4 <malloc+0x77c>
9d004768:	2c650055 	sltiu	a1,v1,85
9d00476c:	0b401091 	j	9d004244 <malloc+0x20c>
9d004770:	2465005b 	addiu	a1,v1,91
9d004774:	0b401031 	j	9d0040c4 <malloc+0x8c>
9d004778:	00001021 	move	v0,zero
9d00477c:	0b401050 	j	9d004140 <malloc+0x108>
9d004780:	2408007e 	li	t0,126
9d004784:	24020001 	li	v0,1
9d004788:	ae620004 	sw	v0,4(s3)
9d00478c:	02609021 	move	s2,s3
9d004790:	0b40113a 	j	9d0044e8 <malloc+0x4b0>
9d004794:	00001021 	move	v0,zero
9d004798:	00052883 	sra	a1,a1,0x2
9d00479c:	24070001 	li	a3,1
9d0047a0:	00a72804 	sllv	a1,a3,a1
9d0047a4:	00a42025 	or	a0,a1,a0
9d0047a8:	ae240004 	sw	a0,4(s1)
9d0047ac:	0b4010a0 	j	9d004280 <malloc+0x248>
9d0047b0:	00602821 	move	a1,v1
9d0047b4:	50a00016 	beqzl	a1,9d004810 <malloc+0x7d8>
9d0047b8:	2c650155 	sltiu	a1,v1,341
9d0047bc:	00042b02 	srl	a1,a0,0xc
9d0047c0:	0b401091 	j	9d004244 <malloc+0x20c>
9d0047c4:	24a5006e 	addiu	a1,a1,110
9d0047c8:	02e52024 	and	a0,s7,a1
9d0047cc:	5480ffa4 	bnezl	a0,9d004660 <malloc+0x628>
9d0047d0:	8fc60384 	lw	a2,900(s8)
9d0047d4:	8e230008 	lw	v1,8(s1)
9d0047d8:	02b42021 	addu	a0,s5,s4
9d0047dc:	34840001 	ori	a0,a0,0x1
9d0047e0:	0b4011c5 	j	9d004714 <malloc+0x6dc>
9d0047e4:	ac640004 	sw	a0,4(v1)
9d0047e8:	0f402737 	jal	9d009cdc <free>
9d0047ec:	26440008 	addiu	a0,s2,8
9d0047f0:	3c02a000 	lui	v0,0xa000
9d0047f4:	0b4011c5 	j	9d004714 <malloc+0x6dc>
9d0047f8:	8c421070 	lw	v0,4208(v0)
9d0047fc:	24040001 	li	a0,1
9d004800:	0b4011b1 	j	9d0046c4 <malloc+0x68c>
9d004804:	0000a821 	move	s5,zero
9d004808:	0b40119e 	j	9d004678 <malloc+0x640>
9d00480c:	ac530384 	sw	s3,900(v0)
9d004810:	10a00004 	beqz	a1,9d004824 <malloc+0x7ec>
9d004814:	2c630555 	sltiu	v1,v1,1365
9d004818:	00042bc2 	srl	a1,a0,0xf
9d00481c:	0b401091 	j	9d004244 <malloc+0x20c>
9d004820:	24a50077 	addiu	a1,a1,119
9d004824:	1060fe87 	beqz	v1,9d004244 <malloc+0x20c>
9d004828:	2405007e 	li	a1,126
9d00482c:	00042c82 	srl	a1,a0,0x12
9d004830:	0b401091 	j	9d004244 <malloc+0x20c>
9d004834:	24a5007c 	addiu	a1,a1,124

Disassembly of section .text:

9d004838 <digital_init>:
#include <math.h>
#include <stdio.h>
#include "dsp.h"

void digital_init(){
  TRISBbits.TRISB10 = 0;  // CNVST pin
9d004838:	3c02bf88 	lui	v0,0xbf88
9d00483c:	94436040 	lhu	v1,24640(v0)
9d004840:	7c035284 	ins	v1,zero,0xa,0x1
9d004844:	a4436040 	sh	v1,24640(v0)
  TRISBbits.TRISB9 = 0;  // SYN pin
9d004848:	94436040 	lhu	v1,24640(v0)
9d00484c:	7c034a44 	ins	v1,zero,0x9,0x1
9d004850:	a4436040 	sh	v1,24640(v0)
  TRISBbits.TRISB11 = 0; // DAC1 spi CS
9d004854:	94436040 	lhu	v1,24640(v0)
9d004858:	7c035ac4 	ins	v1,zero,0xb,0x1
9d00485c:	a4436040 	sh	v1,24640(v0)
  TRISBbits.TRISB12 = 0; // DAC2 spi CS
9d004860:	94436040 	lhu	v1,24640(v0)
9d004864:	7c036304 	ins	v1,zero,0xc,0x1
9d004868:	a4436040 	sh	v1,24640(v0)
  TRISBbits.TRISB13 = 0; // ADC spi CS
9d00486c:	94436040 	lhu	v1,24640(v0)
9d004870:	7c036b44 	ins	v1,zero,0xd,0x1
9d004874:	a4436040 	sh	v1,24640(v0)
9d004878:	03e00008 	jr	ra
9d00487c:	00000000 	nop

9d004880 <SPI_com_init>:
}

void SPI_com_init(){
  // setting up communication with ADC
  CS1 = 1;
9d004880:	3c04bf88 	lui	a0,0xbf88
9d004884:	94826060 	lhu	v0,24672(a0)
9d004888:	24030001 	li	v1,1
9d00488c:	7c626b44 	ins	v0,v1,0xd,0x1
9d004890:	a4826060 	sh	v0,24672(a0)
  SPI3CON = 0;
9d004894:	3c02bf80 	lui	v0,0xbf80
9d004898:	ac405800 	sw	zero,22528(v0)
  SPI3BRG = 10; // communication at 640kHz
9d00489c:	2405000a 	li	a1,10
9d0048a0:	3c02bf80 	lui	v0,0xbf80
9d0048a4:	ac455830 	sw	a1,22576(v0)
  SPI3BUF;
9d0048a8:	3c02bf80 	lui	v0,0xbf80
9d0048ac:	8c455820 	lw	a1,22560(v0)
  SPI3BUF;
9d0048b0:	8c425820 	lw	v0,22560(v0)
  SPI3STATbits.SPIROV = 0;
9d0048b4:	3c02bf80 	lui	v0,0xbf80
9d0048b8:	8c455810 	lw	a1,22544(v0)
9d0048bc:	7c053184 	ins	a1,zero,0x6,0x1
9d0048c0:	ac455810 	sw	a1,22544(v0)
  SPI3CONbits.MODE32 = 1;
9d0048c4:	3c02bf80 	lui	v0,0xbf80
9d0048c8:	8c455800 	lw	a1,22528(v0)
9d0048cc:	7c655ac4 	ins	a1,v1,0xb,0x1
9d0048d0:	ac455800 	sw	a1,22528(v0)
  SPI3CONbits.MODE16 = 0;
9d0048d4:	8c455800 	lw	a1,22528(v0)
9d0048d8:	7c055284 	ins	a1,zero,0xa,0x1
9d0048dc:	ac455800 	sw	a1,22528(v0)
  SPI3CONbits.MSTEN = 1;
9d0048e0:	8c455800 	lw	a1,22528(v0)
9d0048e4:	7c652944 	ins	a1,v1,0x5,0x1
9d0048e8:	ac455800 	sw	a1,22528(v0)
  SPI3CONbits.CKE = 1;
9d0048ec:	8c455800 	lw	a1,22528(v0)
9d0048f0:	7c654204 	ins	a1,v1,0x8,0x1
9d0048f4:	ac455800 	sw	a1,22528(v0)
  SPI3CONbits.CKP = 0;
9d0048f8:	8c455800 	lw	a1,22528(v0)
9d0048fc:	7c053184 	ins	a1,zero,0x6,0x1
9d004900:	ac455800 	sw	a1,22528(v0)
  SPI3CONbits.SMP = 0;
9d004904:	8c455800 	lw	a1,22528(v0)
9d004908:	7c054a44 	ins	a1,zero,0x9,0x1
9d00490c:	ac455800 	sw	a1,22528(v0)
  SPI3CONbits.ON = 1;
9d004910:	8c455800 	lw	a1,22528(v0)
9d004914:	7c657bc4 	ins	a1,v1,0xf,0x1
9d004918:	ac455800 	sw	a1,22528(v0)

  // setting up communiction with DAC
  CS2 = 1;
9d00491c:	94826060 	lhu	v0,24672(a0)
9d004920:	7c625ac4 	ins	v0,v1,0xb,0x1
9d004924:	a4826060 	sh	v0,24672(a0)
  CS3 = 1;
9d004928:	94826060 	lhu	v0,24672(a0)
9d00492c:	7c626304 	ins	v0,v1,0xc,0x1
9d004930:	a4826060 	sh	v0,24672(a0)
  SPI4CON = 0;
9d004934:	3c02bf80 	lui	v0,0xbf80
9d004938:	ac405c00 	sw	zero,23552(v0)
  SPI4BRG = 39;
9d00493c:	24040027 	li	a0,39
9d004940:	3c02bf80 	lui	v0,0xbf80
9d004944:	ac445c30 	sw	a0,23600(v0)
  SPI4BUF;
9d004948:	3c02bf80 	lui	v0,0xbf80
9d00494c:	8c445c20 	lw	a0,23584(v0)
  SPI4BUF;
9d004950:	8c425c20 	lw	v0,23584(v0)
  SPI4STATbits.SPIROV = 0;
9d004954:	3c02bf80 	lui	v0,0xbf80
9d004958:	8c445c10 	lw	a0,23568(v0)
9d00495c:	7c043184 	ins	a0,zero,0x6,0x1
9d004960:	ac445c10 	sw	a0,23568(v0)
  SPI4CONbits.MODE32 = 0;
9d004964:	3c02bf80 	lui	v0,0xbf80
9d004968:	8c445c00 	lw	a0,23552(v0)
9d00496c:	7c045ac4 	ins	a0,zero,0xb,0x1
9d004970:	ac445c00 	sw	a0,23552(v0)
  SPI4CONbits.MODE16 = 1;
9d004974:	8c445c00 	lw	a0,23552(v0)
9d004978:	7c645284 	ins	a0,v1,0xa,0x1
9d00497c:	ac445c00 	sw	a0,23552(v0)
  SPI4CONbits.MSTEN = 1;
9d004980:	8c445c00 	lw	a0,23552(v0)
9d004984:	7c642944 	ins	a0,v1,0x5,0x1
9d004988:	ac445c00 	sw	a0,23552(v0)
  SPI4CONbits.CKE = 0;
9d00498c:	8c445c00 	lw	a0,23552(v0)
9d004990:	7c044204 	ins	a0,zero,0x8,0x1
9d004994:	ac445c00 	sw	a0,23552(v0)
  SPI4CONbits.CKP = 1;
9d004998:	8c445c00 	lw	a0,23552(v0)
9d00499c:	7c643184 	ins	a0,v1,0x6,0x1
9d0049a0:	ac445c00 	sw	a0,23552(v0)
  SPI4CONbits.SMP = 0;
9d0049a4:	8c445c00 	lw	a0,23552(v0)
9d0049a8:	7c044a44 	ins	a0,zero,0x9,0x1
9d0049ac:	ac445c00 	sw	a0,23552(v0)
  SPI4CONbits.ON = 1;
9d0049b0:	8c445c00 	lw	a0,23552(v0)
9d0049b4:	7c647bc4 	ins	a0,v1,0xf,0x1
9d0049b8:	ac445c00 	sw	a0,23552(v0)
9d0049bc:	03e00008 	jr	ra
9d0049c0:	00000000 	nop

9d0049c4 <chip_write_data>:
}

void chip_write_data(){
9d0049c4:	27bdffe0 	addiu	sp,sp,-32
9d0049c8:	afbf001c 	sw	ra,28(sp)
9d0049cc:	afb10018 	sw	s1,24(sp)
9d0049d0:	afb00014 	sw	s0,20(sp)
  // writing to control transducers
  CS2 = 0;
9d0049d4:	3c02bf88 	lui	v0,0xbf88
9d0049d8:	94436060 	lhu	v1,24672(v0)
9d0049dc:	7c035ac4 	ins	v1,zero,0xb,0x1
9d0049e0:	a4436060 	sh	v1,24672(v0)
  SPI4BUF = chip_out1 & 0x0FFF | 0x7000;
9d0049e4:	8f838138 	lw	v1,-32456(gp)
9d0049e8:	30630fff 	andi	v1,v1,0xfff
9d0049ec:	34637000 	ori	v1,v1,0x7000
9d0049f0:	3c02bf80 	lui	v0,0xbf80
9d0049f4:	ac435c20 	sw	v1,23584(v0)
  while(!SPI4STATbits.SPIRBF){
9d0049f8:	3c03bf80 	lui	v1,0xbf80
9d0049fc:	8c625c10 	lw	v0,23568(v1)
9d004a00:	30420001 	andi	v0,v0,0x1
9d004a04:	1040fffd 	beqz	v0,9d0049fc <chip_write_data+0x38>
9d004a08:	3c11bf80 	lui	s1,0xbf80
  }
  SPI4BUF;
9d004a0c:	8e225c20 	lw	v0,23584(s1)
  CS2 = 1;
9d004a10:	3c10bf88 	lui	s0,0xbf88
9d004a14:	96026060 	lhu	v0,24672(s0)
9d004a18:	24030001 	li	v1,1
9d004a1c:	7c625ac4 	ins	v0,v1,0xb,0x1
9d004a20:	a6026060 	sh	v0,24672(s0)
  wait(100);
9d004a24:	0f402ca6 	jal	9d00b298 <wait>
9d004a28:	24040064 	li	a0,100
  CS2 = 0;
9d004a2c:	96026060 	lhu	v0,24672(s0)
9d004a30:	7c025ac4 	ins	v0,zero,0xb,0x1
9d004a34:	a6026060 	sh	v0,24672(s0)
  SPI4BUF = chip_out2 & 0x0FFF | 0xF000;
9d004a38:	97828134 	lhu	v0,-32460(gp)
9d004a3c:	3442f000 	ori	v0,v0,0xf000
9d004a40:	ae225c20 	sw	v0,23584(s1)
  while(!SPI4STATbits.SPIRBF){
9d004a44:	3c03bf80 	lui	v1,0xbf80
9d004a48:	8c625c10 	lw	v0,23568(v1)
9d004a4c:	30420001 	andi	v0,v0,0x1
9d004a50:	1040fffd 	beqz	v0,9d004a48 <chip_write_data+0x84>
9d004a54:	00000000 	nop
  }
  SPI4BUF;
9d004a58:	3c03bf80 	lui	v1,0xbf80
9d004a5c:	8c625c20 	lw	v0,23584(v1)
  CS2 = 1;
9d004a60:	3c02bf88 	lui	v0,0xbf88
9d004a64:	94446060 	lhu	a0,24672(v0)
9d004a68:	24050001 	li	a1,1
9d004a6c:	7ca45ac4 	ins	a0,a1,0xb,0x1
9d004a70:	a4446060 	sh	a0,24672(v0)

  // writing to produce carrier modulation

  CS3 = 0;
9d004a74:	94446060 	lhu	a0,24672(v0)
9d004a78:	7c046304 	ins	a0,zero,0xc,0x1
9d004a7c:	a4446060 	sh	a0,24672(v0)
  SPI4BUF = 0x7000 | mod_out;
9d004a80:	8f82812c 	lw	v0,-32468(gp)
9d004a84:	34427000 	ori	v0,v0,0x7000
9d004a88:	ac625c20 	sw	v0,23584(v1)
  while(!SPI4STATbits.SPIRBF){
9d004a8c:	3c03bf80 	lui	v1,0xbf80
9d004a90:	8c625c10 	lw	v0,23568(v1)
9d004a94:	30420001 	andi	v0,v0,0x1
9d004a98:	1040fffd 	beqz	v0,9d004a90 <chip_write_data+0xcc>
9d004a9c:	3c02bf80 	lui	v0,0xbf80
  }
  SPI4BUF;
9d004aa0:	8c425c20 	lw	v0,23584(v0)
  CS3 = 1;
9d004aa4:	3c02bf88 	lui	v0,0xbf88
9d004aa8:	94436060 	lhu	v1,24672(v0)
9d004aac:	24040001 	li	a0,1
9d004ab0:	7c836304 	ins	v1,a0,0xc,0x1
9d004ab4:	a4436060 	sh	v1,24672(v0)
}
9d004ab8:	8fbf001c 	lw	ra,28(sp)
9d004abc:	8fb10018 	lw	s1,24(sp)
9d004ac0:	8fb00014 	lw	s0,20(sp)
9d004ac4:	03e00008 	jr	ra
9d004ac8:	27bd0020 	addiu	sp,sp,32

9d004acc <twocompconv>:

int twocompconv(int s){
  if (s>=8192){
9d004acc:	28822000 	slti	v0,a0,8192
    s = s - 8192;
9d004ad0:	2483e000 	addiu	v1,a0,-8192
9d004ad4:	24841fff 	addiu	a0,a0,8191
  } else {
    s = s + 8191;
  }
  return s;
}
9d004ad8:	0082180b 	movn	v1,a0,v0
9d004adc:	03e00008 	jr	ra
9d004ae0:	00601021 	move	v0,v1

9d004ae4 <chip_read_data>:

void chip_read_data(){
9d004ae4:	27bdffe8 	addiu	sp,sp,-24
9d004ae8:	afbf0014 	sw	ra,20(sp)
9d004aec:	afb00010 	sw	s0,16(sp)
  CNVST = 0;
9d004af0:	3c10bf88 	lui	s0,0xbf88
9d004af4:	96026060 	lhu	v0,24672(s0)
9d004af8:	7c025284 	ins	v0,zero,0xa,0x1
9d004afc:	a6026060 	sh	v0,24672(s0)
  wait(2);
9d004b00:	0f402ca6 	jal	9d00b298 <wait>
9d004b04:	24040002 	li	a0,2
  CNVST = 1;
9d004b08:	96026060 	lhu	v0,24672(s0)
9d004b0c:	24030001 	li	v1,1
9d004b10:	7c625284 	ins	v0,v1,0xa,0x1
9d004b14:	a6026060 	sh	v0,24672(s0)
  wait(5);
9d004b18:	0f402ca6 	jal	9d00b298 <wait>
9d004b1c:	24040005 	li	a0,5
  CS1 = 0;
9d004b20:	96026060 	lhu	v0,24672(s0)
9d004b24:	7c026b44 	ins	v0,zero,0xd,0x1
9d004b28:	a6026060 	sh	v0,24672(s0)
  SPI3BUF = 0;
9d004b2c:	3c02bf80 	lui	v0,0xbf80
9d004b30:	ac405820 	sw	zero,22560(v0)
  while(!SPI3STATbits.SPIRBF){
9d004b34:	3c03bf80 	lui	v1,0xbf80
9d004b38:	8c625810 	lw	v0,22544(v1)
9d004b3c:	30420001 	andi	v0,v0,0x1
9d004b40:	1040fffd 	beqz	v0,9d004b38 <chip_read_data+0x54>
9d004b44:	3c02bf80 	lui	v0,0xbf80
  }
  sig = SPI3BUF;
9d004b48:	8c505820 	lw	s0,22560(v0)
9d004b4c:	af908130 	sw	s0,-32464(gp)
  CS1 = 1;
9d004b50:	3c02bf88 	lui	v0,0xbf88
9d004b54:	94436060 	lhu	v1,24672(v0)
9d004b58:	24040001 	li	a0,1
9d004b5c:	7c836b44 	ins	v1,a0,0xd,0x1
9d004b60:	a4436060 	sh	v1,24672(v0)
  sig1 = (long double) twocompconv((sig>>4) & 0x3FFF);
9d004b64:	0f4012b3 	jal	9d004acc <twocompconv>
9d004b68:	7e046900 	ext	a0,s0,0x4,0xe
9d004b6c:	0f4034e1 	jal	9d00d384 <__floatsidf>
9d004b70:	00402021 	move	a0,v0
9d004b74:	00402021 	move	a0,v0
9d004b78:	0f4030a1 	jal	9d00c284 <.LFE23>
9d004b7c:	00602821 	move	a1,v1
9d004b80:	af828124 	sw	v0,-32476(gp)
  sig2 = (long double) twocompconv((sig>>18) & 0x3FFF);
9d004b84:	0f4012b3 	jal	9d004acc <twocompconv>
9d004b88:	00102482 	srl	a0,s0,0x12
9d004b8c:	0f4034e1 	jal	9d00d384 <__floatsidf>
9d004b90:	00402021 	move	a0,v0
9d004b94:	00402021 	move	a0,v0
9d004b98:	0f4030a1 	jal	9d00c284 <.LFE23>
9d004b9c:	00602821 	move	a1,v1
9d004ba0:	af828120 	sw	v0,-32480(gp)
}
9d004ba4:	8fbf0014 	lw	ra,20(sp)
9d004ba8:	8fb00010 	lw	s0,16(sp)
9d004bac:	03e00008 	jr	ra
9d004bb0:	27bd0018 	addiu	sp,sp,24

9d004bb4 <interrupt_init>:

void interrupt_init(){
  // vibration control interrupt
  PR4 =  19950; // freq = 80,000,000/(1+7999) = 10kHz
9d004bb4:	24034dee 	li	v1,19950
9d004bb8:	3c02bf80 	lui	v0,0xbf80
9d004bbc:	ac430c20 	sw	v1,3104(v0)
  TMR4 = 0;
9d004bc0:	3c02bf80 	lui	v0,0xbf80
9d004bc4:	ac400c10 	sw	zero,3088(v0)
  T4CONbits.TCKPS = 0;
9d004bc8:	3c02bf80 	lui	v0,0xbf80
9d004bcc:	94430c00 	lhu	v1,3072(v0)
9d004bd0:	7c033104 	ins	v1,zero,0x4,0x3
9d004bd4:	a4430c00 	sh	v1,3072(v0)
  T4CONbits.ON = 1;
9d004bd8:	94430c00 	lhu	v1,3072(v0)
9d004bdc:	24040001 	li	a0,1
9d004be0:	7c837bc4 	ins	v1,a0,0xf,0x1
9d004be4:	a4430c00 	sh	v1,3072(v0)
  IPC4bits.T4IP = 5;
9d004be8:	3c02bf88 	lui	v0,0xbf88
9d004bec:	8c4310d0 	lw	v1,4304(v0)
9d004bf0:	24050005 	li	a1,5
9d004bf4:	7ca32084 	ins	v1,a1,0x2,0x3
9d004bf8:	ac4310d0 	sw	v1,4304(v0)
  IPC4bits.T4IS = 0;
9d004bfc:	8c4310d0 	lw	v1,4304(v0)
9d004c00:	7c030804 	ins	v1,zero,0x0,0x2
9d004c04:	ac4310d0 	sw	v1,4304(v0)
  IFS0bits.T4IF = 0;
9d004c08:	3c02bf88 	lui	v0,0xbf88
9d004c0c:	8c431030 	lw	v1,4144(v0)
9d004c10:	7c038404 	ins	v1,zero,0x10,0x1
9d004c14:	ac431030 	sw	v1,4144(v0)
  IEC0bits.T4IE = 1;
9d004c18:	3c02bf88 	lui	v0,0xbf88
9d004c1c:	8c431060 	lw	v1,4192(v0)
9d004c20:	7c838404 	ins	v1,a0,0x10,0x1
9d004c24:	ac431060 	sw	v1,4192(v0)
9d004c28:	03e00008 	jr	ra
9d004c2c:	00000000 	nop

9d004c30 <find_avg>:
}

void find_avg(){
9d004c30:	27bdffd8 	addiu	sp,sp,-40
9d004c34:	afbf0024 	sw	ra,36(sp)
9d004c38:	afb30020 	sw	s3,32(sp)
9d004c3c:	afb2001c 	sw	s2,28(sp)
9d004c40:	afb10018 	sw	s1,24(sp)
9d004c44:	afb00014 	sw	s0,20(sp)
  if (avc<avn){
9d004c48:	8f918128 	lw	s1,-32472(gp)
9d004c4c:	8f90802c 	lw	s0,-32724(gp)
9d004c50:	0230102a 	slt	v0,s1,s0
9d004c54:	1040002a 	beqz	v0,9d004d00 <find_avg+0xd0>
9d004c58:	8f84811c 	lw	a0,-32484(gp)
    sig1s = sig1s + sig1;
9d004c5c:	0f402877 	jal	9d00a1dc <__addsf3>
9d004c60:	8f858124 	lw	a1,-32476(gp)
9d004c64:	00409821 	move	s3,v0
9d004c68:	af82811c 	sw	v0,-32484(gp)
    sig2s = sig2s + sig2;
9d004c6c:	8f848118 	lw	a0,-32488(gp)
9d004c70:	0f402877 	jal	9d00a1dc <__addsf3>
9d004c74:	8f858120 	lw	a1,-32480(gp)
9d004c78:	00409021 	move	s2,v0
9d004c7c:	af828118 	sw	v0,-32488(gp)
    avc++;
9d004c80:	26310001 	addiu	s1,s1,1
    if (avc==avn){
9d004c84:	1611001e 	bne	s0,s1,9d004d00 <find_avg+0xd0>
9d004c88:	af918128 	sw	s1,-32472(gp)
      sig1av = sig1s/((long double) avn);
9d004c8c:	0f4034e1 	jal	9d00d384 <__floatsidf>
9d004c90:	02002021 	move	a0,s0
9d004c94:	00408021 	move	s0,v0
9d004c98:	00608821 	move	s1,v1
9d004c9c:	0f4032fe 	jal	9d00cbf8 <__extendsfdf2>
9d004ca0:	02602021 	move	a0,s3
9d004ca4:	00402021 	move	a0,v0
9d004ca8:	00602821 	move	a1,v1
9d004cac:	02003021 	move	a2,s0
9d004cb0:	0f401862 	jal	9d006188 <__divdf3>
9d004cb4:	02203821 	move	a3,s1
9d004cb8:	00402021 	move	a0,v0
9d004cbc:	0f4030a1 	jal	9d00c284 <.LFE23>
9d004cc0:	00602821 	move	a1,v1
9d004cc4:	af828114 	sw	v0,-32492(gp)
      sig2av = sig2s/((long double) avn);
9d004cc8:	0f4032fe 	jal	9d00cbf8 <__extendsfdf2>
9d004ccc:	02402021 	move	a0,s2
9d004cd0:	00402021 	move	a0,v0
9d004cd4:	00602821 	move	a1,v1
9d004cd8:	02003021 	move	a2,s0
9d004cdc:	0f401862 	jal	9d006188 <__divdf3>
9d004ce0:	02203821 	move	a3,s1
9d004ce4:	00402021 	move	a0,v0
9d004ce8:	0f4030a1 	jal	9d00c284 <.LFE23>
9d004cec:	00602821 	move	a1,v1
9d004cf0:	af828110 	sw	v0,-32496(gp)
      sig1s = 0.0;
9d004cf4:	00001021 	move	v0,zero
9d004cf8:	af82811c 	sw	v0,-32484(gp)
      sig2s = 0.0;
9d004cfc:	af828118 	sw	v0,-32488(gp)
    }
  }
}
9d004d00:	8fbf0024 	lw	ra,36(sp)
9d004d04:	8fb30020 	lw	s3,32(sp)
9d004d08:	8fb2001c 	lw	s2,28(sp)
9d004d0c:	8fb10018 	lw	s1,24(sp)
9d004d10:	8fb00014 	lw	s0,20(sp)
9d004d14:	03e00008 	jr	ra
9d004d18:	27bd0028 	addiu	sp,sp,40

9d004d1c <sample_hall>:

void sample_hall(){ // readings are in mN
9d004d1c:	27bdffe0 	addiu	sp,sp,-32
9d004d20:	afbf001c 	sw	ra,28(sp)
9d004d24:	afb10018 	sw	s1,24(sp)
  chip_read_data();
9d004d28:	0f4012b9 	jal	9d004ae4 <chip_read_data>
9d004d2c:	afb00014 	sw	s0,20(sp)
  HALL1 = (sig1 - sig1av)/adcbits*VtoD1*20.0;
9d004d30:	8f918028 	lw	s1,-32728(gp)
9d004d34:	8f848124 	lw	a0,-32476(gp)
9d004d38:	0f402875 	jal	9d00a1d4 <__subsf3>
9d004d3c:	8f858114 	lw	a1,-32492(gp)
9d004d40:	00402021 	move	a0,v0
9d004d44:	0f4029a5 	jal	9d00a694 <__divsf3>
9d004d48:	02202821 	move	a1,s1
9d004d4c:	00402021 	move	a0,v0
9d004d50:	0f402aa2 	jal	9d00aa88 <.LFE9>
9d004d54:	8f858020 	lw	a1,-32736(gp)
9d004d58:	3c109d01 	lui	s0,0x9d01
9d004d5c:	00402021 	move	a0,v0
9d004d60:	0f402aa2 	jal	9d00aa88 <.LFE9>
9d004d64:	8e05e098 	lw	a1,-8040(s0)
9d004d68:	af828104 	sw	v0,-32508(gp)
  HALL2 = (sig2 - sig2av)/adcbits*VtoD2*20.0;
9d004d6c:	8f848120 	lw	a0,-32480(gp)
9d004d70:	0f402875 	jal	9d00a1d4 <__subsf3>
9d004d74:	8f858110 	lw	a1,-32496(gp)
9d004d78:	00402021 	move	a0,v0
9d004d7c:	0f4029a5 	jal	9d00a694 <__divsf3>
9d004d80:	02202821 	move	a1,s1
9d004d84:	00402021 	move	a0,v0
9d004d88:	0f402aa2 	jal	9d00aa88 <.LFE9>
9d004d8c:	8f85801c 	lw	a1,-32740(gp)
9d004d90:	00402021 	move	a0,v0
9d004d94:	0f402aa2 	jal	9d00aa88 <.LFE9>
9d004d98:	8e05e098 	lw	a1,-8040(s0)
9d004d9c:	af8280d8 	sw	v0,-32552(gp)
}
9d004da0:	8fbf001c 	lw	ra,28(sp)
9d004da4:	8fb10018 	lw	s1,24(sp)
9d004da8:	8fb00014 	lw	s0,20(sp)
9d004dac:	03e00008 	jr	ra
9d004db0:	27bd0020 	addiu	sp,sp,32

9d004db4 <output_compute>:

void output_compute(){
9d004db4:	27bdffd8 	addiu	sp,sp,-40
9d004db8:	afbf0024 	sw	ra,36(sp)
9d004dbc:	afb30020 	sw	s3,32(sp)
9d004dc0:	afb2001c 	sw	s2,28(sp)
9d004dc4:	afb10018 	sw	s1,24(sp)
9d004dc8:	afb00014 	sw	s0,20(sp)
  chip_out1 = (int) ((TRANS2 + 5.0)/10.0*dacbits);
9d004dcc:	8f908024 	lw	s0,-32732(gp)
9d004dd0:	3c139d01 	lui	s3,0x9d01
9d004dd4:	8f8480a8 	lw	a0,-32600(gp)
9d004dd8:	0f402877 	jal	9d00a1dc <__addsf3>
9d004ddc:	8e65e09c 	lw	a1,-8036(s3)
9d004de0:	3c119d01 	lui	s1,0x9d01
9d004de4:	00402021 	move	a0,v0
9d004de8:	0f4029a5 	jal	9d00a694 <__divsf3>
9d004dec:	8e25e0a0 	lw	a1,-8032(s1)
9d004df0:	00402021 	move	a0,v0
9d004df4:	0f402aa2 	jal	9d00aa88 <.LFE9>
9d004df8:	02002821 	move	a1,s0
9d004dfc:	0f4034a3 	jal	9d00d28c <__fixsfsi>
9d004e00:	00402021 	move	a0,v0
9d004e04:	00409021 	move	s2,v0
9d004e08:	af828138 	sw	v0,-32456(gp)
  chip_out2 = (int) ((TRANS1 + 5.0)/10.0*dacbits);
9d004e0c:	8f8480ac 	lw	a0,-32596(gp)
9d004e10:	0f402877 	jal	9d00a1dc <__addsf3>
9d004e14:	8e65e09c 	lw	a1,-8036(s3)
9d004e18:	00402021 	move	a0,v0
9d004e1c:	0f4029a5 	jal	9d00a694 <__divsf3>
9d004e20:	8e25e0a0 	lw	a1,-8032(s1)
9d004e24:	02002021 	move	a0,s0
9d004e28:	0f402aa2 	jal	9d00aa88 <.LFE9>
9d004e2c:	00402821 	move	a1,v0
9d004e30:	0f4034a3 	jal	9d00d28c <__fixsfsi>
9d004e34:	00402021 	move	a0,v0
9d004e38:	00408821 	move	s1,v0
9d004e3c:	af828134 	sw	v0,-32460(gp)

  //mod_out = (int) (sqrt((sin(2*pi*t*freq[freqi])+1)/2)*.5*dacbits);

  if (chip_out1 > dacbits){
9d004e40:	0f4035d1 	jal	9d00d744 <__floatsisf>
9d004e44:	02402021 	move	a0,s2
9d004e48:	02002021 	move	a0,s0
9d004e4c:	0f4033f1 	jal	9d00cfc4 <__eqsf2>
9d004e50:	00402821 	move	a1,v0
9d004e54:	04410005 	bgez	v0,9d004e6c <output_compute+0xb8>
9d004e58:	8f828138 	lw	v0,-32456(gp)
    chip_out1 = (int) dacbits;
9d004e5c:	0f4034a3 	jal	9d00d28c <__fixsfsi>
9d004e60:	02002021 	move	a0,s0
9d004e64:	af828138 	sw	v0,-32456(gp)
  }
  if (chip_out1 < 0){
9d004e68:	8f828138 	lw	v0,-32456(gp)
9d004e6c:	04420001 	bltzl	v0,9d004e74 <output_compute+0xc0>
9d004e70:	af808138 	sw	zero,-32456(gp)
    chip_out1 = 0;
  }
  if (chip_out2 > dacbits){
9d004e74:	0f4035d1 	jal	9d00d744 <__floatsisf>
9d004e78:	02202021 	move	a0,s1
9d004e7c:	02002021 	move	a0,s0
9d004e80:	0f4033f1 	jal	9d00cfc4 <__eqsf2>
9d004e84:	00402821 	move	a1,v0
9d004e88:	04410005 	bgez	v0,9d004ea0 <output_compute+0xec>
9d004e8c:	8f828134 	lw	v0,-32460(gp)
    chip_out2 = (int) dacbits;
9d004e90:	0f4034a3 	jal	9d00d28c <__fixsfsi>
9d004e94:	02002021 	move	a0,s0
9d004e98:	af828134 	sw	v0,-32460(gp)
  }
  if (chip_out2 < 0){
9d004e9c:	8f828134 	lw	v0,-32460(gp)
9d004ea0:	04420001 	bltzl	v0,9d004ea8 <output_compute+0xf4>
9d004ea4:	af808134 	sw	zero,-32460(gp)
    chip_out2 = 0;
  }
}
9d004ea8:	8fbf0024 	lw	ra,36(sp)
9d004eac:	8fb30020 	lw	s3,32(sp)
9d004eb0:	8fb2001c 	lw	s2,28(sp)
9d004eb4:	8fb10018 	lw	s1,24(sp)
9d004eb8:	8fb00014 	lw	s0,20(sp)
9d004ebc:	03e00008 	jr	ra
9d004ec0:	27bd0028 	addiu	sp,sp,40

9d004ec4 <Timer4ISR>:

void __ISR(_TIMER_4_VECTOR,IPL5SOFT) Timer4ISR(void){
9d004ec4:	415de800 	rdpgpr	sp,sp
9d004ec8:	401a7000 	mfc0	k0,c0_epc
9d004ecc:	401b6000 	mfc0	k1,c0_status
9d004ed0:	27bdff90 	addiu	sp,sp,-112
9d004ed4:	afba006c 	sw	k0,108(sp)
9d004ed8:	401a6002 	mfc0	k0,c0_srsctl
9d004edc:	afbb0068 	sw	k1,104(sp)
9d004ee0:	afba0064 	sw	k0,100(sp)
9d004ee4:	7c1b7844 	ins	k1,zero,0x1,0xf
9d004ee8:	377b1400 	ori	k1,k1,0x1400
9d004eec:	409b6000 	mtc0	k1,c0_status
9d004ef0:	afbf0054 	sw	ra,84(sp)
9d004ef4:	afb90050 	sw	t9,80(sp)
9d004ef8:	afb8004c 	sw	t8,76(sp)
9d004efc:	afaf0048 	sw	t7,72(sp)
9d004f00:	afae0044 	sw	t6,68(sp)
9d004f04:	afad0040 	sw	t5,64(sp)
9d004f08:	afac003c 	sw	t4,60(sp)
9d004f0c:	afab0038 	sw	t3,56(sp)
9d004f10:	afaa0034 	sw	t2,52(sp)
9d004f14:	afa90030 	sw	t1,48(sp)
9d004f18:	afa8002c 	sw	t0,44(sp)
9d004f1c:	afa70028 	sw	a3,40(sp)
9d004f20:	afa60024 	sw	a2,36(sp)
9d004f24:	afa50020 	sw	a1,32(sp)
9d004f28:	afa4001c 	sw	a0,28(sp)
9d004f2c:	afa30018 	sw	v1,24(sp)
9d004f30:	afa20014 	sw	v0,20(sp)
9d004f34:	afa10010 	sw	at,16(sp)
9d004f38:	00001012 	mflo	v0
9d004f3c:	afa2005c 	sw	v0,92(sp)
9d004f40:	00001810 	mfhi	v1
9d004f44:	afa30058 	sw	v1,88(sp)
  // friction sample, filter, and feedback routine
  t += .00025;
9d004f48:	8f84810c 	lw	a0,-32500(gp)
9d004f4c:	3c029d01 	lui	v0,0x9d01
9d004f50:	0f402877 	jal	9d00a1dc <__addsf3>
9d004f54:	8c45e0a4 	lw	a1,-8028(v0)
  sample_hall();
9d004f58:	0f401347 	jal	9d004d1c <sample_hall>
9d004f5c:	af82810c 	sw	v0,-32500(gp)
  find_avg();
9d004f60:	0f40130c 	jal	9d004c30 <find_avg>
9d004f64:	00000000 	nop
  //vib_control();
  //output_compute();
  //chip_write_data();
  IFS0bits.T4IF = 0;
9d004f68:	3c02bf88 	lui	v0,0xbf88
9d004f6c:	8c431030 	lw	v1,4144(v0)
9d004f70:	7c038404 	ins	v1,zero,0x10,0x1
9d004f74:	ac431030 	sw	v1,4144(v0)
}
9d004f78:	8fa2005c 	lw	v0,92(sp)
9d004f7c:	00400013 	mtlo	v0
9d004f80:	8fa30058 	lw	v1,88(sp)
9d004f84:	00600011 	mthi	v1
9d004f88:	8fbf0054 	lw	ra,84(sp)
9d004f8c:	8fb90050 	lw	t9,80(sp)
9d004f90:	8fb8004c 	lw	t8,76(sp)
9d004f94:	8faf0048 	lw	t7,72(sp)
9d004f98:	8fae0044 	lw	t6,68(sp)
9d004f9c:	8fad0040 	lw	t5,64(sp)
9d004fa0:	8fac003c 	lw	t4,60(sp)
9d004fa4:	8fab0038 	lw	t3,56(sp)
9d004fa8:	8faa0034 	lw	t2,52(sp)
9d004fac:	8fa90030 	lw	t1,48(sp)
9d004fb0:	8fa8002c 	lw	t0,44(sp)
9d004fb4:	8fa70028 	lw	a3,40(sp)
9d004fb8:	8fa60024 	lw	a2,36(sp)
9d004fbc:	8fa50020 	lw	a1,32(sp)
9d004fc0:	8fa4001c 	lw	a0,28(sp)
9d004fc4:	8fa30018 	lw	v1,24(sp)
9d004fc8:	8fa20014 	lw	v0,20(sp)
9d004fcc:	8fa10010 	lw	at,16(sp)
9d004fd0:	41606000 	di
9d004fd4:	000000c0 	ehb
9d004fd8:	8fba006c 	lw	k0,108(sp)
9d004fdc:	8fbb0068 	lw	k1,104(sp)
9d004fe0:	409a7000 	mtc0	k0,c0_epc
9d004fe4:	8fba0064 	lw	k0,100(sp)
9d004fe8:	27bd0070 	addiu	sp,sp,112
9d004fec:	409a6002 	mtc0	k0,c0_srsctl
9d004ff0:	41dde800 	wrpgpr	sp,sp
9d004ff4:	409b6000 	mtc0	k1,c0_status
9d004ff8:	42000018 	eret

9d004ffc <vib_control>:
#include "NU32.h"
#include <math.h>
#include "helpers.h"
#include "dsp.h"

void vib_control(){
9d004ffc:	27bdffc8 	addiu	sp,sp,-56
9d005000:	afbf0034 	sw	ra,52(sp)
9d005004:	afb60030 	sw	s6,48(sp)
9d005008:	afb5002c 	sw	s5,44(sp)
9d00500c:	afb40028 	sw	s4,40(sp)
9d005010:	afb30024 	sw	s3,36(sp)
9d005014:	afb20020 	sw	s2,32(sp)
9d005018:	afb1001c 	sw	s1,28(sp)
9d00501c:	afb00018 	sw	s0,24(sp)
  if (clfeedback == 1){
9d005020:	24020001 	li	v0,1
9d005024:	8f838108 	lw	v1,-32504(gp)
9d005028:	14620149 	bne	v1,v0,9d005550 <vib_control+0x554>
9d00502c:	8f828098 	lw	v0,-32616(gp)
    // computing hall effect 1
    HALL1c = cos(2*pi*freq[freqi]*t)*HALL1;
9d005030:	8f828018 	lw	v0,-32744(gp)
9d005034:	00021080 	sll	v0,v0,0x2
9d005038:	3c15a000 	lui	s5,0xa000
9d00503c:	26b50d78 	addiu	s5,s5,3448
9d005040:	00551021 	addu	v0,v0,s5
9d005044:	3c149d01 	lui	s4,0x9d01
9d005048:	8c440000 	lw	a0,0(v0)
9d00504c:	0f402aa2 	jal	9d00aa88 <.LFE9>
9d005050:	8e85e0b0 	lw	a1,-8016(s4)
9d005054:	00402021 	move	a0,v0
9d005058:	0f402aa2 	jal	9d00aa88 <.LFE9>
9d00505c:	8f85810c 	lw	a1,-32500(gp)
9d005060:	00409021 	move	s2,v0
9d005064:	0f402f12 	jal	9d00bc48 <cosf>
9d005068:	00402021 	move	a0,v0
9d00506c:	8f918104 	lw	s1,-32508(gp)
9d005070:	00402021 	move	a0,v0
9d005074:	0f402aa2 	jal	9d00aa88 <.LFE9>
9d005078:	02202821 	move	a1,s1
9d00507c:	00408021 	move	s0,v0
9d005080:	af828100 	sw	v0,-32512(gp)
    HALL1s = sin(2*pi*freq[freqi]*t)*HALL1;
9d005084:	0f402ecb 	jal	9d00bb2c <.LFE3>
9d005088:	02402021 	move	a0,s2
9d00508c:	02202021 	move	a0,s1
9d005090:	0f402aa2 	jal	9d00aa88 <.LFE9>
9d005094:	00402821 	move	a1,v0
9d005098:	af8280f8 	sw	v0,-32520(gp)
    array_insert(2,HALL1ca,HALL1c);
9d00509c:	24040002 	li	a0,2
9d0050a0:	3c12a000 	lui	s2,0xa000
9d0050a4:	26450a1c 	addiu	a1,s2,2588
9d0050a8:	0f402cad 	jal	9d00b2b4 <array_insert>
9d0050ac:	02003021 	move	a2,s0
    array_insert(2,HALL1sa,HALL1s);
9d0050b0:	24040002 	li	a0,2
9d0050b4:	3c16a000 	lui	s6,0xa000
9d0050b8:	26c50a04 	addiu	a1,s6,2564
9d0050bc:	0f402cad 	jal	9d00b2b4 <array_insert>
9d0050c0:	8f8680f8 	lw	a2,-32520(gp)
    HALL1cf = rfilter(2,lp1b,lp1a,HALL1ca,HALL1cfa);
9d0050c4:	3c13a000 	lui	s3,0xa000
9d0050c8:	26730a10 	addiu	s3,s3,2576
9d0050cc:	afb30010 	sw	s3,16(sp)
9d0050d0:	24040002 	li	a0,2
9d0050d4:	3c11a000 	lui	s1,0xa000
9d0050d8:	26250d40 	addiu	a1,s1,3392
9d0050dc:	3c10a000 	lui	s0,0xa000
9d0050e0:	26060d4c 	addiu	a2,s0,3404
9d0050e4:	0f402deb 	jal	9d00b7ac <rfilter>
9d0050e8:	26470a1c 	addiu	a3,s2,2588
9d0050ec:	af8280fc 	sw	v0,-32516(gp)
    HALL1sf = rfilter(2,lp1b,lp1a,HALL1sa,HALL1sfa);
9d0050f0:	3c12a000 	lui	s2,0xa000
9d0050f4:	265209f8 	addiu	s2,s2,2552
9d0050f8:	afb20010 	sw	s2,16(sp)
9d0050fc:	24040002 	li	a0,2
9d005100:	26250d40 	addiu	a1,s1,3392
9d005104:	26060d4c 	addiu	a2,s0,3404
9d005108:	0f402deb 	jal	9d00b7ac <rfilter>
9d00510c:	26c70a04 	addiu	a3,s6,2564
9d005110:	af8280f4 	sw	v0,-32524(gp)
    array_insert(2,HALL1cfa,HALL1cf);
9d005114:	24040002 	li	a0,2
9d005118:	02602821 	move	a1,s3
9d00511c:	0f402cad 	jal	9d00b2b4 <array_insert>
9d005120:	8f8680fc 	lw	a2,-32516(gp)
    array_insert(2,HALL1sfa,HALL1sf);
9d005124:	24040002 	li	a0,2
9d005128:	02402821 	move	a1,s2
9d00512c:	0f402cad 	jal	9d00b2b4 <array_insert>
9d005130:	8f8680f4 	lw	a2,-32524(gp)
    HALL1amp = sqrt((HALL1cf*HALL1cf) + (HALL1sf*HALL1sf))*2;
9d005134:	8f9380fc 	lw	s3,-32516(gp)
9d005138:	8f9280f4 	lw	s2,-32524(gp)
9d00513c:	02602021 	move	a0,s3
9d005140:	0f402aa2 	jal	9d00aa88 <.LFE9>
9d005144:	02602821 	move	a1,s3
9d005148:	00409821 	move	s3,v0
9d00514c:	02402021 	move	a0,s2
9d005150:	0f402aa2 	jal	9d00aa88 <.LFE9>
9d005154:	02402821 	move	a1,s2
9d005158:	02602021 	move	a0,s3
9d00515c:	0f402877 	jal	9d00a1dc <__addsf3>
9d005160:	00402821 	move	a1,v0
9d005164:	0f403585 	jal	9d00d614 <sqrtf>
9d005168:	00402021 	move	a0,v0
9d00516c:	00402021 	move	a0,v0
9d005170:	0f402877 	jal	9d00a1dc <__addsf3>
9d005174:	00402821 	move	a1,v0
9d005178:	af8280f0 	sw	v0,-32528(gp)
    HALL1pha = atan2(HALL1sf,HALL1cf);
9d00517c:	8f8480f4 	lw	a0,-32524(gp)
9d005180:	0f40246c 	jal	9d0091b0 <atan2f>
9d005184:	8f8580fc 	lw	a1,-32516(gp)
9d005188:	af8280ec 	sw	v0,-32532(gp)

    // computing hall effect 2
    HALL2c = cos(2*pi*freq[freqi]*t)*HALL2;
9d00518c:	8f828018 	lw	v0,-32744(gp)
9d005190:	00021080 	sll	v0,v0,0x2
9d005194:	0055a821 	addu	s5,v0,s5
9d005198:	8ea40000 	lw	a0,0(s5)
9d00519c:	0f402aa2 	jal	9d00aa88 <.LFE9>
9d0051a0:	8e85e0b0 	lw	a1,-8016(s4)
9d0051a4:	00402021 	move	a0,v0
9d0051a8:	0f402aa2 	jal	9d00aa88 <.LFE9>
9d0051ac:	8f85810c 	lw	a1,-32500(gp)
9d0051b0:	0040a021 	move	s4,v0
9d0051b4:	0f402f12 	jal	9d00bc48 <cosf>
9d0051b8:	00402021 	move	a0,v0
9d0051bc:	8f9280d8 	lw	s2,-32552(gp)
9d0051c0:	00402021 	move	a0,v0
9d0051c4:	0f402aa2 	jal	9d00aa88 <.LFE9>
9d0051c8:	02402821 	move	a1,s2
9d0051cc:	00409821 	move	s3,v0
9d0051d0:	af8280d4 	sw	v0,-32556(gp)
    HALL2s = sin(2*pi*freq[freqi]*t)*HALL2;
9d0051d4:	0f402ecb 	jal	9d00bb2c <.LFE3>
9d0051d8:	02802021 	move	a0,s4
9d0051dc:	02402021 	move	a0,s2
9d0051e0:	0f402aa2 	jal	9d00aa88 <.LFE9>
9d0051e4:	00402821 	move	a1,v0
9d0051e8:	af8280cc 	sw	v0,-32564(gp)
    array_insert(2,HALL2ca,HALL2c);
9d0051ec:	24040002 	li	a0,2
9d0051f0:	3c12a000 	lui	s2,0xa000
9d0051f4:	264509ec 	addiu	a1,s2,2540
9d0051f8:	0f402cad 	jal	9d00b2b4 <array_insert>
9d0051fc:	02603021 	move	a2,s3
    array_insert(2,HALL2sa,HALL2s);
9d005200:	24040002 	li	a0,2
9d005204:	3c14a000 	lui	s4,0xa000
9d005208:	268509d4 	addiu	a1,s4,2516
9d00520c:	0f402cad 	jal	9d00b2b4 <array_insert>
9d005210:	8f8680cc 	lw	a2,-32564(gp)
    HALL2cf = rfilter(2,lp1b,lp1a,HALL2ca,HALL2cfa);
9d005214:	3c13a000 	lui	s3,0xa000
9d005218:	267309e0 	addiu	s3,s3,2528
9d00521c:	afb30010 	sw	s3,16(sp)
9d005220:	24040002 	li	a0,2
9d005224:	26250d40 	addiu	a1,s1,3392
9d005228:	26060d4c 	addiu	a2,s0,3404
9d00522c:	0f402deb 	jal	9d00b7ac <rfilter>
9d005230:	264709ec 	addiu	a3,s2,2540
9d005234:	af8280d0 	sw	v0,-32560(gp)
    HALL2sf = rfilter(2,lp1b,lp1a,HALL2sa,HALL2sfa);
9d005238:	3c12a000 	lui	s2,0xa000
9d00523c:	265209c8 	addiu	s2,s2,2504
9d005240:	afb20010 	sw	s2,16(sp)
9d005244:	24040002 	li	a0,2
9d005248:	26250d40 	addiu	a1,s1,3392
9d00524c:	26060d4c 	addiu	a2,s0,3404
9d005250:	0f402deb 	jal	9d00b7ac <rfilter>
9d005254:	268709d4 	addiu	a3,s4,2516
9d005258:	af8280c8 	sw	v0,-32568(gp)
    array_insert(2,HALL2cfa,HALL2cf);
9d00525c:	24040002 	li	a0,2
9d005260:	02602821 	move	a1,s3
9d005264:	0f402cad 	jal	9d00b2b4 <array_insert>
9d005268:	8f8680d0 	lw	a2,-32560(gp)
    array_insert(2,HALL2sfa,HALL2sf);
9d00526c:	24040002 	li	a0,2
9d005270:	02402821 	move	a1,s2
9d005274:	0f402cad 	jal	9d00b2b4 <array_insert>
9d005278:	8f8680c8 	lw	a2,-32568(gp)
    HALL2amp = sqrt((HALL2cf*HALL2cf) + (HALL2sf*HALL2sf))*2;
9d00527c:	8f9180d0 	lw	s1,-32560(gp)
9d005280:	8f9080c8 	lw	s0,-32568(gp)
9d005284:	02202021 	move	a0,s1
9d005288:	0f402aa2 	jal	9d00aa88 <.LFE9>
9d00528c:	02202821 	move	a1,s1
9d005290:	00408821 	move	s1,v0
9d005294:	02002021 	move	a0,s0
9d005298:	0f402aa2 	jal	9d00aa88 <.LFE9>
9d00529c:	02002821 	move	a1,s0
9d0052a0:	02202021 	move	a0,s1
9d0052a4:	0f402877 	jal	9d00a1dc <__addsf3>
9d0052a8:	00402821 	move	a1,v0
9d0052ac:	0f403585 	jal	9d00d614 <sqrtf>
9d0052b0:	00402021 	move	a0,v0
9d0052b4:	00402021 	move	a0,v0
9d0052b8:	0f402877 	jal	9d00a1dc <__addsf3>
9d0052bc:	00402821 	move	a1,v0
9d0052c0:	af8280c4 	sw	v0,-32572(gp)
    HALL2pha = atan2(HALL2sf,HALL2cf);
9d0052c4:	8f8480c8 	lw	a0,-32568(gp)
9d0052c8:	0f40246c 	jal	9d0091b0 <atan2f>
9d0052cc:	8f8580d0 	lw	a1,-32560(gp)
9d0052d0:	00408021 	move	s0,v0
9d0052d4:	af8280c0 	sw	v0,-32576(gp)

    // comuting error and control
    error_amp_H1 = amplitude - HALL1amp;
9d0052d8:	8f9280a4 	lw	s2,-32604(gp)
9d0052dc:	02402021 	move	a0,s2
9d0052e0:	0f402875 	jal	9d00a1d4 <__subsf3>
9d0052e4:	8f8580f0 	lw	a1,-32528(gp)
9d0052e8:	00408821 	move	s1,v0
9d0052ec:	af8280e8 	sw	v0,-32536(gp)
    error_amp_H2 = amplitude - HALL2amp;
9d0052f0:	02402021 	move	a0,s2
9d0052f4:	0f402875 	jal	9d00a1d4 <__subsf3>
9d0052f8:	8f8580c4 	lw	a1,-32572(gp)
9d0052fc:	af8280bc 	sw	v0,-32580(gp)
    error_pha_H1 = HALL1pha;
9d005300:	8f8280ec 	lw	v0,-32532(gp)
9d005304:	af8280e4 	sw	v0,-32540(gp)
    error_pha_H2 = HALL2pha;
9d005308:	af9080b8 	sw	s0,-32584(gp)
    array_insert(2,error_amp_H1a,error_amp_H1);
9d00530c:	24040002 	li	a0,2
9d005310:	3c10a000 	lui	s0,0xa000
9d005314:	260509bc 	addiu	a1,s0,2492
9d005318:	0f402cad 	jal	9d00b2b4 <array_insert>
9d00531c:	02203021 	move	a2,s1
    array_insert(2,error_amp_H2a,error_amp_H2);
9d005320:	24040002 	li	a0,2
9d005324:	3c05a000 	lui	a1,0xa000
9d005328:	24a509b0 	addiu	a1,a1,2480
9d00532c:	0f402cad 	jal	9d00b2b4 <array_insert>
9d005330:	8f8680bc 	lw	a2,-32580(gp)
    array_insert(2,error_pha_H1a,error_pha_H1);
9d005334:	24040002 	li	a0,2
9d005338:	3c05a000 	lui	a1,0xa000
9d00533c:	24a509a4 	addiu	a1,a1,2468
9d005340:	0f402cad 	jal	9d00b2b4 <array_insert>
9d005344:	8f8680e4 	lw	a2,-32540(gp)
    array_insert(2,error_pha_H2a,error_pha_H2);
9d005348:	24040002 	li	a0,2
9d00534c:	3c05a000 	lui	a1,0xa000
9d005350:	24a50998 	addiu	a1,a1,2456
9d005354:	0f402cad 	jal	9d00b2b4 <array_insert>
9d005358:	8f8680b8 	lw	a2,-32584(gp)
    control_amp_H1 = rfilter(2,c1b,c1a,error_amp_H1a,control_amp_H1fa);
9d00535c:	3c02a000 	lui	v0,0xa000
9d005360:	2442098c 	addiu	v0,v0,2444
9d005364:	afa20010 	sw	v0,16(sp)
9d005368:	24040002 	li	a0,2
9d00536c:	3c05a000 	lui	a1,0xa000
9d005370:	24a50d28 	addiu	a1,a1,3368
9d005374:	3c06a000 	lui	a2,0xa000
9d005378:	24c60d34 	addiu	a2,a2,3380
9d00537c:	0f402deb 	jal	9d00b7ac <rfilter>
9d005380:	260709bc 	addiu	a3,s0,2492
9d005384:	00408021 	move	s0,v0
    if (control_amp_H1<0.0){
9d005388:	00402021 	move	a0,v0
9d00538c:	0f4033f1 	jal	9d00cfc4 <__eqsf2>
9d005390:	00002821 	move	a1,zero
9d005394:	04400003 	bltz	v0,9d0053a4 <vib_control+0x3a8>
9d005398:	00001021 	move	v0,zero
    error_pha_H2 = HALL2pha;
    array_insert(2,error_amp_H1a,error_amp_H1);
    array_insert(2,error_amp_H2a,error_amp_H2);
    array_insert(2,error_pha_H1a,error_pha_H1);
    array_insert(2,error_pha_H2a,error_pha_H2);
    control_amp_H1 = rfilter(2,c1b,c1a,error_amp_H1a,control_amp_H1fa);
9d00539c:	0b4014ea 	j	9d0053a8 <vib_control+0x3ac>
9d0053a0:	af9080e0 	sw	s0,-32544(gp)
    if (control_amp_H1<0.0){
      control_amp_H1 = 0.0;
9d0053a4:	af8280e0 	sw	v0,-32544(gp)
    }
    control_amp_H2 = rfilter(2,c1b,c1a,error_amp_H2a,control_amp_H2fa);
9d0053a8:	3c02a000 	lui	v0,0xa000
9d0053ac:	24420980 	addiu	v0,v0,2432
9d0053b0:	afa20010 	sw	v0,16(sp)
9d0053b4:	24040002 	li	a0,2
9d0053b8:	3c05a000 	lui	a1,0xa000
9d0053bc:	24a50d28 	addiu	a1,a1,3368
9d0053c0:	3c06a000 	lui	a2,0xa000
9d0053c4:	24c60d34 	addiu	a2,a2,3380
9d0053c8:	3c07a000 	lui	a3,0xa000
9d0053cc:	0f402deb 	jal	9d00b7ac <rfilter>
9d0053d0:	24e709b0 	addiu	a3,a3,2480
9d0053d4:	00408021 	move	s0,v0
    if (control_amp_H2<0.0){
9d0053d8:	00402021 	move	a0,v0
9d0053dc:	0f4033f1 	jal	9d00cfc4 <__eqsf2>
9d0053e0:	00002821 	move	a1,zero
9d0053e4:	04400003 	bltz	v0,9d0053f4 <vib_control+0x3f8>
9d0053e8:	00001021 	move	v0,zero
    array_insert(2,error_pha_H2a,error_pha_H2);
    control_amp_H1 = rfilter(2,c1b,c1a,error_amp_H1a,control_amp_H1fa);
    if (control_amp_H1<0.0){
      control_amp_H1 = 0.0;
    }
    control_amp_H2 = rfilter(2,c1b,c1a,error_amp_H2a,control_amp_H2fa);
9d0053ec:	0b4014fe 	j	9d0053f8 <vib_control+0x3fc>
9d0053f0:	af9080b4 	sw	s0,-32588(gp)
    if (control_amp_H2<0.0){
      control_amp_H2 = 0.0;
9d0053f4:	af8280b4 	sw	v0,-32588(gp)
    }
    control_pha_H1 = rfilter(2,c1b,c1a,error_pha_H1a,control_pha_H1fa);
9d0053f8:	3c11a000 	lui	s1,0xa000
9d0053fc:	26310974 	addiu	s1,s1,2420
9d005400:	afb10010 	sw	s1,16(sp)
9d005404:	24040002 	li	a0,2
9d005408:	3c13a000 	lui	s3,0xa000
9d00540c:	26650d28 	addiu	a1,s3,3368
9d005410:	3c12a000 	lui	s2,0xa000
9d005414:	26460d34 	addiu	a2,s2,3380
9d005418:	3c07a000 	lui	a3,0xa000
9d00541c:	0f402deb 	jal	9d00b7ac <rfilter>
9d005420:	24e709a4 	addiu	a3,a3,2468
9d005424:	af8280dc 	sw	v0,-32548(gp)
    control_pha_H2 = rfilter(2,c1b,c1a,error_pha_H2a,control_pha_H2fa);
9d005428:	3c10a000 	lui	s0,0xa000
9d00542c:	26100968 	addiu	s0,s0,2408
9d005430:	afb00010 	sw	s0,16(sp)
9d005434:	24040002 	li	a0,2
9d005438:	26650d28 	addiu	a1,s3,3368
9d00543c:	26460d34 	addiu	a2,s2,3380
9d005440:	3c07a000 	lui	a3,0xa000
9d005444:	0f402deb 	jal	9d00b7ac <rfilter>
9d005448:	24e70998 	addiu	a3,a3,2456
9d00544c:	af8280b0 	sw	v0,-32592(gp)
    array_insert(2,control_amp_H1fa,control_amp_H1);
9d005450:	24040002 	li	a0,2
9d005454:	3c05a000 	lui	a1,0xa000
9d005458:	24a5098c 	addiu	a1,a1,2444
9d00545c:	0f402cad 	jal	9d00b2b4 <array_insert>
9d005460:	8f8680e0 	lw	a2,-32544(gp)
    array_insert(2,control_amp_H2fa,control_amp_H2);
9d005464:	24040002 	li	a0,2
9d005468:	3c05a000 	lui	a1,0xa000
9d00546c:	24a50980 	addiu	a1,a1,2432
9d005470:	0f402cad 	jal	9d00b2b4 <array_insert>
9d005474:	8f8680b4 	lw	a2,-32588(gp)
    array_insert(2,control_pha_H1fa,control_pha_H1);
9d005478:	24040002 	li	a0,2
9d00547c:	02202821 	move	a1,s1
9d005480:	0f402cad 	jal	9d00b2b4 <array_insert>
9d005484:	8f8680dc 	lw	a2,-32548(gp)
    array_insert(2,control_pha_H2fa,control_pha_H2);
9d005488:	24040002 	li	a0,2
9d00548c:	02002821 	move	a1,s0
9d005490:	0f402cad 	jal	9d00b2b4 <array_insert>
9d005494:	8f8680b0 	lw	a2,-32592(gp)

    TRANS1 = LUT1[freqi]*control_amp_H1*sin((2*pi*freq[freqi]*t) + control_pha_H1);
9d005498:	8f908018 	lw	s0,-32744(gp)
9d00549c:	00108080 	sll	s0,s0,0x2
9d0054a0:	3c02a000 	lui	v0,0xa000
9d0054a4:	24420d78 	addiu	v0,v0,3448
9d0054a8:	02021021 	addu	v0,s0,v0
9d0054ac:	8c440000 	lw	a0,0(v0)
9d0054b0:	3c029d01 	lui	v0,0x9d01
9d0054b4:	0f402aa2 	jal	9d00aa88 <.LFE9>
9d0054b8:	8c45e0b0 	lw	a1,-8016(v0)
9d0054bc:	00402021 	move	a0,v0
9d0054c0:	0f402aa2 	jal	9d00aa88 <.LFE9>
9d0054c4:	8f85810c 	lw	a1,-32500(gp)
9d0054c8:	00408821 	move	s1,v0
9d0054cc:	00402021 	move	a0,v0
9d0054d0:	0f402877 	jal	9d00a1dc <__addsf3>
9d0054d4:	8f8580dc 	lw	a1,-32548(gp)
9d0054d8:	0f402ecb 	jal	9d00bb2c <.LFE3>
9d0054dc:	00402021 	move	a0,v0
9d0054e0:	00409021 	move	s2,v0
9d0054e4:	3c02a000 	lui	v0,0xa000
9d0054e8:	24420db8 	addiu	v0,v0,3512
9d0054ec:	02021021 	addu	v0,s0,v0
9d0054f0:	8c440000 	lw	a0,0(v0)
9d0054f4:	0f402aa2 	jal	9d00aa88 <.LFE9>
9d0054f8:	8f8580e0 	lw	a1,-32544(gp)
9d0054fc:	00402021 	move	a0,v0
9d005500:	0f402aa2 	jal	9d00aa88 <.LFE9>
9d005504:	02402821 	move	a1,s2
9d005508:	af8280ac 	sw	v0,-32596(gp)
    TRANS2 = LUT2[freqi]*control_amp_H2*sin((2*pi*freq[freqi]*t) + control_pha_H2);
9d00550c:	02202021 	move	a0,s1
9d005510:	0f402877 	jal	9d00a1dc <__addsf3>
9d005514:	8f8580b0 	lw	a1,-32592(gp)
9d005518:	0f402ecb 	jal	9d00bb2c <.LFE3>
9d00551c:	00402021 	move	a0,v0
9d005520:	00408821 	move	s1,v0
9d005524:	3c02a000 	lui	v0,0xa000
9d005528:	24420d98 	addiu	v0,v0,3480
9d00552c:	02028021 	addu	s0,s0,v0
9d005530:	8e040000 	lw	a0,0(s0)
9d005534:	0f402aa2 	jal	9d00aa88 <.LFE9>
9d005538:	8f8580b4 	lw	a1,-32588(gp)
9d00553c:	00402021 	move	a0,v0
9d005540:	0f402aa2 	jal	9d00aa88 <.LFE9>
9d005544:	02202821 	move	a1,s1
9d005548:	0b4015a3 	j	9d00568c <vib_control+0x690>
9d00554c:	af8280a8 	sw	v0,-32600(gp)
  }
  else {
    switch(wavetype){
9d005550:	24030001 	li	v1,1
9d005554:	10430015 	beq	v0,v1,9d0055ac <vib_control+0x5b0>
9d005558:	24030002 	li	v1,2
9d00555c:	1043002c 	beq	v0,v1,9d005610 <vib_control+0x614>
9d005560:	8f9080a0 	lw	s0,-32608(gp)
9d005564:	54400045 	bnezl	v0,9d00567c <vib_control+0x680>
9d005568:	8f8480a4 	lw	a0,-32604(gp)
      case 0:
      wavefunc = sin(2*pi*freq[freqi]*t);
9d00556c:	8f838018 	lw	v1,-32744(gp)
9d005570:	00031880 	sll	v1,v1,0x2
9d005574:	3c02a000 	lui	v0,0xa000
9d005578:	24420d78 	addiu	v0,v0,3448
9d00557c:	00621021 	addu	v0,v1,v0
9d005580:	8c440000 	lw	a0,0(v0)
9d005584:	3c029d01 	lui	v0,0x9d01
9d005588:	0f402aa2 	jal	9d00aa88 <.LFE9>
9d00558c:	8c45e0b0 	lw	a1,-8016(v0)
9d005590:	00402021 	move	a0,v0
9d005594:	0f402aa2 	jal	9d00aa88 <.LFE9>
9d005598:	8f85810c 	lw	a1,-32500(gp)
9d00559c:	0f402ecb 	jal	9d00bb2c <.LFE3>
9d0055a0:	00402021 	move	a0,v0
      break;
9d0055a4:	0b40159e 	j	9d005678 <vib_control+0x67c>
9d0055a8:	af82809c 	sw	v0,-32612(gp)
      case 1:
      wavefunc = 2*((double) sin(2*pi*freq[freqi]*t)>0)-1;
9d0055ac:	8f838018 	lw	v1,-32744(gp)
9d0055b0:	00031880 	sll	v1,v1,0x2
9d0055b4:	3c02a000 	lui	v0,0xa000
9d0055b8:	24420d78 	addiu	v0,v0,3448
9d0055bc:	00621021 	addu	v0,v1,v0
9d0055c0:	8c440000 	lw	a0,0(v0)
9d0055c4:	3c029d01 	lui	v0,0x9d01
9d0055c8:	0f402aa2 	jal	9d00aa88 <.LFE9>
9d0055cc:	8c45e0b0 	lw	a1,-8016(v0)
9d0055d0:	00402021 	move	a0,v0
9d0055d4:	0f402aa2 	jal	9d00aa88 <.LFE9>
9d0055d8:	8f85810c 	lw	a1,-32500(gp)
9d0055dc:	0f402ecb 	jal	9d00bb2c <.LFE3>
9d0055e0:	00402021 	move	a0,v0
9d0055e4:	00002021 	move	a0,zero
9d0055e8:	0f4033f1 	jal	9d00cfc4 <__eqsf2>
9d0055ec:	00402821 	move	a1,v0
9d0055f0:	04410003 	bgez	v0,9d005600 <vib_control+0x604>
9d0055f4:	3c029d01 	lui	v0,0x9d01
9d0055f8:	0b401582 	j	9d005608 <vib_control+0x60c>
9d0055fc:	8c42e0a8 	lw	v0,-8024(v0)
9d005600:	3c029d01 	lui	v0,0x9d01
9d005604:	8c42e0ac 	lw	v0,-8020(v0)
      break;
9d005608:	0b40159e 	j	9d005678 <vib_control+0x67c>
9d00560c:	af82809c 	sw	v0,-32612(gp)
      case 2:
      wavefunc = 2*(halfperiod - absd(fmod(t,2*halfperiod) - halfperiod))/halfperiod - 1;
9d005610:	8f91810c 	lw	s1,-32500(gp)
9d005614:	02002021 	move	a0,s0
9d005618:	0f402877 	jal	9d00a1dc <__addsf3>
9d00561c:	02002821 	move	a1,s0
9d005620:	02202021 	move	a0,s1
9d005624:	0f402cfd 	jal	9d00b3f4 <.LFE10>
9d005628:	00402821 	move	a1,v0
9d00562c:	00402021 	move	a0,v0
9d005630:	0f402875 	jal	9d00a1d4 <__subsf3>
9d005634:	02002821 	move	a1,s0
9d005638:	0f402ced 	jal	9d00b3b4 <absd>
9d00563c:	00402021 	move	a0,v0
9d005640:	02002021 	move	a0,s0
9d005644:	0f402875 	jal	9d00a1d4 <__subsf3>
9d005648:	00402821 	move	a1,v0
9d00564c:	00402021 	move	a0,v0
9d005650:	0f402877 	jal	9d00a1dc <__addsf3>
9d005654:	00402821 	move	a1,v0
9d005658:	00402021 	move	a0,v0
9d00565c:	0f4029a5 	jal	9d00a694 <__divsf3>
9d005660:	8f8580a0 	lw	a1,-32608(gp)
9d005664:	00402021 	move	a0,v0
9d005668:	3c029d01 	lui	v0,0x9d01
9d00566c:	0f402875 	jal	9d00a1d4 <__subsf3>
9d005670:	8c45e0a8 	lw	a1,-8024(v0)
9d005674:	af82809c 	sw	v0,-32612(gp)
      break;
    }
    TRANS1 = amplitude*wavefunc;
9d005678:	8f8480a4 	lw	a0,-32604(gp)
9d00567c:	0f402aa2 	jal	9d00aa88 <.LFE9>
9d005680:	8f85809c 	lw	a1,-32612(gp)
9d005684:	af8280ac 	sw	v0,-32596(gp)
    TRANS2 = amplitude*wavefunc;
9d005688:	af8280a8 	sw	v0,-32600(gp)
  }
}
9d00568c:	8fbf0034 	lw	ra,52(sp)
9d005690:	8fb60030 	lw	s6,48(sp)
9d005694:	8fb5002c 	lw	s5,44(sp)
9d005698:	8fb40028 	lw	s4,40(sp)
9d00569c:	8fb30024 	lw	s3,36(sp)
9d0056a0:	8fb20020 	lw	s2,32(sp)
9d0056a4:	8fb1001c 	lw	s1,28(sp)
9d0056a8:	8fb00018 	lw	s0,24(sp)
9d0056ac:	03e00008 	jr	ra
9d0056b0:	27bd0038 	addiu	sp,sp,56

Disassembly of section .text.realloc:

9d0056b4 <realloc>:
9d0056b4:	27bdffc8 	addiu	sp,sp,-56
9d0056b8:	afbf0034 	sw	ra,52(sp)
9d0056bc:	afbe0030 	sw	s8,48(sp)
9d0056c0:	afb7002c 	sw	s7,44(sp)
9d0056c4:	afb60028 	sw	s6,40(sp)
9d0056c8:	afb50024 	sw	s5,36(sp)
9d0056cc:	afb40020 	sw	s4,32(sp)
9d0056d0:	afb3001c 	sw	s3,28(sp)
9d0056d4:	afb20018 	sw	s2,24(sp)
9d0056d8:	afb10014 	sw	s1,20(sp)
9d0056dc:	afb00010 	sw	s0,16(sp)
9d0056e0:	108000e5 	beqz	a0,9d005a78 <realloc+0x3c4>
9d0056e4:	00808021 	move	s0,a0
9d0056e8:	8c94fffc 	lw	s4,-4(a0)
9d0056ec:	24b2000b 	addiu	s2,a1,11
9d0056f0:	2e420017 	sltiu	v0,s2,23
9d0056f4:	2493fff8 	addiu	s3,a0,-8
9d0056f8:	2403fffc 	li	v1,-4
9d0056fc:	10400047 	beqz	v0,9d00581c <realloc+0x168>
9d005700:	02838824 	and	s1,s4,v1
9d005704:	24030010 	li	v1,16
9d005708:	24120010 	li	s2,16
9d00570c:	0245102b 	sltu	v0,s2,a1
9d005710:	14400045 	bnez	v0,9d005828 <realloc+0x174>
9d005714:	0223102a 	slt	v0,s1,v1
9d005718:	10400053 	beqz	v0,9d005868 <realloc+0x1b4>
9d00571c:	32950001 	andi	s5,s4,0x1
9d005720:	3c17a000 	lui	s7,0xa000
9d005724:	26f7038c 	addiu	s7,s7,908
9d005728:	8ee40008 	lw	a0,8(s7)
9d00572c:	02711021 	addu	v0,s3,s1
9d005730:	108200b6 	beq	a0,v0,9d005a0c <realloc+0x358>
9d005734:	2408fffe 	li	t0,-2
9d005738:	8c460004 	lw	a2,4(v0)
9d00573c:	00c83824 	and	a3,a2,t0
9d005740:	00473821 	addu	a3,v0,a3
9d005744:	8ce70004 	lw	a3,4(a3)
9d005748:	30e70001 	andi	a3,a3,0x1
9d00574c:	10e0005e 	beqz	a3,9d0058c8 <realloc+0x214>
9d005750:	7c060804 	ins	a2,zero,0x0,0x2
9d005754:	00003021 	move	a2,zero
9d005758:	00001021 	move	v0,zero
9d00575c:	32950001 	andi	s5,s4,0x1
9d005760:	16a00073 	bnez	s5,9d005930 <realloc+0x27c>
9d005764:	00000000 	nop
9d005768:	8e16fff8 	lw	s6,-8(s0)
9d00576c:	0276b023 	subu	s6,s3,s6
9d005770:	8ec70004 	lw	a3,4(s6)
9d005774:	104000c9 	beqz	v0,9d005a9c <realloc+0x3e8>
9d005778:	7c070804 	ins	a3,zero,0x0,0x2
9d00577c:	104400c9 	beq	v0,a0,9d005aa4 <realloc+0x3f0>
9d005780:	00f13821 	addu	a3,a3,s1
9d005784:	00c7b821 	addu	s7,a2,a3
9d005788:	02e3202a 	slt	a0,s7,v1
9d00578c:	5480008d 	bnezl	a0,9d0059c4 <realloc+0x310>
9d005790:	00e0b821 	move	s7,a3
9d005794:	8c43000c 	lw	v1,12(v0)
9d005798:	8c420008 	lw	v0,8(v0)
9d00579c:	2626fffc 	addiu	a2,s1,-4
9d0057a0:	2cc40025 	sltiu	a0,a2,37
9d0057a4:	ac43000c 	sw	v1,12(v0)
9d0057a8:	ac620008 	sw	v0,8(v1)
9d0057ac:	8ec2000c 	lw	v0,12(s6)
9d0057b0:	8ec30008 	lw	v1,8(s6)
9d0057b4:	26d40008 	addiu	s4,s6,8
9d0057b8:	ac62000c 	sw	v0,12(v1)
9d0057bc:	1080008b 	beqz	a0,9d0059ec <realloc+0x338>
9d0057c0:	ac430008 	sw	v1,8(v0)
9d0057c4:	2cc20014 	sltiu	v0,a2,20
9d0057c8:	14400009 	bnez	v0,9d0057f0 <realloc+0x13c>
9d0057cc:	02801821 	move	v1,s4
9d0057d0:	8e030000 	lw	v1,0(s0)
9d0057d4:	2cc2001c 	sltiu	v0,a2,28
9d0057d8:	aec30008 	sw	v1,8(s6)
9d0057dc:	8e030004 	lw	v1,4(s0)
9d0057e0:	104000e8 	beqz	v0,9d005b84 <realloc+0x4d0>
9d0057e4:	aec3000c 	sw	v1,12(s6)
9d0057e8:	26c30010 	addiu	v1,s6,16
9d0057ec:	26100008 	addiu	s0,s0,8
9d0057f0:	8e020000 	lw	v0,0(s0)
9d0057f4:	02e08821 	move	s1,s7
9d0057f8:	ac620000 	sw	v0,0(v1)
9d0057fc:	8e020004 	lw	v0,4(s0)
9d005800:	02c09821 	move	s3,s6
9d005804:	ac620004 	sw	v0,4(v1)
9d005808:	8e020008 	lw	v0,8(s0)
9d00580c:	ac620008 	sw	v0,8(v1)
9d005810:	8ed50004 	lw	s5,4(s6)
9d005814:	0b40161b 	j	9d00586c <realloc+0x1b8>
9d005818:	32b50001 	andi	s5,s5,0x1
9d00581c:	7c121004 	ins	s2,zero,0x0,0x3
9d005820:	0641ffba 	bgez	s2,9d00570c <realloc+0x58>
9d005824:	02401821 	move	v1,s2
9d005828:	2403000c 	li	v1,12
9d00582c:	3c02a000 	lui	v0,0xa000
9d005830:	ac430318 	sw	v1,792(v0)
9d005834:	00001021 	move	v0,zero
9d005838:	8fbf0034 	lw	ra,52(sp)
9d00583c:	8fbe0030 	lw	s8,48(sp)
9d005840:	8fb7002c 	lw	s7,44(sp)
9d005844:	8fb60028 	lw	s6,40(sp)
9d005848:	8fb50024 	lw	s5,36(sp)
9d00584c:	8fb40020 	lw	s4,32(sp)
9d005850:	8fb3001c 	lw	s3,28(sp)
9d005854:	8fb20018 	lw	s2,24(sp)
9d005858:	8fb10014 	lw	s1,20(sp)
9d00585c:	8fb00010 	lw	s0,16(sp)
9d005860:	03e00008 	jr	ra
9d005864:	27bd0038 	addiu	sp,sp,56
9d005868:	0200a021 	move	s4,s0
9d00586c:	02321823 	subu	v1,s1,s2
9d005870:	2c650010 	sltiu	a1,v1,16
9d005874:	10a00022 	beqz	a1,9d005900 <realloc+0x24c>
9d005878:	02722021 	addu	a0,s3,s2
9d00587c:	02b1a825 	or	s5,s5,s1
9d005880:	ae750004 	sw	s5,4(s3)
9d005884:	02718821 	addu	s1,s3,s1
9d005888:	8e220004 	lw	v0,4(s1)
9d00588c:	34420001 	ori	v0,v0,0x1
9d005890:	ae220004 	sw	v0,4(s1)
9d005894:	02801021 	move	v0,s4
9d005898:	8fbf0034 	lw	ra,52(sp)
9d00589c:	8fbe0030 	lw	s8,48(sp)
9d0058a0:	8fb7002c 	lw	s7,44(sp)
9d0058a4:	8fb60028 	lw	s6,40(sp)
9d0058a8:	8fb50024 	lw	s5,36(sp)
9d0058ac:	8fb40020 	lw	s4,32(sp)
9d0058b0:	8fb3001c 	lw	s3,28(sp)
9d0058b4:	8fb20018 	lw	s2,24(sp)
9d0058b8:	8fb10014 	lw	s1,20(sp)
9d0058bc:	8fb00010 	lw	s0,16(sp)
9d0058c0:	03e00008 	jr	ra
9d0058c4:	27bd0038 	addiu	sp,sp,56
9d0058c8:	00d13821 	addu	a3,a2,s1
9d0058cc:	00e3402a 	slt	t0,a3,v1
9d0058d0:	1500ffa3 	bnez	t0,9d005760 <realloc+0xac>
9d0058d4:	32950001 	andi	s5,s4,0x1
9d0058d8:	8c43000c 	lw	v1,12(v0)
9d0058dc:	8c420008 	lw	v0,8(v0)
9d0058e0:	ac43000c 	sw	v1,12(v0)
9d0058e4:	00e08821 	move	s1,a3
9d0058e8:	ac620008 	sw	v0,8(v1)
9d0058ec:	02321823 	subu	v1,s1,s2
9d0058f0:	2c650010 	sltiu	a1,v1,16
9d0058f4:	14a0ffe1 	bnez	a1,9d00587c <realloc+0x1c8>
9d0058f8:	0200a021 	move	s4,s0
9d0058fc:	02722021 	addu	a0,s3,s2
9d005900:	02b29025 	or	s2,s5,s2
9d005904:	34620001 	ori	v0,v1,0x1
9d005908:	ae720004 	sw	s2,4(s3)
9d00590c:	00831821 	addu	v1,a0,v1
9d005910:	ac820004 	sw	v0,4(a0)
9d005914:	8c620004 	lw	v0,4(v1)
9d005918:	24840008 	addiu	a0,a0,8
9d00591c:	34420001 	ori	v0,v0,0x1
9d005920:	0f402737 	jal	9d009cdc <free>
9d005924:	ac620004 	sw	v0,4(v1)
9d005928:	0b401626 	j	9d005898 <realloc+0x1e4>
9d00592c:	02801021 	move	v0,s4
9d005930:	0f40100e 	jal	9d004038 <malloc>
9d005934:	00a02021 	move	a0,a1
9d005938:	104000ad 	beqz	v0,9d005bf0 <realloc+0x53c>
9d00593c:	0040b021 	move	s6,v0
9d005940:	7c140004 	ins	s4,zero,0x0,0x1
9d005944:	2442fff8 	addiu	v0,v0,-8
9d005948:	0274a021 	addu	s4,s3,s4
9d00594c:	10540088 	beq	v0,s4,9d005b70 <realloc+0x4bc>
9d005950:	2626fffc 	addiu	a2,s1,-4
9d005954:	2cc20025 	sltiu	v0,a2,37
9d005958:	1040004b 	beqz	v0,9d005a88 <realloc+0x3d4>
9d00595c:	2cc20014 	sltiu	v0,a2,20
9d005960:	50400033 	beqzl	v0,9d005a30 <realloc+0x37c>
9d005964:	8e040000 	lw	a0,0(s0)
9d005968:	02c01021 	move	v0,s6
9d00596c:	02001821 	move	v1,s0
9d005970:	8c650000 	lw	a1,0(v1)
9d005974:	8c640004 	lw	a0,4(v1)
9d005978:	8c630008 	lw	v1,8(v1)
9d00597c:	ac450000 	sw	a1,0(v0)
9d005980:	ac440004 	sw	a0,4(v0)
9d005984:	ac430008 	sw	v1,8(v0)
9d005988:	0f402737 	jal	9d009cdc <free>
9d00598c:	02002021 	move	a0,s0
9d005990:	02c01021 	move	v0,s6
9d005994:	8fbf0034 	lw	ra,52(sp)
9d005998:	8fbe0030 	lw	s8,48(sp)
9d00599c:	8fb7002c 	lw	s7,44(sp)
9d0059a0:	8fb60028 	lw	s6,40(sp)
9d0059a4:	8fb50024 	lw	s5,36(sp)
9d0059a8:	8fb40020 	lw	s4,32(sp)
9d0059ac:	8fb3001c 	lw	s3,28(sp)
9d0059b0:	8fb20018 	lw	s2,24(sp)
9d0059b4:	8fb10014 	lw	s1,20(sp)
9d0059b8:	8fb00010 	lw	s0,16(sp)
9d0059bc:	03e00008 	jr	ra
9d0059c0:	27bd0038 	addiu	sp,sp,56
9d0059c4:	02e3182a 	slt	v1,s7,v1
9d0059c8:	1460ffd9 	bnez	v1,9d005930 <realloc+0x27c>
9d0059cc:	2626fffc 	addiu	a2,s1,-4
9d0059d0:	8ec2000c 	lw	v0,12(s6)
9d0059d4:	8ec30008 	lw	v1,8(s6)
9d0059d8:	2cc40025 	sltiu	a0,a2,37
9d0059dc:	ac62000c 	sw	v0,12(v1)
9d0059e0:	26d40008 	addiu	s4,s6,8
9d0059e4:	1480ff77 	bnez	a0,9d0057c4 <realloc+0x110>
9d0059e8:	ac430008 	sw	v1,8(v0)
9d0059ec:	02802021 	move	a0,s4
9d0059f0:	0f403551 	jal	9d00d544 <memmove>
9d0059f4:	02002821 	move	a1,s0
9d0059f8:	8ed50004 	lw	s5,4(s6)
9d0059fc:	02e08821 	move	s1,s7
9d005a00:	32b50001 	andi	s5,s5,0x1
9d005a04:	0b40161b 	j	9d00586c <realloc+0x1b8>
9d005a08:	02c09821 	move	s3,s6
9d005a0c:	8c860004 	lw	a2,4(a0)
9d005a10:	26470010 	addiu	a3,s2,16
9d005a14:	7c060804 	ins	a2,zero,0x0,0x2
9d005a18:	00d11021 	addu	v0,a2,s1
9d005a1c:	0047382a 	slt	a3,v0,a3
9d005a20:	50e0000b 	beqzl	a3,9d005a50 <realloc+0x39c>
9d005a24:	00521023 	subu	v0,v0,s2
9d005a28:	0b4015d7 	j	9d00575c <realloc+0xa8>
9d005a2c:	00801021 	move	v0,a0
9d005a30:	8e030004 	lw	v1,4(s0)
9d005a34:	2cc2001c 	sltiu	v0,a2,28
9d005a38:	aec40000 	sw	a0,0(s6)
9d005a3c:	10400042 	beqz	v0,9d005b48 <realloc+0x494>
9d005a40:	aec30004 	sw	v1,4(s6)
9d005a44:	26c20008 	addiu	v0,s6,8
9d005a48:	0b40165c 	j	9d005970 <realloc+0x2bc>
9d005a4c:	26030008 	addiu	v1,s0,8
9d005a50:	02729821 	addu	s3,s3,s2
9d005a54:	34420001 	ori	v0,v0,0x1
9d005a58:	aef30008 	sw	s3,8(s7)
9d005a5c:	ae620004 	sw	v0,4(s3)
9d005a60:	8e03fffc 	lw	v1,-4(s0)
9d005a64:	02001021 	move	v0,s0
9d005a68:	30630001 	andi	v1,v1,0x1
9d005a6c:	02439025 	or	s2,s2,v1
9d005a70:	0b401626 	j	9d005898 <realloc+0x1e4>
9d005a74:	ae12fffc 	sw	s2,-4(s0)
9d005a78:	0f40100e 	jal	9d004038 <malloc>
9d005a7c:	00a02021 	move	a0,a1
9d005a80:	0b401627 	j	9d00589c <realloc+0x1e8>
9d005a84:	8fbf0034 	lw	ra,52(sp)
9d005a88:	02c02021 	move	a0,s6
9d005a8c:	0f403551 	jal	9d00d544 <memmove>
9d005a90:	02002821 	move	a1,s0
9d005a94:	0b401662 	j	9d005988 <realloc+0x2d4>
9d005a98:	00000000 	nop
9d005a9c:	0b401671 	j	9d0059c4 <realloc+0x310>
9d005aa0:	00f1b821 	addu	s7,a3,s1
9d005aa4:	00c7f021 	addu	s8,a2,a3
9d005aa8:	26420010 	addiu	v0,s2,16
9d005aac:	03c2102a 	slt	v0,s8,v0
9d005ab0:	5440ffc4 	bnezl	v0,9d0059c4 <realloc+0x310>
9d005ab4:	00e0b821 	move	s7,a3
9d005ab8:	8ec3000c 	lw	v1,12(s6)
9d005abc:	8ec50008 	lw	a1,8(s6)
9d005ac0:	2626fffc 	addiu	a2,s1,-4
9d005ac4:	2cc20025 	sltiu	v0,a2,37
9d005ac8:	aca3000c 	sw	v1,12(a1)
9d005acc:	26c70008 	addiu	a3,s6,8
9d005ad0:	10400042 	beqz	v0,9d005bdc <realloc+0x528>
9d005ad4:	ac650008 	sw	a1,8(v1)
9d005ad8:	2cc20014 	sltiu	v0,a2,20
9d005adc:	14400009 	bnez	v0,9d005b04 <realloc+0x450>
9d005ae0:	00e01821 	move	v1,a3
9d005ae4:	8e030000 	lw	v1,0(s0)
9d005ae8:	2cc2001c 	sltiu	v0,a2,28
9d005aec:	aec30008 	sw	v1,8(s6)
9d005af0:	8e030004 	lw	v1,4(s0)
9d005af4:	10400040 	beqz	v0,9d005bf8 <realloc+0x544>
9d005af8:	aec3000c 	sw	v1,12(s6)
9d005afc:	26c30010 	addiu	v1,s6,16
9d005b00:	26100008 	addiu	s0,s0,8
9d005b04:	8e020000 	lw	v0,0(s0)
9d005b08:	ac620000 	sw	v0,0(v1)
9d005b0c:	8e020004 	lw	v0,4(s0)
9d005b10:	ac620004 	sw	v0,4(v1)
9d005b14:	8e020008 	lw	v0,8(s0)
9d005b18:	ac620008 	sw	v0,8(v1)
9d005b1c:	03d21023 	subu	v0,s8,s2
9d005b20:	02d21821 	addu	v1,s6,s2
9d005b24:	34420001 	ori	v0,v0,0x1
9d005b28:	aee30008 	sw	v1,8(s7)
9d005b2c:	ac620004 	sw	v0,4(v1)
9d005b30:	8ec30004 	lw	v1,4(s6)
9d005b34:	00e01021 	move	v0,a3
9d005b38:	30630001 	andi	v1,v1,0x1
9d005b3c:	02439025 	or	s2,s2,v1
9d005b40:	0b401626 	j	9d005898 <realloc+0x1e4>
9d005b44:	aed20004 	sw	s2,4(s6)
9d005b48:	8e030008 	lw	v1,8(s0)
9d005b4c:	8e02000c 	lw	v0,12(s0)
9d005b50:	aec30008 	sw	v1,8(s6)
9d005b54:	aec2000c 	sw	v0,12(s6)
9d005b58:	24020024 	li	v0,36
9d005b5c:	50c20013 	beql	a2,v0,9d005bac <realloc+0x4f8>
9d005b60:	8e030010 	lw	v1,16(s0)
9d005b64:	26c20010 	addiu	v0,s6,16
9d005b68:	0b40165c 	j	9d005970 <realloc+0x2bc>
9d005b6c:	26030010 	addiu	v1,s0,16
9d005b70:	8ec2fffc 	lw	v0,-4(s6)
9d005b74:	0200a021 	move	s4,s0
9d005b78:	7c020804 	ins	v0,zero,0x0,0x2
9d005b7c:	0b40161b 	j	9d00586c <realloc+0x1b8>
9d005b80:	02228821 	addu	s1,s1,v0
9d005b84:	8e020008 	lw	v0,8(s0)
9d005b88:	aec20010 	sw	v0,16(s6)
9d005b8c:	8e02000c 	lw	v0,12(s0)
9d005b90:	aec20014 	sw	v0,20(s6)
9d005b94:	24020024 	li	v0,36
9d005b98:	50c2000a 	beql	a2,v0,9d005bc4 <realloc+0x510>
9d005b9c:	8e020010 	lw	v0,16(s0)
9d005ba0:	26c30018 	addiu	v1,s6,24
9d005ba4:	0b4015fc 	j	9d0057f0 <realloc+0x13c>
9d005ba8:	26100010 	addiu	s0,s0,16
9d005bac:	8e040014 	lw	a0,20(s0)
9d005bb0:	26c20018 	addiu	v0,s6,24
9d005bb4:	aec30010 	sw	v1,16(s6)
9d005bb8:	26030018 	addiu	v1,s0,24
9d005bbc:	0b40165c 	j	9d005970 <realloc+0x2bc>
9d005bc0:	aec40014 	sw	a0,20(s6)
9d005bc4:	26c30020 	addiu	v1,s6,32
9d005bc8:	aec20018 	sw	v0,24(s6)
9d005bcc:	8e020014 	lw	v0,20(s0)
9d005bd0:	26100018 	addiu	s0,s0,24
9d005bd4:	0b4015fc 	j	9d0057f0 <realloc+0x13c>
9d005bd8:	aec2001c 	sw	v0,28(s6)
9d005bdc:	00e02021 	move	a0,a3
9d005be0:	0f403551 	jal	9d00d544 <memmove>
9d005be4:	02002821 	move	a1,s0
9d005be8:	0b4016c7 	j	9d005b1c <realloc+0x468>
9d005bec:	00403821 	move	a3,v0
9d005bf0:	0b401626 	j	9d005898 <realloc+0x1e4>
9d005bf4:	00001021 	move	v0,zero
9d005bf8:	8e020008 	lw	v0,8(s0)
9d005bfc:	aec20010 	sw	v0,16(s6)
9d005c00:	8e02000c 	lw	v0,12(s0)
9d005c04:	aec20014 	sw	v0,20(s6)
9d005c08:	24020024 	li	v0,36
9d005c0c:	50c20004 	beql	a2,v0,9d005c20 <realloc+0x56c>
9d005c10:	8e020010 	lw	v0,16(s0)
9d005c14:	26c30018 	addiu	v1,s6,24
9d005c18:	0b4016c1 	j	9d005b04 <realloc+0x450>
9d005c1c:	26100010 	addiu	s0,s0,16
9d005c20:	26c30020 	addiu	v1,s6,32
9d005c24:	aec20018 	sw	v0,24(s6)
9d005c28:	8e020014 	lw	v0,20(s0)
9d005c2c:	26100018 	addiu	s0,s0,24
9d005c30:	0b4016c1 	j	9d005b04 <realloc+0x450>
9d005c34:	aec2001c 	sw	v0,28(s6)

Disassembly of section .text._fconvert:

9d005c38 <_fconvert>:
9d005c38:	27bdfda8 	addiu	sp,sp,-600
9d005c3c:	afbf0254 	sw	ra,596(sp)
9d005c40:	afbe0250 	sw	s8,592(sp)
9d005c44:	afb7024c 	sw	s7,588(sp)
9d005c48:	afb60248 	sw	s6,584(sp)
9d005c4c:	afb50244 	sw	s5,580(sp)
9d005c50:	afb40240 	sw	s4,576(sp)
9d005c54:	afb3023c 	sw	s3,572(sp)
9d005c58:	afb20238 	sw	s2,568(sp)
9d005c5c:	afb10234 	sw	s1,564(sp)
9d005c60:	afb00230 	sw	s0,560(sp)
9d005c64:	8fb50268 	lw	s5,616(sp)
9d005c68:	afa40258 	sw	a0,600(sp)
9d005c6c:	00a02021 	move	a0,a1
9d005c70:	afa60260 	sw	a2,608(sp)
9d005c74:	00e0b821 	move	s7,a3
9d005c78:	97a3026c 	lhu	v1,620(sp)
9d005c7c:	2402ffff 	li	v0,-1
9d005c80:	12a2010c 	beq	s5,v0,9d0060b4 <_fconvert+0x47c>
9d005c84:	afa30220 	sw	v1,544(sp)
9d005c88:	2aa20028 	slti	v0,s5,40
9d005c8c:	104000a3 	beqz	v0,9d005f1c <_fconvert+0x2e4>
9d005c90:	afa00224 	sw	zero,548(sp)
9d005c94:	a3a00011 	sb	zero,17(sp)
9d005c98:	04810005 	bgez	a0,9d005cb0 <_fconvert+0x78>
9d005c9c:	afa00228 	sw	zero,552(sp)
9d005ca0:	3c028000 	lui	v0,0x8000
9d005ca4:	00442026 	xor	a0,v0,a0
9d005ca8:	2403002d 	li	v1,45
9d005cac:	afa30228 	sw	v1,552(sp)
9d005cb0:	0f40320c 	jal	9d00c830 <fpmodf>
9d005cb4:	27a5021c 	addiu	a1,sp,540
9d005cb8:	0040b021 	move	s6,v0
9d005cbc:	8fbe021c 	lw	s8,540(sp)
9d005cc0:	00002821 	move	a1,zero
9d005cc4:	0f4033f1 	jal	9d00cfc4 <__eqsf2>
9d005cc8:	03c02021 	move	a0,s8
9d005ccc:	10400119 	beqz	v0,9d006134 <_fconvert+0x4fc>
9d005cd0:	3c029d01 	lui	v0,0x9d01
9d005cd4:	3c109d01 	lui	s0,0x9d01
9d005cd8:	8e12d900 	lw	s2,-9984(s0)
9d005cdc:	8c54d904 	lw	s4,-9980(v0)
9d005ce0:	00008821 	move	s1,zero
9d005ce4:	27b00210 	addiu	s0,sp,528
9d005ce8:	02409821 	move	s3,s2
9d005cec:	03c02021 	move	a0,s8
9d005cf0:	0f4029a5 	jal	9d00a694 <__divsf3>
9d005cf4:	02402821 	move	a1,s2
9d005cf8:	00402021 	move	a0,v0
9d005cfc:	0f40320c 	jal	9d00c830 <fpmodf>
9d005d00:	27a5021c 	addiu	a1,sp,540
9d005d04:	00402021 	move	a0,v0
9d005d08:	02802821 	move	a1,s4
9d005d0c:	0f402877 	jal	9d00a1dc <__addsf3>
9d005d10:	afa20218 	sw	v0,536(sp)
9d005d14:	00402021 	move	a0,v0
9d005d18:	0f402aa2 	jal	9d00aa88 <.LFE9>
9d005d1c:	02602821 	move	a1,s3
9d005d20:	0f4034a3 	jal	9d00d28c <__fixsfsi>
9d005d24:	00402021 	move	a0,v0
9d005d28:	8fbe021c 	lw	s8,540(sp)
9d005d2c:	2610ffff 	addiu	s0,s0,-1
9d005d30:	24420030 	addiu	v0,v0,48
9d005d34:	03c02021 	move	a0,s8
9d005d38:	00002821 	move	a1,zero
9d005d3c:	a2020001 	sb	v0,1(s0)
9d005d40:	0f4033f1 	jal	9d00cfc4 <__eqsf2>
9d005d44:	26310001 	addiu	s1,s1,1
9d005d48:	1440ffe9 	bnez	v0,9d005cf0 <_fconvert+0xb8>
9d005d4c:	03c02021 	move	a0,s8
9d005d50:	24020066 	li	v0,102
9d005d54:	8fa30260 	lw	v1,608(sp)
9d005d58:	14620038 	bne	v1,v0,9d005e3c <_fconvert+0x204>
9d005d5c:	00009821 	move	s3,zero
9d005d60:	12200077 	beqz	s1,9d005f40 <_fconvert+0x308>
9d005d64:	24020030 	li	v0,48
9d005d68:	26020001 	addiu	v0,s0,1
9d005d6c:	27a50211 	addiu	a1,sp,529
9d005d70:	0045182b 	sltu	v1,v0,a1
9d005d74:	106000fd 	beqz	v1,9d00616c <_fconvert+0x534>
9d005d78:	27b20012 	addiu	s2,sp,18
9d005d7c:	02401821 	move	v1,s2
9d005d80:	80440000 	lb	a0,0(v0)
9d005d84:	24630001 	addiu	v1,v1,1
9d005d88:	24420001 	addiu	v0,v0,1
9d005d8c:	1445fffc 	bne	v0,a1,9d005d80 <_fconvert+0x148>
9d005d90:	a064ffff 	sb	a0,-1(v1)
9d005d94:	03b08023 	subu	s0,sp,s0
9d005d98:	26100210 	addiu	s0,s0,528
9d005d9c:	02508021 	addu	s0,s2,s0
9d005da0:	12a0006c 	beqz	s5,9d005f54 <_fconvert+0x31c>
9d005da4:	8fa30220 	lw	v1,544(sp)
9d005da8:	02c02021 	move	a0,s6
9d005dac:	00002821 	move	a1,zero
9d005db0:	26130001 	addiu	s3,s0,1
9d005db4:	2402002e 	li	v0,46
9d005db8:	0f4033f1 	jal	9d00cfc4 <__eqsf2>
9d005dbc:	a2020000 	sb	v0,0(s0)
9d005dc0:	104000b4 	beqz	v0,9d006094 <_fconvert+0x45c>
9d005dc4:	26a3ffff 	addiu	v1,s5,-1
9d005dc8:	3c109d01 	lui	s0,0x9d01
9d005dcc:	0b401779 	j	9d005de4 <_fconvert+0x1ac>
9d005dd0:	8e11d900 	lw	s1,-9984(s0)
9d005dd4:	0f4033f1 	jal	9d00cfc4 <__eqsf2>
9d005dd8:	00000000 	nop
9d005ddc:	104000ad 	beqz	v0,9d006094 <_fconvert+0x45c>
9d005de0:	26a3ffff 	addiu	v1,s5,-1
9d005de4:	02c02021 	move	a0,s6
9d005de8:	0f402aa2 	jal	9d00aa88 <.LFE9>
9d005dec:	02202821 	move	a1,s1
9d005df0:	00402021 	move	a0,v0
9d005df4:	0f40320c 	jal	9d00c830 <fpmodf>
9d005df8:	27a50218 	addiu	a1,sp,536
9d005dfc:	0040b021 	move	s6,v0
9d005e00:	8fa40218 	lw	a0,536(sp)
9d005e04:	26730001 	addiu	s3,s3,1
9d005e08:	0f4034a3 	jal	9d00d28c <__fixsfsi>
9d005e0c:	26b5ffff 	addiu	s5,s5,-1
9d005e10:	02c02021 	move	a0,s6
9d005e14:	00002821 	move	a1,zero
9d005e18:	24420030 	addiu	v0,v0,48
9d005e1c:	16a0ffed 	bnez	s5,9d005dd4 <_fconvert+0x19c>
9d005e20:	a262ffff 	sb	v0,-1(s3)
9d005e24:	02c02021 	move	a0,s6
9d005e28:	0f4033f1 	jal	9d00cfc4 <__eqsf2>
9d005e2c:	00002821 	move	a1,zero
9d005e30:	54400051 	bnezl	v0,9d005f78 <_fconvert+0x340>
9d005e34:	8e05d900 	lw	a1,-9984(s0)
9d005e38:	02729823 	subu	s3,s3,s2
9d005e3c:	83a40011 	lb	a0,17(sp)
9d005e40:	27a20011 	addiu	v0,sp,17
9d005e44:	27a30012 	addiu	v1,sp,18
9d005e48:	0064100a 	movz	v0,v1,a0
9d005e4c:	8fa30228 	lw	v1,552(sp)
9d005e50:	1060002a 	beqz	v1,9d005efc <_fconvert+0x2c4>
9d005e54:	8fa40220 	lw	a0,544(sp)
9d005e58:	2452ffff 	addiu	s2,v0,-1
9d005e5c:	a043ffff 	sb	v1,-1(v0)
9d005e60:	26730001 	addiu	s3,s3,1
9d005e64:	8fa30220 	lw	v1,544(sp)
9d005e68:	30710008 	andi	s1,v1,0x8
9d005e6c:	3231ffff 	andi	s1,s1,0xffff
9d005e70:	8fa30224 	lw	v1,548(sp)
9d005e74:	16200004 	bnez	s1,9d005e88 <_fconvert+0x250>
9d005e78:	02638021 	addu	s0,s3,v1
9d005e7c:	0217102a 	slt	v0,s0,s7
9d005e80:	1440005a 	bnez	v0,9d005fec <_fconvert+0x3b4>
9d005e84:	8fa30220 	lw	v1,544(sp)
9d005e88:	02402021 	move	a0,s2
9d005e8c:	02602821 	move	a1,s3
9d005e90:	0f403537 	jal	9d00d4dc <__sputn>
9d005e94:	8fa60258 	lw	a2,600(sp)
9d005e98:	2412ffff 	li	s2,-1
9d005e9c:	10520008 	beq	v0,s2,9d005ec0 <_fconvert+0x288>
9d005ea0:	8fa30224 	lw	v1,548(sp)
9d005ea4:	14600071 	bnez	v1,9d00606c <_fconvert+0x434>
9d005ea8:	8fa40258 	lw	a0,600(sp)
9d005eac:	12200005 	beqz	s1,9d005ec4 <_fconvert+0x28c>
9d005eb0:	0217102a 	slt	v0,s0,s7
9d005eb4:	0217102a 	slt	v0,s0,s7
9d005eb8:	14400081 	bnez	v0,9d0060c0 <_fconvert+0x488>
9d005ebc:	8fa40258 	lw	a0,600(sp)
9d005ec0:	0217102a 	slt	v0,s0,s7
9d005ec4:	0202b80a 	movz	s7,s0,v0
9d005ec8:	02e01021 	move	v0,s7
9d005ecc:	8fbf0254 	lw	ra,596(sp)
9d005ed0:	8fbe0250 	lw	s8,592(sp)
9d005ed4:	8fb7024c 	lw	s7,588(sp)
9d005ed8:	8fb60248 	lw	s6,584(sp)
9d005edc:	8fb50244 	lw	s5,580(sp)
9d005ee0:	8fb40240 	lw	s4,576(sp)
9d005ee4:	8fb3023c 	lw	s3,572(sp)
9d005ee8:	8fb20238 	lw	s2,568(sp)
9d005eec:	8fb10234 	lw	s1,564(sp)
9d005ef0:	8fb00230 	lw	s0,560(sp)
9d005ef4:	03e00008 	jr	ra
9d005ef8:	27bd0258 	addiu	sp,sp,600
9d005efc:	30830002 	andi	v1,a0,0x2
9d005f00:	10600052 	beqz	v1,9d00604c <_fconvert+0x414>
9d005f04:	8fa40220 	lw	a0,544(sp)
9d005f08:	2452ffff 	addiu	s2,v0,-1
9d005f0c:	2403002b 	li	v1,43
9d005f10:	a043ffff 	sb	v1,-1(v0)
9d005f14:	0b401799 	j	9d005e64 <_fconvert+0x22c>
9d005f18:	26730001 	addiu	s3,s3,1
9d005f1c:	00c01821 	move	v1,a2
9d005f20:	7c032944 	ins	v1,zero,0x5,0x1
9d005f24:	24020047 	li	v0,71
9d005f28:	1062007d 	beq	v1,v0,9d006120 <_fconvert+0x4e8>
9d005f2c:	8fa30220 	lw	v1,544(sp)
9d005f30:	26b5ffd9 	addiu	s5,s5,-39
9d005f34:	afb50224 	sw	s5,548(sp)
9d005f38:	0b401725 	j	9d005c94 <_fconvert+0x5c>
9d005f3c:	24150027 	li	s5,39
9d005f40:	a3a20012 	sb	v0,18(sp)
9d005f44:	27b00013 	addiu	s0,sp,19
9d005f48:	16a0ff97 	bnez	s5,9d005da8 <_fconvert+0x170>
9d005f4c:	27b20012 	addiu	s2,sp,18
9d005f50:	8fa30220 	lw	v1,544(sp)
9d005f54:	30620800 	andi	v0,v1,0x800
9d005f58:	14400079 	bnez	v0,9d006140 <_fconvert+0x508>
9d005f5c:	02c02021 	move	a0,s6
9d005f60:	0f4033f1 	jal	9d00cfc4 <__eqsf2>
9d005f64:	00002821 	move	a1,zero
9d005f68:	1040ffb3 	beqz	v0,9d005e38 <_fconvert+0x200>
9d005f6c:	02009821 	move	s3,s0
9d005f70:	3c109d01 	lui	s0,0x9d01
9d005f74:	8e05d900 	lw	a1,-9984(s0)
9d005f78:	02c02021 	move	a0,s6
9d005f7c:	0f402aa2 	jal	9d00aa88 <.LFE9>
9d005f80:	2670ffff 	addiu	s0,s3,-1
9d005f84:	00402021 	move	a0,v0
9d005f88:	0f40320c 	jal	9d00c830 <fpmodf>
9d005f8c:	27a50214 	addiu	a1,sp,532
9d005f90:	3c029d01 	lui	v0,0x9d01
9d005f94:	8c44d908 	lw	a0,-9976(v0)
9d005f98:	0f4033f1 	jal	9d00cfc4 <__eqsf2>
9d005f9c:	8fa50214 	lw	a1,532(sp)
9d005fa0:	2404002e 	li	a0,46
9d005fa4:	0440000b 	bltz	v0,9d005fd4 <_fconvert+0x39c>
9d005fa8:	24050030 	li	a1,48
9d005fac:	0b40178f 	j	9d005e3c <_fconvert+0x204>
9d005fb0:	02729823 	subu	s3,s3,s2
9d005fb4:	24420001 	addiu	v0,v0,1
9d005fb8:	7c021420 	seb	v0,v0
9d005fbc:	2843003a 	slti	v1,v0,58
9d005fc0:	54600068 	bnezl	v1,9d006164 <_fconvert+0x52c>
9d005fc4:	a2020000 	sb	v0,0(s0)
9d005fc8:	1212006a 	beq	s0,s2,9d006174 <_fconvert+0x53c>
9d005fcc:	a2050000 	sb	a1,0(s0)
9d005fd0:	2610ffff 	addiu	s0,s0,-1
9d005fd4:	82020000 	lb	v0,0(s0)
9d005fd8:	5444fff7 	bnel	v0,a0,9d005fb8 <_fconvert+0x380>
9d005fdc:	24420001 	addiu	v0,v0,1
9d005fe0:	8202ffff 	lb	v0,-1(s0)
9d005fe4:	0b4017ed 	j	9d005fb4 <_fconvert+0x37c>
9d005fe8:	2610ffff 	addiu	s0,s0,-1
9d005fec:	30620004 	andi	v0,v1,0x4
9d005ff0:	8fa40258 	lw	a0,600(sp)
9d005ff4:	14400045 	bnez	v0,9d00610c <_fconvert+0x4d4>
9d005ff8:	02f02823 	subu	a1,s7,s0
9d005ffc:	3c069d01 	lui	a2,0x9d01
9d006000:	0f4033a3 	jal	9d00ce8c <repl>
9d006004:	24c6d8e0 	addiu	a2,a2,-10016
9d006008:	2403ffff 	li	v1,-1
9d00600c:	1443ff9e 	bne	v0,v1,9d005e88 <_fconvert+0x250>
9d006010:	0217102a 	slt	v0,s0,s7
9d006014:	0202b80a 	movz	s7,s0,v0
9d006018:	02e01021 	move	v0,s7
9d00601c:	8fbf0254 	lw	ra,596(sp)
9d006020:	8fbe0250 	lw	s8,592(sp)
9d006024:	8fb7024c 	lw	s7,588(sp)
9d006028:	8fb60248 	lw	s6,584(sp)
9d00602c:	8fb50244 	lw	s5,580(sp)
9d006030:	8fb40240 	lw	s4,576(sp)
9d006034:	8fb3023c 	lw	s3,572(sp)
9d006038:	8fb20238 	lw	s2,568(sp)
9d00603c:	8fb10234 	lw	s1,564(sp)
9d006040:	8fb00230 	lw	s0,560(sp)
9d006044:	03e00008 	jr	ra
9d006048:	27bd0258 	addiu	sp,sp,600
9d00604c:	30830001 	andi	v1,a0,0x1
9d006050:	1060ff84 	beqz	v1,9d005e64 <_fconvert+0x22c>
9d006054:	00409021 	move	s2,v0
9d006058:	2452ffff 	addiu	s2,v0,-1
9d00605c:	24030020 	li	v1,32
9d006060:	a043ffff 	sb	v1,-1(v0)
9d006064:	0b401799 	j	9d005e64 <_fconvert+0x22c>
9d006068:	26730001 	addiu	s3,s3,1
9d00606c:	8fa50224 	lw	a1,548(sp)
9d006070:	3c069d01 	lui	a2,0x9d01
9d006074:	0f4033a3 	jal	9d00ce8c <repl>
9d006078:	24c6d8c0 	addiu	a2,a2,-10048
9d00607c:	1052ff91 	beq	v0,s2,9d005ec4 <_fconvert+0x28c>
9d006080:	0217102a 	slt	v0,s0,s7
9d006084:	5620ff8c 	bnezl	s1,9d005eb8 <_fconvert+0x280>
9d006088:	0217102a 	slt	v0,s0,s7
9d00608c:	0b4017b2 	j	9d005ec8 <_fconvert+0x290>
9d006090:	0202b80a 	movz	s7,s0,v0
9d006094:	24630001 	addiu	v1,v1,1
9d006098:	02631821 	addu	v1,s3,v1
9d00609c:	24020030 	li	v0,48
9d0060a0:	26730001 	addiu	s3,s3,1
9d0060a4:	1663fffe 	bne	s3,v1,9d0060a0 <_fconvert+0x468>
9d0060a8:	a262ffff 	sb	v0,-1(s3)
9d0060ac:	0b40178f 	j	9d005e3c <_fconvert+0x204>
9d0060b0:	02729823 	subu	s3,s3,s2
9d0060b4:	afa00224 	sw	zero,548(sp)
9d0060b8:	0b401725 	j	9d005c94 <_fconvert+0x5c>
9d0060bc:	24150006 	li	s5,6
9d0060c0:	02f02823 	subu	a1,s7,s0
9d0060c4:	3c069d01 	lui	a2,0x9d01
9d0060c8:	0f4033a3 	jal	9d00ce8c <repl>
9d0060cc:	24c6d8e0 	addiu	a2,a2,-10016
9d0060d0:	0217102a 	slt	v0,s0,s7
9d0060d4:	0202b80a 	movz	s7,s0,v0
9d0060d8:	02e01021 	move	v0,s7
9d0060dc:	8fbf0254 	lw	ra,596(sp)
9d0060e0:	8fbe0250 	lw	s8,592(sp)
9d0060e4:	8fb7024c 	lw	s7,588(sp)
9d0060e8:	8fb60248 	lw	s6,584(sp)
9d0060ec:	8fb50244 	lw	s5,580(sp)
9d0060f0:	8fb40240 	lw	s4,576(sp)
9d0060f4:	8fb3023c 	lw	s3,572(sp)
9d0060f8:	8fb20238 	lw	s2,568(sp)
9d0060fc:	8fb10234 	lw	s1,564(sp)
9d006100:	8fb00230 	lw	s0,560(sp)
9d006104:	03e00008 	jr	ra
9d006108:	27bd0258 	addiu	sp,sp,600
9d00610c:	3c069d01 	lui	a2,0x9d01
9d006110:	0f4033a3 	jal	9d00ce8c <repl>
9d006114:	24c6d8c0 	addiu	a2,a2,-10048
9d006118:	0b401803 	j	9d00600c <_fconvert+0x3d4>
9d00611c:	2403ffff 	li	v1,-1
9d006120:	30620800 	andi	v0,v1,0x800
9d006124:	5440ff83 	bnezl	v0,9d005f34 <_fconvert+0x2fc>
9d006128:	26b5ffd9 	addiu	s5,s5,-39
9d00612c:	0b401725 	j	9d005c94 <_fconvert+0x5c>
9d006130:	24150027 	li	s5,39
9d006134:	00008821 	move	s1,zero
9d006138:	0b401754 	j	9d005d50 <_fconvert+0x118>
9d00613c:	27b00210 	addiu	s0,sp,528
9d006140:	00002821 	move	a1,zero
9d006144:	26130001 	addiu	s3,s0,1
9d006148:	2402002e 	li	v0,46
9d00614c:	0f4033f1 	jal	9d00cfc4 <__eqsf2>
9d006150:	a2020000 	sb	v0,0(s0)
9d006154:	5440ff87 	bnezl	v0,9d005f74 <_fconvert+0x33c>
9d006158:	3c109d01 	lui	s0,0x9d01
9d00615c:	0b40178f 	j	9d005e3c <_fconvert+0x204>
9d006160:	02729823 	subu	s3,s3,s2
9d006164:	0b40178f 	j	9d005e3c <_fconvert+0x204>
9d006168:	02729823 	subu	s3,s3,s2
9d00616c:	0b401768 	j	9d005da0 <_fconvert+0x168>
9d006170:	02408021 	move	s0,s2
9d006174:	24020031 	li	v0,49
9d006178:	a3a20011 	sb	v0,17(sp)
9d00617c:	27b20011 	addiu	s2,sp,17
9d006180:	0b40178f 	j	9d005e3c <_fconvert+0x204>
9d006184:	02729823 	subu	s3,s3,s2

Disassembly of section .text.dp32mul:

9d006188 <__divdf3>:
9d006188:	00055040 000a5542 00054ac0 00047d42     @P..BU...J..B}..
9d006198:	012f4825 000442c0 3c0e8000 012e4825     %H/..B.....<%H..
9d0061a8:	00076840 000d6d42 000762c0 00067d42     @h..Bm...b..B}..
9d0061b8:	018f6025 00065ac0 018e6025 00a72826     %`...Z..%`..&(..
9d0061c8:	00ae2824 254fffff 2de107fe 102000cb     $(....O%...-.. .
9d0061d8:	00000000                                ....

9d0061dc <Dlab1>:
9d0061dc:	25afffff 	addiu	t7,t5,-1
9d0061e0:	2de107fe 	sltiu	at,t7,2046
9d0061e4:	102000f4 	beqz	at,9d0065b8 <DspecB>
9d0061e8:	00000000 	nop

9d0061ec <Dlab2>:
9d0061ec:	014d5023 	subu	t2,t2,t5
9d0061f0:	254a03ff 	addiu	t2,t2,1023
9d0061f4:	00084042 	srl	t0,t0,0x1
9d0061f8:	00097fc0 	sll	t7,t1,0x1f
9d0061fc:	010f4025 	or	t0,t0,t7
9d006200:	00094842 	srl	t1,t1,0x1
9d006204:	000c3c02 	srl	a3,t4,0x10
9d006208:	00e001f4 	teq	a3,zero,0x7
9d00620c:	0127001b 	divu	zero,t1,a3
9d006210:	00007012 	mflo	t6
9d006214:	00004810 	mfhi	t1
9d006218:	3186ffff 	andi	a2,t4,0xffff
9d00621c:	00ce0019 	multu	a2,t6
9d006220:	00002012 	mflo	a0
9d006224:	00094c00 	sll	t1,t1,0x10
9d006228:	00087c02 	srl	t7,t0,0x10
9d00622c:	012f4825 	or	t1,t1,t7
9d006230:	0124782b 	sltu	t7,t1,a0
9d006234:	11e00006 	beqz	t7,9d006250 <i20>
9d006238:	01244823 	subu	t1,t1,a0

9d00623c <b21>:
9d00623c:	25ceffff 	addiu	t6,t6,-1
9d006240:	012c4821 	addu	t1,t1,t4
9d006244:	012c082b 	sltu	at,t1,t4
9d006248:	1020fffc 	beqz	at,9d00623c <b21>
9d00624c:	00000000 	nop

9d006250 <i20>:
9d006250:	00e001f4 	teq	a3,zero,0x7
9d006254:	0127001b 	divu	zero,t1,a3
9d006258:	00003812 	mflo	a3
9d00625c:	00004810 	mfhi	t1
9d006260:	00c70019 	multu	a2,a3
9d006264:	00002012 	mflo	a0
9d006268:	00094c00 	sll	t1,t1,0x10
9d00626c:	310fffff 	andi	t7,t0,0xffff
9d006270:	012f4825 	or	t1,t1,t7
9d006274:	0124782b 	sltu	t7,t1,a0
9d006278:	11e00006 	beqz	t7,9d006294 <i22>
9d00627c:	01244823 	subu	t1,t1,a0

9d006280 <b23>:
9d006280:	24e7ffff 	addiu	a3,a3,-1
9d006284:	012c4821 	addu	t1,t1,t4
9d006288:	012c082b 	sltu	at,t1,t4
9d00628c:	1020fffc 	beqz	at,9d006280 <b23>
9d006290:	00000000 	nop

9d006294 <i22>:
9d006294:	000e7400 	sll	t6,t6,0x10
9d006298:	01c77021 	addu	t6,t6,a3
9d00629c:	01cb0019 	multu	t6,t3
9d0062a0:	00003812 	mflo	a3
9d0062a4:	00002010 	mfhi	a0
9d0062a8:	24080000 	li	t0,0
9d0062ac:	0107782b 	sltu	t7,t0,a3
9d0062b0:	01074023 	subu	t0,t0,a3
9d0062b4:	012f102b 	sltu	v0,t1,t7
9d0062b8:	012f4823 	subu	t1,t1,t7
9d0062bc:	0124782b 	sltu	t7,t1,a0
9d0062c0:	01e27825 	or	t7,t7,v0
9d0062c4:	11e0000b 	beqz	t7,9d0062f4 <i24>
9d0062c8:	01244823 	subu	t1,t1,a0

9d0062cc <Dlab3>:
9d0062cc:	25ceffff 	addiu	t6,t6,-1
9d0062d0:	010b4021 	addu	t0,t0,t3
9d0062d4:	010b782b 	sltu	t7,t0,t3
9d0062d8:	012c4821 	addu	t1,t1,t4
9d0062dc:	012f4821 	addu	t1,t1,t7
9d0062e0:	112c0002 	beq	t1,t4,9d0062ec <L31>
9d0062e4:	00000000 	nop
9d0062e8:	012c782b 	sltu	t7,t1,t4

9d0062ec <L31>:
9d0062ec:	11e0fff7 	beqz	t7,9d0062cc <Dlab3>
9d0062f0:	00000000 	nop

9d0062f4 <i24>:
9d0062f4:	152c0006 	bne	t1,t4,9d006310 <i25>
9d0062f8:	00000000 	nop
9d0062fc:	000b2025 	or	a0,zero,t3
9d006300:	00084825 	or	t1,zero,t0
9d006304:	240d0000 	li	t5,0
9d006308:	1000002a 	b	9d0063b4 <e25>
9d00630c:	000d3825 	or	a3,zero,t5

9d006310 <i25>:
9d006310:	000c3c02 	srl	a3,t4,0x10
9d006314:	00e001f4 	teq	a3,zero,0x7
9d006318:	0127001b 	divu	zero,t1,a3
9d00631c:	00006812 	mflo	t5
9d006320:	00004810 	mfhi	t1
9d006324:	3186ffff 	andi	a2,t4,0xffff
9d006328:	00cd0019 	multu	a2,t5
9d00632c:	00002012 	mflo	a0
9d006330:	00094c00 	sll	t1,t1,0x10
9d006334:	00087c02 	srl	t7,t0,0x10
9d006338:	012f4825 	or	t1,t1,t7
9d00633c:	0124782b 	sltu	t7,t1,a0
9d006340:	11e00006 	beqz	t7,9d00635c <i26>
9d006344:	01244823 	subu	t1,t1,a0

9d006348 <b27>:
9d006348:	25adffff 	addiu	t5,t5,-1
9d00634c:	012c4821 	addu	t1,t1,t4
9d006350:	012c082b 	sltu	at,t1,t4
9d006354:	1020fffc 	beqz	at,9d006348 <b27>
9d006358:	00000000 	nop

9d00635c <i26>:
9d00635c:	00e001f4 	teq	a3,zero,0x7
9d006360:	0127001b 	divu	zero,t1,a3
9d006364:	00003812 	mflo	a3
9d006368:	00004810 	mfhi	t1
9d00636c:	00c70019 	multu	a2,a3
9d006370:	00002012 	mflo	a0
9d006374:	00094c00 	sll	t1,t1,0x10
9d006378:	310fffff 	andi	t7,t0,0xffff
9d00637c:	012f4825 	or	t1,t1,t7
9d006380:	0124782b 	sltu	t7,t1,a0
9d006384:	11e00006 	beqz	t7,9d0063a0 <i28>
9d006388:	01244823 	subu	t1,t1,a0

9d00638c <b29>:
9d00638c:	24e7ffff 	addiu	a3,a3,-1
9d006390:	012c4821 	addu	t1,t1,t4
9d006394:	012c082b 	sltu	at,t1,t4
9d006398:	1020fffc 	beqz	at,9d00638c <b29>
9d00639c:	00000000 	nop

9d0063a0 <i28>:
9d0063a0:	000d6c00 	sll	t5,t5,0x10
9d0063a4:	01a76821 	addu	t5,t5,a3
9d0063a8:	01ab0019 	multu	t5,t3
9d0063ac:	00003812 	mflo	a3
9d0063b0:	00002010 	mfhi	a0

9d0063b4 <e25>:
9d0063b4:	24080000 	li	t0,0
9d0063b8:	0107782b 	sltu	t7,t0,a3
9d0063bc:	01074023 	subu	t0,t0,a3
9d0063c0:	012f102b 	sltu	v0,t1,t7
9d0063c4:	012f4823 	subu	t1,t1,t7
9d0063c8:	0124782b 	sltu	t7,t1,a0
9d0063cc:	01e27825 	or	t7,t7,v0
9d0063d0:	11e0000b 	beqz	t7,9d006400 <i30>
9d0063d4:	01244823 	subu	t1,t1,a0

9d0063d8 <Dlab4>:
9d0063d8:	25adffff 	addiu	t5,t5,-1
9d0063dc:	010b4021 	addu	t0,t0,t3
9d0063e0:	010b782b 	sltu	t7,t0,t3
9d0063e4:	012c4821 	addu	t1,t1,t4
9d0063e8:	012f4821 	addu	t1,t1,t7
9d0063ec:	112c0002 	beq	t1,t4,9d0063f8 <L32>
9d0063f0:	00000000 	nop
9d0063f4:	012c782b 	sltu	t7,t1,t4

9d0063f8 <L32>:
9d0063f8:	11e0fff7 	beqz	t7,9d0063d8 <Dlab4>
9d0063fc:	00000000 	nop

9d006400 <i30>:
9d006400:	05c00006 	bltz	t6,9d00641c <i31>
9d006404:	00000000 	nop
9d006408:	01a0782a 	slt	t7,t5,zero
9d00640c:	01ad6821 	addu	t5,t5,t5
9d006410:	01ce7021 	addu	t6,t6,t6
9d006414:	01cf7021 	addu	t6,t6,t7
9d006418:	254affff 	addiu	t2,t2,-1

9d00641c <i31>:
9d00641c:	01287825 	or	t7,t1,t0
9d006420:	11e00002 	beqz	t7,9d00642c <i32>
9d006424:	00000000 	nop
9d006428:	35ad0001 	ori	t5,t5,0x1

9d00642c <i32>:
9d00642c:	000e4825 	or	t1,zero,t6
9d006430:	000d4025 	or	t0,zero,t5
9d006434:	254fffff 	addiu	t7,t2,-1
9d006438:	2de107fe 	sltiu	at,t7,2046
9d00643c:	10200015 	beqz	at,9d006494 <Doveund>
9d006440:	00000000 	nop
9d006444:	25080400 	addiu	t0,t0,1024
9d006448:	2d0f0400 	sltiu	t7,t0,1024
9d00644c:	012f4821 	addu	t1,t1,t7
9d006450:	012f782b 	sltu	t7,t1,t7
9d006454:	014f5021 	addu	t2,t2,t7

9d006458 <Dlab8>:
9d006458:	00087ac2 	srl	t7,t0,0xb
9d00645c:	31ef0001 	andi	t7,t7,0x1
9d006460:	010f4023 	subu	t0,t0,t7
9d006464:	000822c2 	srl	a0,t0,0xb
9d006468:	00097d40 	sll	t7,t1,0x15
9d00646c:	008f2025 	or	a0,a0,t7
9d006470:	00097840 	sll	t7,t1,0x1
9d006474:	000f7b02 	srl	t7,t7,0xc
9d006478:	00af2825 	or	a1,a1,t7
9d00647c:	000a7d00 	sll	t7,t2,0x14
9d006480:	00af2825 	or	a1,a1,t7

9d006484 <Dret>:
9d006484:	00041025 	or	v0,zero,a0
9d006488:	00051825 	or	v1,zero,a1

9d00648c <D999>:
9d00648c:	03e00008 	jr	ra
9d006490:	00000000 	nop

9d006494 <Doveund>:
9d006494:	1d400044 	bgtz	t2,9d0065a8 <Dinf>
9d006498:	00000000 	nop
9d00649c:	240e0001 	li	t6,1
9d0064a0:	01ca7023 	subu	t6,t6,t2

9d0064a4 <L33>:
9d0064a4:	2dc10020 	sltiu	at,t6,32
9d0064a8:	14200007 	bnez	at,9d0064c8 <L34>
9d0064ac:	00000000 	nop
9d0064b0:	21ceffe0 	addi	t6,t6,-32
9d0064b4:	0008202b 	sltu	a0,zero,t0
9d0064b8:	1009000d 	beq	zero,t1,9d0064f0 <L35>
9d0064bc:	01244025 	or	t0,t1,a0
9d0064c0:	1000fff8 	b	9d0064a4 <L33>
9d0064c4:	34090000 	li	t1,0x0

9d0064c8 <L34>:
9d0064c8:	11c00009 	beqz	t6,9d0064f0 <L35>
9d0064cc:	00000000 	nop
9d0064d0:	000e3022 	neg	a2,t6
9d0064d4:	00c82004 	sllv	a0,t0,a2
9d0064d8:	00c93004 	sllv	a2,t1,a2
9d0064dc:	01c84006 	srlv	t0,t0,t6
9d0064e0:	01c94806 	srlv	t1,t1,t6
9d0064e4:	10800002 	beqz	a0,9d0064f0 <L35>
9d0064e8:	00c84025 	or	t0,a2,t0
9d0064ec:	35080002 	ori	t0,t0,0x2

9d0064f0 <L35>:
9d0064f0:	25080400 	addiu	t0,t0,1024
9d0064f4:	2d0f0400 	sltiu	t7,t0,1024
9d0064f8:	012f4821 	addu	t1,t1,t7
9d0064fc:	1000ffd6 	b	9d006458 <Dlab8>
9d006500:	000957c2 	srl	t2,t1,0x1f

9d006504 <DspecA>:
9d006504:	0100782a 	slt	t7,t0,zero
9d006508:	01084021 	addu	t0,t0,t0
9d00650c:	01294821 	addu	t1,t1,t1
9d006510:	15400017 	bnez	t2,9d006570 <i33>
9d006514:	012f4821 	addu	t1,t1,t7
9d006518:	01287825 	or	t7,t1,t0
9d00651c:	11e00014 	beqz	t7,9d006570 <i33>
9d006520:	00000000 	nop
9d006524:	15200008 	bnez	t1,9d006548 <L36>
9d006528:	00000000 	nop
9d00652c:	15000003 	bnez	t0,9d00653c <L37>
9d006530:	00000000 	nop
9d006534:	1000ff29 	b	9d0061dc <Dlab1>
9d006538:	240a0000 	li	t2,0

9d00653c <L37>:
9d00653c:	01004825 	move	t1,t0
9d006540:	24080000 	li	t0,0
9d006544:	254affe0 	addiu	t2,t2,-32

9d006548 <L36>:
9d006548:	712e7020 	clz	t6,t1
9d00654c:	11c0ff23 	beqz	t6,9d0061dc <Dlab1>
9d006550:	00000000 	nop
9d006554:	014e5023 	subu	t2,t2,t6
9d006558:	000e3022 	neg	a2,t6
9d00655c:	00c83006 	srlv	a2,t0,a2
9d006560:	01c84004 	sllv	t0,t0,t6
9d006564:	01c94804 	sllv	t1,t1,t6
9d006568:	1000ff1c 	b	9d0061dc <Dlab1>
9d00656c:	01264825 	or	t1,t1,a2

9d006570 <i33>:
9d006570:	154d0005 	bne	t2,t5,9d006588 <i35>
9d006574:	00000000 	nop
9d006578:	000c7840 	sll	t7,t4,0x1
9d00657c:	01eb7825 	or	t7,t7,t3
9d006580:	11e0002b 	beqz	t7,9d006630 <Dnan>
9d006584:	00000000 	nop

9d006588 <i35>:
9d006588:	240107ff 	li	at,2047
9d00658c:	11a1000a 	beq	t5,at,9d0065b8 <DspecB>
9d006590:	00000000 	nop
9d006594:	1140ffbb 	beqz	t2,9d006484 <Dret>
9d006598:	00000000 	nop
9d00659c:	01287825 	or	t7,t1,t0
9d0065a0:	15e00023 	bnez	t7,9d006630 <Dnan>
9d0065a4:	00000000 	nop

9d0065a8 <Dinf>:
9d0065a8:	3c017ff0 	lui	at,0x7ff0
9d0065ac:	00a12825 	or	a1,a1,at
9d0065b0:	1000ffb4 	b	9d006484 <Dret>
9d0065b4:	24040000 	li	a0,0

9d0065b8 <DspecB>:
9d0065b8:	0160782a 	slt	t7,t3,zero
9d0065bc:	016b5821 	addu	t3,t3,t3
9d0065c0:	018c6021 	addu	t4,t4,t4
9d0065c4:	15a00017 	bnez	t5,9d006624 <i36>
9d0065c8:	018f6021 	addu	t4,t4,t7
9d0065cc:	018b7825 	or	t7,t4,t3
9d0065d0:	11e0fff5 	beqz	t7,9d0065a8 <Dinf>
9d0065d4:	00000000 	nop
9d0065d8:	15800008 	bnez	t4,9d0065fc <L39>
9d0065dc:	00000000 	nop
9d0065e0:	15600003 	bnez	t3,9d0065f0 <L40>
9d0065e4:	00000000 	nop
9d0065e8:	1000ff00 	b	9d0061ec <Dlab2>
9d0065ec:	240d0000 	li	t5,0

9d0065f0 <L40>:
9d0065f0:	01606025 	move	t4,t3
9d0065f4:	240b0000 	li	t3,0
9d0065f8:	25adffe0 	addiu	t5,t5,-32

9d0065fc <L39>:
9d0065fc:	718e7020 	clz	t6,t4
9d006600:	11c0fefa 	beqz	t6,9d0061ec <Dlab2>
9d006604:	00000000 	nop
9d006608:	01ae6823 	subu	t5,t5,t6
9d00660c:	000e3022 	neg	a2,t6
9d006610:	00cb3006 	srlv	a2,t3,a2
9d006614:	01cb5804 	sllv	t3,t3,t6
9d006618:	01cc6004 	sllv	t4,t4,t6
9d00661c:	1000fef3 	b	9d0061ec <Dlab2>
9d006620:	01866025 	or	t4,t4,a2

9d006624 <i36>:
9d006624:	018b7825 	or	t7,t4,t3
9d006628:	11e00002 	beqz	t7,9d006634 <i38>
9d00662c:	00000000 	nop

9d006630 <Dnan>:
9d006630:	3c05fff8 	lui	a1,0xfff8

9d006634 <i38>:
9d006634:	1000ff93 	b	9d006484 <Dret>
9d006638:	24040000 	li	a0,0
9d00663c:	00000000 	nop

Disassembly of section .text:

9d006640 <__divdi3>:
9d006640:	04a00052 	bltz	a1,9d00678c <.LBE15+0x38>
9d006644:	00004821 	move	t1,zero
9d006648:	04e20057 	bltzl	a3,9d0067a8 <.LBE15+0x54>
9d00664c:	00063023 	negu	a2,a2

9d006650 <.LBB13>:
9d006650:	00c04021 	move	t0,a2
9d006654:	00805021 	move	t2,a0
9d006658:	14e00046 	bnez	a3,9d006774 <.LBE15+0x20>
9d00665c:	00a01821 	move	v1,a1
9d006660:	00a6102b 	sltu	v0,a1,a2
9d006664:	1040005d 	beqz	v0,9d0067dc <.LBE15+0x88>
9d006668:	70c21020 	clz	v0,a2
9d00666c:	50400008 	beqzl	v0,9d006690 <.LBB15+0x4>
9d006670:	00082c02 	srl	a1,t0,0x10
9d006674:	00022023 	negu	a0,v0
9d006678:	008a2006 	srlv	a0,t2,a0
9d00667c:	00451804 	sllv	v1,a1,v0
9d006680:	00464004 	sllv	t0,a2,v0
9d006684:	00831825 	or	v1,a0,v1
9d006688:	004a5004 	sllv	t2,t2,v0

9d00668c <.LBB15>:
9d00668c:	00082c02 	srl	a1,t0,0x10
9d006690:	0065001b 	divu	zero,v1,a1
9d006694:	00a001f4 	teq	a1,zero,0x7
9d006698:	00006010 	mfhi	t4
9d00669c:	00005812 	mflo	t3
9d0066a0:	3107ffff 	andi	a3,t0,0xffff
9d0066a4:	000a2402 	srl	a0,t2,0x10
9d0066a8:	00001012 	mflo	v0
9d0066ac:	71673002 	mul	a2,t3,a3
9d0066b0:	000c6400 	sll	t4,t4,0x10
9d0066b4:	01842025 	or	a0,t4,a0
9d0066b8:	0086602b 	sltu	t4,a0,a2
9d0066bc:	0065001b 	divu	zero,v1,a1
9d0066c0:	00a001f4 	teq	a1,zero,0x7
9d0066c4:	1180000b 	beqz	t4,9d0066f4 <.LBB15+0x68>
9d0066c8:	00861823 	subu	v1,a0,a2
9d0066cc:	00882021 	addu	a0,a0,t0
9d0066d0:	0088182b 	sltu	v1,a0,t0
9d0066d4:	14600006 	bnez	v1,9d0066f0 <.LBB15+0x64>
9d0066d8:	2562ffff 	addiu	v0,t3,-1
9d0066dc:	0086182b 	sltu	v1,a0,a2
9d0066e0:	10600004 	beqz	v1,9d0066f4 <.LBB15+0x68>
9d0066e4:	00861823 	subu	v1,a0,a2
9d0066e8:	2562fffe 	addiu	v0,t3,-2
9d0066ec:	00882021 	addu	a0,a0,t0
9d0066f0:	00861823 	subu	v1,a0,a2
9d0066f4:	314affff 	andi	t2,t2,0xffff
9d0066f8:	0065001b 	divu	zero,v1,a1
9d0066fc:	00a001f4 	teq	a1,zero,0x7
9d006700:	00005810 	mfhi	t3
9d006704:	00003012 	mflo	a2
9d006708:	00002012 	mflo	a0
9d00670c:	70c73802 	mul	a3,a2,a3
9d006710:	000b5c00 	sll	t3,t3,0x10
9d006714:	016a5025 	or	t2,t3,t2
9d006718:	0147582b 	sltu	t3,t2,a3
9d00671c:	0065001b 	divu	zero,v1,a1
9d006720:	00a001f4 	teq	a1,zero,0x7
9d006724:	51600009 	beqzl	t3,9d00674c <.LBB15+0xc0>
9d006728:	00021400 	sll	v0,v0,0x10
9d00672c:	01485021 	addu	t2,t2,t0
9d006730:	0148402b 	sltu	t0,t2,t0
9d006734:	15000004 	bnez	t0,9d006748 <.LBB15+0xbc>
9d006738:	24c4ffff 	addiu	a0,a2,-1
9d00673c:	0147382b 	sltu	a3,t2,a3
9d006740:	24c6fffe 	addiu	a2,a2,-2
9d006744:	00c7200b 	movn	a0,a2,a3
9d006748:	00021400 	sll	v0,v0,0x10
9d00674c:	00821025 	or	v0,a0,v0
9d006750:	00001821 	move	v1,zero

9d006754 <.LBE15>:
9d006754:	11200005 	beqz	t1,9d00676c <.LBE15+0x18>
9d006758:	00000000 	nop
9d00675c:	00021023 	negu	v0,v0
9d006760:	0002202b 	sltu	a0,zero,v0
9d006764:	00031823 	negu	v1,v1
9d006768:	00641823 	subu	v1,v1,a0
9d00676c:	03e00008 	jr	ra
9d006770:	00000000 	nop
9d006774:	00a7102b 	sltu	v0,a1,a3
9d006778:	10400010 	beqz	v0,9d0067bc <.LBE15+0x68>
9d00677c:	70e84020 	clz	t0,a3
9d006780:	00001821 	move	v1,zero
9d006784:	0b4019d5 	j	9d006754 <.LBE15>
9d006788:	00001021 	move	v0,zero
9d00678c:	00042023 	negu	a0,a0
9d006790:	0004102b 	sltu	v0,zero,a0
9d006794:	00052823 	negu	a1,a1
9d006798:	00a22823 	subu	a1,a1,v0
9d00679c:	04e1ffac 	bgez	a3,9d006650 <.LBB13>
9d0067a0:	2409ffff 	li	t1,-1
9d0067a4:	00063023 	negu	a2,a2
9d0067a8:	0006102b 	sltu	v0,zero,a2
9d0067ac:	00073823 	negu	a3,a3
9d0067b0:	00094827 	nor	t1,zero,t1
9d0067b4:	0b401994 	j	9d006650 <.LBB13>
9d0067b8:	00e23823 	subu	a3,a3,v0
9d0067bc:	1500007e 	bnez	t0,9d0069b8 <.LBE16+0xf8>
9d0067c0:	24020020 	li	v0,32
9d0067c4:	00e5282b 	sltu	a1,a3,a1
9d0067c8:	14a000c6 	bnez	a1,9d006ae4 <.LBE23+0x34>
9d0067cc:	00001821 	move	v1,zero
9d0067d0:	0086102b 	sltu	v0,a0,a2
9d0067d4:	0b4019d5 	j	9d006754 <.LBE15>
9d0067d8:	38420001 	xori	v0,v0,0x1
9d0067dc:	14c00006 	bnez	a2,9d0067f8 <.LBE15+0xa4>
9d0067e0:	71021020 	clz	v0,t0
9d0067e4:	24080001 	li	t0,1
9d0067e8:	0107001b 	divu	zero,t0,a3
9d0067ec:	00e001f4 	teq	a3,zero,0x7
9d0067f0:	00004012 	mflo	t0
9d0067f4:	71021020 	clz	v0,t0
9d0067f8:	54400033 	bnezl	v0,9d0068c8 <.LBE16+0x8>
9d0067fc:	00484004 	sllv	t0,t0,v0
9d006800:	00a82023 	subu	a0,a1,t0
9d006804:	00083c02 	srl	a3,t0,0x10
9d006808:	310cffff 	andi	t4,t0,0xffff
9d00680c:	24030001 	li	v1,1

9d006810 <.LBB16>:
9d006810:	000a3402 	srl	a2,t2,0x10
9d006814:	0087001b 	divu	zero,a0,a3
9d006818:	00e001f4 	teq	a3,zero,0x7
9d00681c:	00007010 	mfhi	t6
9d006820:	00006812 	mflo	t5
9d006824:	00001012 	mflo	v0
9d006828:	71ac5802 	mul	t3,t5,t4
9d00682c:	000e7400 	sll	t6,t6,0x10
9d006830:	01c63025 	or	a2,t6,a2
9d006834:	00cb702b 	sltu	t6,a2,t3
9d006838:	0087001b 	divu	zero,a0,a3
9d00683c:	00e001f4 	teq	a3,zero,0x7
9d006840:	11c00009 	beqz	t6,9d006868 <.LBB16+0x58>
9d006844:	00cb2823 	subu	a1,a2,t3
9d006848:	00c83021 	addu	a2,a2,t0
9d00684c:	00c8202b 	sltu	a0,a2,t0
9d006850:	14800004 	bnez	a0,9d006864 <.LBB16+0x54>
9d006854:	25a2ffff 	addiu	v0,t5,-1
9d006858:	00cb202b 	sltu	a0,a2,t3
9d00685c:	548000a3 	bnezl	a0,9d006aec <.LBE23+0x3c>
9d006860:	25a2fffe 	addiu	v0,t5,-2
9d006864:	00cb2823 	subu	a1,a2,t3
9d006868:	314affff 	andi	t2,t2,0xffff
9d00686c:	00a7001b 	divu	zero,a1,a3
9d006870:	00e001f4 	teq	a3,zero,0x7
9d006874:	00005810 	mfhi	t3
9d006878:	00003012 	mflo	a2
9d00687c:	00002012 	mflo	a0
9d006880:	70cc6002 	mul	t4,a2,t4
9d006884:	000b5c00 	sll	t3,t3,0x10
9d006888:	016a5025 	or	t2,t3,t2
9d00688c:	014c582b 	sltu	t3,t2,t4
9d006890:	00a7001b 	divu	zero,a1,a3
9d006894:	00e001f4 	teq	a3,zero,0x7
9d006898:	51600009 	beqzl	t3,9d0068c0 <.LBE16>
9d00689c:	00021400 	sll	v0,v0,0x10
9d0068a0:	01485021 	addu	t2,t2,t0
9d0068a4:	0148402b 	sltu	t0,t2,t0
9d0068a8:	15000004 	bnez	t0,9d0068bc <.LBB16+0xac>
9d0068ac:	24c4ffff 	addiu	a0,a2,-1
9d0068b0:	014c502b 	sltu	t2,t2,t4
9d0068b4:	24c6fffe 	addiu	a2,a2,-2
9d0068b8:	00ca200b 	movn	a0,a2,t2
9d0068bc:	00021400 	sll	v0,v0,0x10

9d0068c0 <.LBE16>:
9d0068c0:	0b4019d5 	j	9d006754 <.LBE15>
9d0068c4:	00821025 	or	v0,a0,v0
9d0068c8:	24030020 	li	v1,32
9d0068cc:	00621823 	subu	v1,v1,v0
9d0068d0:	00653006 	srlv	a2,a1,v1
9d0068d4:	00083c02 	srl	a3,t0,0x10
9d0068d8:	00c7001b 	divu	zero,a2,a3
9d0068dc:	00e001f4 	teq	a3,zero,0x7
9d0068e0:	00007810 	mfhi	t7
9d0068e4:	00006812 	mflo	t5
9d0068e8:	310cffff 	andi	t4,t0,0xffff
9d0068ec:	00452804 	sllv	a1,a1,v0
9d0068f0:	00641806 	srlv	v1,a0,v1
9d0068f4:	00652825 	or	a1,v1,a1
9d0068f8:	00057402 	srl	t6,a1,0x10
9d0068fc:	00445004 	sllv	t2,a0,v0
9d006900:	00001812 	mflo	v1
9d006904:	71ac5802 	mul	t3,t5,t4
9d006908:	000f1400 	sll	v0,t7,0x10
9d00690c:	01c21025 	or	v0,t6,v0
9d006910:	004b202b 	sltu	a0,v0,t3
9d006914:	00c7001b 	divu	zero,a2,a3
9d006918:	00e001f4 	teq	a3,zero,0x7
9d00691c:	5080000b 	beqzl	a0,9d00694c <.LBE16+0x8c>
9d006920:	004b1023 	subu	v0,v0,t3
9d006924:	00481021 	addu	v0,v0,t0
9d006928:	0048202b 	sltu	a0,v0,t0
9d00692c:	14800006 	bnez	a0,9d006948 <.LBE16+0x88>
9d006930:	25a3ffff 	addiu	v1,t5,-1
9d006934:	004b202b 	sltu	a0,v0,t3
9d006938:	50800004 	beqzl	a0,9d00694c <.LBE16+0x8c>
9d00693c:	004b1023 	subu	v0,v0,t3
9d006940:	25a3fffe 	addiu	v1,t5,-2
9d006944:	00481021 	addu	v0,v0,t0
9d006948:	004b1023 	subu	v0,v0,t3
9d00694c:	30adffff 	andi	t5,a1,0xffff
9d006950:	0047001b 	divu	zero,v0,a3
9d006954:	00e001f4 	teq	a3,zero,0x7
9d006958:	00002010 	mfhi	a0
9d00695c:	00005812 	mflo	t3
9d006960:	00003012 	mflo	a2
9d006964:	716c2802 	mul	a1,t3,t4
9d006968:	00042400 	sll	a0,a0,0x10
9d00696c:	008d2025 	or	a0,a0,t5
9d006970:	0085682b 	sltu	t5,a0,a1
9d006974:	0047001b 	divu	zero,v0,a3
9d006978:	00e001f4 	teq	a3,zero,0x7
9d00697c:	51a0000b 	beqzl	t5,9d0069ac <.LBE16+0xec>
9d006980:	00031c00 	sll	v1,v1,0x10
9d006984:	00882021 	addu	a0,a0,t0
9d006988:	0088102b 	sltu	v0,a0,t0
9d00698c:	14400006 	bnez	v0,9d0069a8 <.LBE16+0xe8>
9d006990:	2566ffff 	addiu	a2,t3,-1
9d006994:	0085102b 	sltu	v0,a0,a1
9d006998:	50400004 	beqzl	v0,9d0069ac <.LBE16+0xec>
9d00699c:	00031c00 	sll	v1,v1,0x10
9d0069a0:	2566fffe 	addiu	a2,t3,-2
9d0069a4:	00882021 	addu	a0,a0,t0
9d0069a8:	00031c00 	sll	v1,v1,0x10
9d0069ac:	00852023 	subu	a0,a0,a1
9d0069b0:	0b401a04 	j	9d006810 <.LBB16>
9d0069b4:	00c31825 	or	v1,a2,v1
9d0069b8:	00481023 	subu	v0,v0,t0
9d0069bc:	01073804 	sllv	a3,a3,t0
9d0069c0:	00461806 	srlv	v1,a2,v0
9d0069c4:	00673825 	or	a3,v1,a3
9d0069c8:	00455806 	srlv	t3,a1,v0
9d0069cc:	00071c02 	srl	v1,a3,0x10
9d0069d0:	0163001b 	divu	zero,t3,v1
9d0069d4:	006001f4 	teq	v1,zero,0x7
9d0069d8:	00005010 	mfhi	t2
9d0069dc:	00007012 	mflo	t6
9d0069e0:	30ecffff 	andi	t4,a3,0xffff
9d0069e4:	01052804 	sllv	a1,a1,t0
9d0069e8:	00441006 	srlv	v0,a0,v0
9d0069ec:	00452825 	or	a1,v0,a1
9d0069f0:	00057c02 	srl	t7,a1,0x10
9d0069f4:	00001012 	mflo	v0
9d0069f8:	71cc6802 	mul	t5,t6,t4
9d0069fc:	000a5400 	sll	t2,t2,0x10
9d006a00:	014f5025 	or	t2,t2,t7
9d006a04:	014d782b 	sltu	t7,t2,t5
9d006a08:	0163001b 	divu	zero,t3,v1
9d006a0c:	006001f4 	teq	v1,zero,0x7
9d006a10:	11e0000a 	beqz	t7,9d006a3c <.LBE16+0x17c>
9d006a14:	01063004 	sllv	a2,a2,t0
9d006a18:	01475021 	addu	t2,t2,a3
9d006a1c:	0147582b 	sltu	t3,t2,a3
9d006a20:	15600006 	bnez	t3,9d006a3c <.LBE16+0x17c>
9d006a24:	25c2ffff 	addiu	v0,t6,-1
9d006a28:	014d582b 	sltu	t3,t2,t5
9d006a2c:	51600004 	beqzl	t3,9d006a40 <.LBE16+0x180>
9d006a30:	014d5023 	subu	t2,t2,t5
9d006a34:	25c2fffe 	addiu	v0,t6,-2
9d006a38:	01475021 	addu	t2,t2,a3
9d006a3c:	014d5023 	subu	t2,t2,t5
9d006a40:	30a5ffff 	andi	a1,a1,0xffff
9d006a44:	0143001b 	divu	zero,t2,v1
9d006a48:	006001f4 	teq	v1,zero,0x7
9d006a4c:	00007010 	mfhi	t6
9d006a50:	00006812 	mflo	t5
9d006a54:	00005812 	mflo	t3
9d006a58:	71ac6002 	mul	t4,t5,t4
9d006a5c:	000e7400 	sll	t6,t6,0x10
9d006a60:	01c52825 	or	a1,t6,a1
9d006a64:	00ac702b 	sltu	t6,a1,t4
9d006a68:	0143001b 	divu	zero,t2,v1
9d006a6c:	006001f4 	teq	v1,zero,0x7
9d006a70:	51c0000b 	beqzl	t6,9d006aa0 <.LBE16+0x1e0>
9d006a74:	00021400 	sll	v0,v0,0x10
9d006a78:	00a72821 	addu	a1,a1,a3
9d006a7c:	00a7182b 	sltu	v1,a1,a3
9d006a80:	14600006 	bnez	v1,9d006a9c <.LBE16+0x1dc>
9d006a84:	25abffff 	addiu	t3,t5,-1
9d006a88:	00ac182b 	sltu	v1,a1,t4
9d006a8c:	50600004 	beqzl	v1,9d006aa0 <.LBE16+0x1e0>
9d006a90:	00021400 	sll	v0,v0,0x10
9d006a94:	25abfffe 	addiu	t3,t5,-2
9d006a98:	00a72821 	addu	a1,a1,a3
9d006a9c:	00021400 	sll	v0,v0,0x10
9d006aa0:	01621025 	or	v0,t3,v0
9d006aa4:	00ac2823 	subu	a1,a1,t4

9d006aa8 <.LBB23>:
9d006aa8:	00460019 	multu	v0,a2
9d006aac:	00003810 	mfhi	a3

9d006ab0 <.LBE23>:
9d006ab0:	00a7182b 	sltu	v1,a1,a3
9d006ab4:	14600008 	bnez	v1,9d006ad8 <.LBE23+0x28>
9d006ab8:	00003012 	mflo	a2
9d006abc:	50a70003 	beql	a1,a3,9d006acc <.LBE23+0x1c>
9d006ac0:	01042004 	sllv	a0,a0,t0
9d006ac4:	0b4019d5 	j	9d006754 <.LBE15>
9d006ac8:	00001821 	move	v1,zero
9d006acc:	0086302b 	sltu	a2,a0,a2
9d006ad0:	50c0ff20 	beqzl	a2,9d006754 <.LBE15>
9d006ad4:	00001821 	move	v1,zero
9d006ad8:	2442ffff 	addiu	v0,v0,-1
9d006adc:	0b4019d5 	j	9d006754 <.LBE15>
9d006ae0:	00001821 	move	v1,zero
9d006ae4:	0b4019d5 	j	9d006754 <.LBE15>
9d006ae8:	24020001 	li	v0,1
9d006aec:	0b401a19 	j	9d006864 <.LBB16+0x54>
9d006af0:	00c83021 	addu	a2,a2,t0

Disassembly of section .text.dreml:

9d006af4 <dreml>:
9d006af4:	27bdffa0 	addiu	sp,sp,-96

9d006af8 <.LCFI14>:
9d006af8:	afbf005c 	sw	ra,92(sp)
9d006afc:	afbe0058 	sw	s8,88(sp)
9d006b00:	afb70054 	sw	s7,84(sp)
9d006b04:	afb60050 	sw	s6,80(sp)
9d006b08:	afb5004c 	sw	s5,76(sp)
9d006b0c:	afb40048 	sw	s4,72(sp)
9d006b10:	afb30044 	sw	s3,68(sp)
9d006b14:	afb20040 	sw	s2,64(sp)
9d006b18:	afb1003c 	sw	s1,60(sp)
9d006b1c:	afb00038 	sw	s0,56(sp)
9d006b20:	afa60068 	sw	a2,104(sp)
9d006b24:	afa7006c 	sw	a3,108(sp)
9d006b28:	afa40060 	sw	a0,96(sp)
9d006b2c:	afa50064 	sw	a1,100(sp)
9d006b30:	97b1006e 	lhu	s1,110(sp)
9d006b34:	97b70066 	lhu	s7,102(sp)
9d006b38:	24107ff0 	li	s0,32752
9d006b3c:	32237fff 	andi	v1,s1,0x7fff
9d006b40:	32e27ff0 	andi	v0,s7,0x7ff0
9d006b44:	105000a2 	beq	v0,s0,9d006dd0 <.LCFI14+0x2d8>
9d006b48:	a7a3006e 	sh	v1,110(sp)
9d006b4c:	8fb4006c 	lw	s4,108(sp)
9d006b50:	8fb50068 	lw	s5,104(sp)
9d006b54:	02a02021 	move	a0,s5
9d006b58:	02802821 	move	a1,s4
9d006b5c:	00003021 	move	a2,zero
9d006b60:	0f402e37 	jal	9d00b8dc <.LFE0>
9d006b64:	00003821 	move	a3,zero
9d006b68:	1040005a 	beqz	v0,9d006cd4 <.LCFI14+0x1dc>
9d006b6c:	32317ff0 	andi	s1,s1,0x7ff0
9d006b70:	123000ad 	beq	s1,s0,9d006e28 <.LCFI14+0x330>
9d006b74:	2e310011 	sltiu	s1,s1,17
9d006b78:	162000d5 	bnez	s1,9d006ed0 <.LCFI14+0x3d8>
9d006b7c:	3c029d01 	lui	v0,0x9d01
9d006b80:	8c44df30 	lw	a0,-8400(v0)
9d006b84:	8c45df34 	lw	a1,-8396(v0)
9d006b88:	02a03021 	move	a2,s5
9d006b8c:	0f402e37 	jal	9d00b8dc <.LFE0>
9d006b90:	02803821 	move	a3,s4
9d006b94:	184000ae 	blez	v0,9d006e50 <.LCFI14+0x358>
9d006b98:	02a02021 	move	a0,s5
9d006b9c:	02a03021 	move	a2,s5
9d006ba0:	02802821 	move	a1,s4
9d006ba4:	0f401f17 	jal	9d007c5c <__adddf3>
9d006ba8:	02803821 	move	a3,s4
9d006bac:	00408021 	move	s0,v0
9d006bb0:	00608821 	move	s1,v1
9d006bb4:	3c029d01 	lui	v0,0x9d01
9d006bb8:	8c46df38 	lw	a2,-8392(v0)
9d006bbc:	8c47df3c 	lw	a3,-8388(v0)
9d006bc0:	02a02021 	move	a0,s5
9d006bc4:	02802821 	move	a1,s4
9d006bc8:	32e97fff 	andi	t1,s7,0x7fff
9d006bcc:	afb00018 	sw	s0,24(sp)
9d006bd0:	afa3001c 	sw	v1,28(sp)
9d006bd4:	0f4023a1 	jal	9d008e84 <__muldf3>
9d006bd8:	afa90030 	sw	t1,48(sp)
9d006bdc:	afa20028 	sw	v0,40(sp)
9d006be0:	afa3002c 	sw	v1,44(sp)
9d006be4:	8fa90030 	lw	t1,48(sp)
9d006be8:	a7a90066 	sh	t1,102(sp)
9d006bec:	8fbe0064 	lw	s8,100(sp)
9d006bf0:	8fb20060 	lw	s2,96(sp)
9d006bf4:	02403021 	move	a2,s2
9d006bf8:	03c03821 	move	a3,s8
9d006bfc:	7c177004 	ins	s7,zero,0x0,0xf
9d006c00:	02002021 	move	a0,s0
9d006c04:	02202821 	move	a1,s1
9d006c08:	7c17be20 	seh	s7,s7
9d006c0c:	0f402e37 	jal	9d00b8dc <.LFE0>
9d006c10:	afb70024 	sw	s7,36(sp)
9d006c14:	04410044 	bgez	v0,9d006d28 <.LCFI14+0x230>
9d006c18:	8fa90030 	lw	t1,48(sp)
9d006c1c:	97b6001e 	lhu	s6,30(sp)
9d006c20:	32d67ff0 	andi	s6,s6,0x7ff0
9d006c24:	0b401b20 	j	9d006c80 <.LCFI14+0x188>
9d006c28:	afb60020 	sw	s6,32(sp)
9d006c2c:	a7a30016 	sh	v1,22(sp)
9d006c30:	8faa0010 	lw	t2,16(sp)
9d006c34:	8fa90014 	lw	t1,20(sp)
9d006c38:	02402021 	move	a0,s2
9d006c3c:	01403021 	move	a2,t2
9d006c40:	03c02821 	move	a1,s8
9d006c44:	0f401f15 	jal	9d007c54 <.LFE7>
9d006c48:	01203821 	move	a3,t1
9d006c4c:	0040f021 	move	s8,v0
9d006c50:	00609821 	move	s3,v1
9d006c54:	00403021 	move	a2,v0
9d006c58:	00603821 	move	a3,v1
9d006c5c:	02002021 	move	a0,s0
9d006c60:	02202821 	move	a1,s1
9d006c64:	afa20060 	sw	v0,96(sp)
9d006c68:	0f402e37 	jal	9d00b8dc <.LFE0>
9d006c6c:	afa30064 	sw	v1,100(sp)
9d006c70:	0441002b 	bgez	v0,9d006d20 <.LCFI14+0x228>
9d006c74:	97a90066 	lhu	t1,102(sp)
9d006c78:	03c09021 	move	s2,s8
9d006c7c:	0260f021 	move	s8,s3
9d006c80:	afb00010 	sw	s0,16(sp)
9d006c84:	afb10014 	sw	s1,20(sp)
9d006c88:	97a20016 	lhu	v0,22(sp)
9d006c8c:	31237ff0 	andi	v1,t1,0x7ff0
9d006c90:	8fb70010 	lw	s7,16(sp)
9d006c94:	00621821 	addu	v1,v1,v0
9d006c98:	8fa20020 	lw	v0,32(sp)
9d006c9c:	00621823 	subu	v1,v1,v0
9d006ca0:	3076ffff 	andi	s6,v1,0xffff
9d006ca4:	a7b60016 	sh	s6,22(sp)
9d006ca8:	8fb30014 	lw	s3,20(sp)
9d006cac:	02402021 	move	a0,s2
9d006cb0:	02e03021 	move	a2,s7
9d006cb4:	03c02821 	move	a1,s8
9d006cb8:	0f402e37 	jal	9d00b8dc <.LFE0>
9d006cbc:	02603821 	move	a3,s3
9d006cc0:	0440ffda 	bltz	v0,9d006c2c <.LCFI14+0x134>
9d006cc4:	26c3fff0 	addiu	v1,s6,-16
9d006cc8:	02e05021 	move	t2,s7
9d006ccc:	0b401b0e 	j	9d006c38 <.LCFI14+0x140>
9d006cd0:	02604821 	move	t1,s3
9d006cd4:	00002021 	move	a0,zero
9d006cd8:	00002821 	move	a1,zero
9d006cdc:	00803021 	move	a2,a0
9d006ce0:	0f401862 	jal	9d006188 <__divdf3>
9d006ce4:	00a03821 	move	a3,a1
9d006ce8:	0040a821 	move	s5,v0
9d006cec:	02a01021 	move	v0,s5
9d006cf0:	8fbf005c 	lw	ra,92(sp)
9d006cf4:	8fbe0058 	lw	s8,88(sp)
9d006cf8:	8fb70054 	lw	s7,84(sp)
9d006cfc:	8fb60050 	lw	s6,80(sp)
9d006d00:	8fb5004c 	lw	s5,76(sp)
9d006d04:	8fb40048 	lw	s4,72(sp)
9d006d08:	8fb30044 	lw	s3,68(sp)
9d006d0c:	8fb20040 	lw	s2,64(sp)
9d006d10:	8fb1003c 	lw	s1,60(sp)
9d006d14:	8fb00038 	lw	s0,56(sp)
9d006d18:	03e00008 	jr	ra
9d006d1c:	27bd0060 	addiu	sp,sp,96
9d006d20:	03c09021 	move	s2,s8
9d006d24:	0260f021 	move	s8,s3
9d006d28:	02403021 	move	a2,s2
9d006d2c:	03c03821 	move	a3,s8
9d006d30:	8fa40028 	lw	a0,40(sp)
9d006d34:	0f402e37 	jal	9d00b8dc <.LFE0>
9d006d38:	8fa5002c 	lw	a1,44(sp)
9d006d3c:	04410012 	bgez	v0,9d006d88 <.LCFI14+0x290>
9d006d40:	97a20066 	lhu	v0,102(sp)
9d006d44:	02402021 	move	a0,s2
9d006d48:	02a03021 	move	a2,s5
9d006d4c:	03c02821 	move	a1,s8
9d006d50:	0f401f15 	jal	9d007c54 <.LFE7>
9d006d54:	02803821 	move	a3,s4
9d006d58:	00408021 	move	s0,v0
9d006d5c:	00608821 	move	s1,v1
9d006d60:	8fa40028 	lw	a0,40(sp)
9d006d64:	8fa5002c 	lw	a1,44(sp)
9d006d68:	00403021 	move	a2,v0
9d006d6c:	0f402e37 	jal	9d00b8dc <.LFE0>
9d006d70:	00603821 	move	a3,v1
9d006d74:	1840004f 	blez	v0,9d006eb4 <.LCFI14+0x3bc>
9d006d78:	02a03021 	move	a2,s5
9d006d7c:	afb00060 	sw	s0,96(sp)
9d006d80:	afb10064 	sw	s1,100(sp)
9d006d84:	97a20066 	lhu	v0,102(sp)
9d006d88:	8fb50060 	lw	s5,96(sp)
9d006d8c:	8fa30024 	lw	v1,36(sp)
9d006d90:	0062b826 	xor	s7,v1,v0
9d006d94:	a7b70066 	sh	s7,102(sp)
9d006d98:	8fa30064 	lw	v1,100(sp)
9d006d9c:	02a01021 	move	v0,s5
9d006da0:	8fbf005c 	lw	ra,92(sp)
9d006da4:	8fbe0058 	lw	s8,88(sp)
9d006da8:	8fb70054 	lw	s7,84(sp)
9d006dac:	8fb60050 	lw	s6,80(sp)
9d006db0:	8fb5004c 	lw	s5,76(sp)
9d006db4:	8fb40048 	lw	s4,72(sp)
9d006db8:	8fb30044 	lw	s3,68(sp)
9d006dbc:	8fb20040 	lw	s2,64(sp)
9d006dc0:	8fb1003c 	lw	s1,60(sp)
9d006dc4:	8fb00038 	lw	s0,56(sp)
9d006dc8:	03e00008 	jr	ra
9d006dcc:	27bd0060 	addiu	sp,sp,96
9d006dd0:	8fa60068 	lw	a2,104(sp)
9d006dd4:	0f401f15 	jal	9d007c54 <.LFE7>
9d006dd8:	8fa7006c 	lw	a3,108(sp)
9d006ddc:	00402021 	move	a0,v0
9d006de0:	00602821 	move	a1,v1
9d006de4:	00403021 	move	a2,v0
9d006de8:	0f401f15 	jal	9d007c54 <.LFE7>
9d006dec:	00603821 	move	a3,v1
9d006df0:	0040a821 	move	s5,v0
9d006df4:	02a01021 	move	v0,s5
9d006df8:	8fbf005c 	lw	ra,92(sp)
9d006dfc:	8fbe0058 	lw	s8,88(sp)
9d006e00:	8fb70054 	lw	s7,84(sp)
9d006e04:	8fb60050 	lw	s6,80(sp)
9d006e08:	8fb5004c 	lw	s5,76(sp)
9d006e0c:	8fb40048 	lw	s4,72(sp)
9d006e10:	8fb30044 	lw	s3,68(sp)
9d006e14:	8fb20040 	lw	s2,64(sp)
9d006e18:	8fb1003c 	lw	s1,60(sp)
9d006e1c:	8fb00038 	lw	s0,56(sp)
9d006e20:	03e00008 	jr	ra
9d006e24:	27bd0060 	addiu	sp,sp,96
9d006e28:	02a02021 	move	a0,s5
9d006e2c:	02a03021 	move	a2,s5
9d006e30:	02802821 	move	a1,s4
9d006e34:	0f402e37 	jal	9d00b8dc <.LFE0>
9d006e38:	02803821 	move	a3,s4
9d006e3c:	1440ffab 	bnez	v0,9d006cec <.LCFI14+0x1f4>
9d006e40:	02801821 	move	v1,s4
9d006e44:	8fb50060 	lw	s5,96(sp)
9d006e48:	0b401b3b 	j	9d006cec <.LCFI14+0x1f4>
9d006e4c:	8fa30064 	lw	v1,100(sp)
9d006e50:	3c129d01 	lui	s2,0x9d01
9d006e54:	8fa40060 	lw	a0,96(sp)
9d006e58:	8fa50064 	lw	a1,100(sp)
9d006e5c:	8e46df38 	lw	a2,-8392(s2)
9d006e60:	0f4023a1 	jal	9d008e84 <__muldf3>
9d006e64:	8e47df3c 	lw	a3,-8388(s2)
9d006e68:	00408021 	move	s0,v0
9d006e6c:	00608821 	move	s1,v1
9d006e70:	8e46df38 	lw	a2,-8392(s2)
9d006e74:	8e47df3c 	lw	a3,-8388(s2)
9d006e78:	02a02021 	move	a0,s5
9d006e7c:	0f4023a1 	jal	9d008e84 <__muldf3>
9d006e80:	02802821 	move	a1,s4
9d006e84:	02002021 	move	a0,s0
9d006e88:	02202821 	move	a1,s1
9d006e8c:	00403021 	move	a2,v0
9d006e90:	0f401abd 	jal	9d006af4 <dreml>
9d006e94:	00603821 	move	a3,v1
9d006e98:	00402021 	move	a0,v0
9d006e9c:	00602821 	move	a1,v1
9d006ea0:	00403021 	move	a2,v0
9d006ea4:	0f401f17 	jal	9d007c5c <__adddf3>
9d006ea8:	00603821 	move	a3,v1
9d006eac:	0b401b3b 	j	9d006cec <.LCFI14+0x1f4>
9d006eb0:	0040a821 	move	s5,v0
9d006eb4:	02803821 	move	a3,s4
9d006eb8:	02002021 	move	a0,s0
9d006ebc:	0f401f15 	jal	9d007c54 <.LFE7>
9d006ec0:	02202821 	move	a1,s1
9d006ec4:	afa20060 	sw	v0,96(sp)
9d006ec8:	0b401b61 	j	9d006d84 <.LCFI14+0x28c>
9d006ecc:	afa30064 	sw	v1,100(sp)
9d006ed0:	3c029d01 	lui	v0,0x9d01
9d006ed4:	8c44df28 	lw	a0,-8408(v0)
9d006ed8:	0f402c4b 	jal	9d00b12c <.LFE2>
9d006edc:	24050036 	li	a1,54
9d006ee0:	0f4034e1 	jal	9d00d384 <__floatsidf>
9d006ee4:	00402021 	move	a0,v0
9d006ee8:	00408021 	move	s0,v0
9d006eec:	00608821 	move	s1,v1
9d006ef0:	02a02021 	move	a0,s5
9d006ef4:	02802821 	move	a1,s4
9d006ef8:	00403021 	move	a2,v0
9d006efc:	0f4023a1 	jal	9d008e84 <__muldf3>
9d006f00:	00603821 	move	a3,v1
9d006f04:	00409021 	move	s2,v0
9d006f08:	00609821 	move	s3,v1
9d006f0c:	8fa40060 	lw	a0,96(sp)
9d006f10:	8fa50064 	lw	a1,100(sp)
9d006f14:	00403021 	move	a2,v0
9d006f18:	0f401abd 	jal	9d006af4 <dreml>
9d006f1c:	00603821 	move	a3,v1
9d006f20:	02002021 	move	a0,s0
9d006f24:	02202821 	move	a1,s1
9d006f28:	00403021 	move	a2,v0
9d006f2c:	0f4023a1 	jal	9d008e84 <__muldf3>
9d006f30:	00603821 	move	a3,v1
9d006f34:	00402021 	move	a0,v0
9d006f38:	00602821 	move	a1,v1
9d006f3c:	02403021 	move	a2,s2
9d006f40:	0f401abd 	jal	9d006af4 <dreml>
9d006f44:	02603821 	move	a3,s3
9d006f48:	00402021 	move	a0,v0
9d006f4c:	00602821 	move	a1,v1
9d006f50:	02003021 	move	a2,s0
9d006f54:	0f401862 	jal	9d006188 <__divdf3>
9d006f58:	02203821 	move	a3,s1
9d006f5c:	0b401b3b 	j	9d006cec <.LCFI14+0x1f4>
9d006f60:	0040a821 	move	s5,v0

Disassembly of section .text:

9d006f64 <__umoddi3>:
9d006f64:	00c04021 	move	t0,a2
9d006f68:	00804821 	move	t1,a0
9d006f6c:	14e0003b 	bnez	a3,9d00705c <__umoddi3+0xf8>
9d006f70:	00a01821 	move	v1,a1
9d006f74:	00a6102b 	sltu	v0,a1,a2
9d006f78:	10400048 	beqz	v0,9d00709c <__umoddi3+0x138>
9d006f7c:	70c21020 	clz	v0,a2
9d006f80:	50400008 	beqzl	v0,9d006fa4 <__umoddi3+0x40>
9d006f84:	00083402 	srl	a2,t0,0x10
9d006f88:	00021823 	negu	v1,v0
9d006f8c:	00452804 	sllv	a1,a1,v0
9d006f90:	00641806 	srlv	v1,a0,v1
9d006f94:	00464004 	sllv	t0,a2,v0
9d006f98:	00651825 	or	v1,v1,a1
9d006f9c:	00444804 	sllv	t1,a0,v0
9d006fa0:	00083402 	srl	a2,t0,0x10
9d006fa4:	0066001b 	divu	zero,v1,a2
9d006fa8:	00c001f4 	teq	a2,zero,0x7
9d006fac:	00002010 	mfhi	a0
9d006fb0:	00005812 	mflo	t3
9d006fb4:	310cffff 	andi	t4,t0,0xffff
9d006fb8:	00095402 	srl	t2,t1,0x10
9d006fbc:	716c5802 	mul	t3,t3,t4
9d006fc0:	00042400 	sll	a0,a0,0x10
9d006fc4:	008a5025 	or	t2,a0,t2
9d006fc8:	014b682b 	sltu	t5,t2,t3
9d006fcc:	0066001b 	divu	zero,v1,a2
9d006fd0:	00c001f4 	teq	a2,zero,0x7
9d006fd4:	51a00009 	beqzl	t5,9d006ffc <__umoddi3+0x98>
9d006fd8:	014b5023 	subu	t2,t2,t3
9d006fdc:	01485021 	addu	t2,t2,t0
9d006fe0:	0148182b 	sltu	v1,t2,t0
9d006fe4:	54600005 	bnezl	v1,9d006ffc <__umoddi3+0x98>
9d006fe8:	014b5023 	subu	t2,t2,t3
9d006fec:	014b202b 	sltu	a0,t2,t3
9d006ff0:	01481821 	addu	v1,t2,t0
9d006ff4:	0064500b 	movn	t2,v1,a0
9d006ff8:	014b5023 	subu	t2,t2,t3
9d006ffc:	3123ffff 	andi	v1,t1,0xffff
9d007000:	0146001b 	divu	zero,t2,a2
9d007004:	00c001f4 	teq	a2,zero,0x7
9d007008:	00004810 	mfhi	t1
9d00700c:	00002012 	mflo	a0
9d007010:	708c2002 	mul	a0,a0,t4
9d007014:	00094c00 	sll	t1,t1,0x10
9d007018:	01234825 	or	t1,t1,v1
9d00701c:	0124182b 	sltu	v1,t1,a0
9d007020:	0146001b 	divu	zero,t2,a2
9d007024:	00c001f4 	teq	a2,zero,0x7
9d007028:	50600009 	beqzl	v1,9d007050 <__umoddi3+0xec>
9d00702c:	01244823 	subu	t1,t1,a0
9d007030:	01284821 	addu	t1,t1,t0
9d007034:	0128182b 	sltu	v1,t1,t0
9d007038:	54600005 	bnezl	v1,9d007050 <__umoddi3+0xec>
9d00703c:	01244823 	subu	t1,t1,a0
9d007040:	0124182b 	sltu	v1,t1,a0
9d007044:	01284021 	addu	t0,t1,t0
9d007048:	0103480b 	movn	t1,t0,v1
9d00704c:	01244823 	subu	t1,t1,a0
9d007050:	00491006 	srlv	v0,t1,v0
9d007054:	03e00008 	jr	ra
9d007058:	00001821 	move	v1,zero
9d00705c:	00a7102b 	sltu	v0,a1,a3
9d007060:	14400047 	bnez	v0,9d007180 <__umoddi3+0x21c>
9d007064:	70ea5020 	clz	t2,a3
9d007068:	15400048 	bnez	t2,9d00718c <__umoddi3+0x228>
9d00706c:	240b0020 	li	t3,32
9d007070:	00e5102b 	sltu	v0,a3,a1
9d007074:	14400005 	bnez	v0,9d00708c <__umoddi3+0x128>
9d007078:	00861023 	subu	v0,a0,a2
9d00707c:	0086402b 	sltu	t0,a0,a2
9d007080:	15000089 	bnez	t0,9d0072a8 <__umoddi3+0x344>
9d007084:	00801021 	move	v0,a0
9d007088:	00861023 	subu	v0,a0,a2
9d00708c:	00a72823 	subu	a1,a1,a3
9d007090:	0082202b 	sltu	a0,a0,v0
9d007094:	03e00008 	jr	ra
9d007098:	00a41823 	subu	v1,a1,a0
9d00709c:	14c00006 	bnez	a2,9d0070b8 <__umoddi3+0x154>
9d0070a0:	71021020 	clz	v0,t0
9d0070a4:	24020001 	li	v0,1
9d0070a8:	0046001b 	divu	zero,v0,a2
9d0070ac:	00c001f4 	teq	a2,zero,0x7
9d0070b0:	00004012 	mflo	t0
9d0070b4:	71021020 	clz	v0,t0
9d0070b8:	5440007d 	bnezl	v0,9d0072b0 <__umoddi3+0x34c>
9d0070bc:	00484004 	sllv	t0,t0,v0
9d0070c0:	00a82823 	subu	a1,a1,t0
9d0070c4:	00081c02 	srl	v1,t0,0x10
9d0070c8:	3107ffff 	andi	a3,t0,0xffff
9d0070cc:	00092402 	srl	a0,t1,0x10
9d0070d0:	00a3001b 	divu	zero,a1,v1
9d0070d4:	006001f4 	teq	v1,zero,0x7
9d0070d8:	00005010 	mfhi	t2
9d0070dc:	00003012 	mflo	a2
9d0070e0:	70c73002 	mul	a2,a2,a3
9d0070e4:	000a5400 	sll	t2,t2,0x10
9d0070e8:	01442025 	or	a0,t2,a0
9d0070ec:	0086502b 	sltu	t2,a0,a2
9d0070f0:	00a3001b 	divu	zero,a1,v1
9d0070f4:	006001f4 	teq	v1,zero,0x7
9d0070f8:	51400009 	beqzl	t2,9d007120 <__umoddi3+0x1bc>
9d0070fc:	00862023 	subu	a0,a0,a2
9d007100:	00882021 	addu	a0,a0,t0
9d007104:	0088282b 	sltu	a1,a0,t0
9d007108:	54a00005 	bnezl	a1,9d007120 <__umoddi3+0x1bc>
9d00710c:	00862023 	subu	a0,a0,a2
9d007110:	0086502b 	sltu	t2,a0,a2
9d007114:	00882821 	addu	a1,a0,t0
9d007118:	00aa200b 	movn	a0,a1,t2
9d00711c:	00862023 	subu	a0,a0,a2
9d007120:	3126ffff 	andi	a2,t1,0xffff
9d007124:	0083001b 	divu	zero,a0,v1
9d007128:	006001f4 	teq	v1,zero,0x7
9d00712c:	00004810 	mfhi	t1
9d007130:	00002812 	mflo	a1
9d007134:	70a72802 	mul	a1,a1,a3
9d007138:	00094c00 	sll	t1,t1,0x10
9d00713c:	01264825 	or	t1,t1,a2
9d007140:	0125302b 	sltu	a2,t1,a1
9d007144:	0083001b 	divu	zero,a0,v1
9d007148:	006001f4 	teq	v1,zero,0x7
9d00714c:	50c00009 	beqzl	a2,9d007174 <__umoddi3+0x210>
9d007150:	01254823 	subu	t1,t1,a1
9d007154:	01284821 	addu	t1,t1,t0
9d007158:	0128182b 	sltu	v1,t1,t0
9d00715c:	54600005 	bnezl	v1,9d007174 <__umoddi3+0x210>
9d007160:	01254823 	subu	t1,t1,a1
9d007164:	0125182b 	sltu	v1,t1,a1
9d007168:	01284021 	addu	t0,t1,t0
9d00716c:	0103480b 	movn	t1,t0,v1
9d007170:	01254823 	subu	t1,t1,a1
9d007174:	00491006 	srlv	v0,t1,v0
9d007178:	03e00008 	jr	ra
9d00717c:	00001821 	move	v1,zero
9d007180:	00801021 	move	v0,a0
9d007184:	03e00008 	jr	ra
9d007188:	00a01821 	move	v1,a1
9d00718c:	016a5823 	subu	t3,t3,t2
9d007190:	01473804 	sllv	a3,a3,t2
9d007194:	01661006 	srlv	v0,a2,t3
9d007198:	00473825 	or	a3,v0,a3
9d00719c:	01656806 	srlv	t5,a1,t3
9d0071a0:	00074c02 	srl	t1,a3,0x10
9d0071a4:	01a9001b 	divu	zero,t5,t1
9d0071a8:	012001f4 	teq	t1,zero,0x7
9d0071ac:	00006010 	mfhi	t4
9d0071b0:	00001812 	mflo	v1
9d0071b4:	30eeffff 	andi	t6,a3,0xffff
9d0071b8:	01452804 	sllv	a1,a1,t2
9d0071bc:	01641006 	srlv	v0,a0,t3
9d0071c0:	00451025 	or	v0,v0,a1
9d0071c4:	00022c02 	srl	a1,v0,0x10
9d0071c8:	01463004 	sllv	a2,a2,t2
9d0071cc:	00004012 	mflo	t0
9d0071d0:	706e7802 	mul	t7,v1,t6
9d0071d4:	000c6400 	sll	t4,t4,0x10
9d0071d8:	01856025 	or	t4,t4,a1
9d0071dc:	018f282b 	sltu	a1,t4,t7
9d0071e0:	01a9001b 	divu	zero,t5,t1
9d0071e4:	012001f4 	teq	t1,zero,0x7
9d0071e8:	10a0000a 	beqz	a1,9d007214 <__umoddi3+0x2b0>
9d0071ec:	01442004 	sllv	a0,a0,t2
9d0071f0:	01876021 	addu	t4,t4,a3
9d0071f4:	0187282b 	sltu	a1,t4,a3
9d0071f8:	14a00006 	bnez	a1,9d007214 <__umoddi3+0x2b0>
9d0071fc:	2468ffff 	addiu	t0,v1,-1
9d007200:	018f282b 	sltu	a1,t4,t7
9d007204:	50a00004 	beqzl	a1,9d007218 <__umoddi3+0x2b4>
9d007208:	018f6023 	subu	t4,t4,t7
9d00720c:	2468fffe 	addiu	t0,v1,-2
9d007210:	01876021 	addu	t4,t4,a3
9d007214:	018f6023 	subu	t4,t4,t7
9d007218:	3042ffff 	andi	v0,v0,0xffff
9d00721c:	0189001b 	divu	zero,t4,t1
9d007220:	012001f4 	teq	t1,zero,0x7
9d007224:	00002810 	mfhi	a1
9d007228:	00001812 	mflo	v1
9d00722c:	00006812 	mflo	t5
9d007230:	706e7002 	mul	t6,v1,t6
9d007234:	00052c00 	sll	a1,a1,0x10
9d007238:	00a21025 	or	v0,a1,v0
9d00723c:	004e282b 	sltu	a1,v0,t6
9d007240:	0189001b 	divu	zero,t4,t1
9d007244:	012001f4 	teq	t1,zero,0x7
9d007248:	50a00006 	beqzl	a1,9d007264 <__umoddi3+0x300>
9d00724c:	00084400 	sll	t0,t0,0x10
9d007250:	00471021 	addu	v0,v0,a3
9d007254:	0047282b 	sltu	a1,v0,a3
9d007258:	10a0004c 	beqz	a1,9d00738c <__umoddi3+0x428>
9d00725c:	246dffff 	addiu	t5,v1,-1
9d007260:	00084400 	sll	t0,t0,0x10
9d007264:	01a84025 	or	t0,t5,t0
9d007268:	004e1023 	subu	v0,v0,t6
9d00726c:	01060019 	multu	t0,a2
9d007270:	00004810 	mfhi	t1
9d007274:	0049182b 	sltu	v1,v0,t1
9d007278:	1460003e 	bnez	v1,9d007374 <__umoddi3+0x410>
9d00727c:	00004012 	mflo	t0
9d007280:	1049004b 	beq	v0,t1,9d0073b0 <__umoddi3+0x44c>
9d007284:	00491823 	subu	v1,v0,t1
9d007288:	00003012 	mflo	a2
9d00728c:	00863023 	subu	a2,a0,a2
9d007290:	0086202b 	sltu	a0,a0,a2
9d007294:	00641823 	subu	v1,v1,a0
9d007298:	01631004 	sllv	v0,v1,t3
9d00729c:	01463006 	srlv	a2,a2,t2
9d0072a0:	00461025 	or	v0,v0,a2
9d0072a4:	01431806 	srlv	v1,v1,t2
9d0072a8:	03e00008 	jr	ra
9d0072ac:	00000000 	nop
9d0072b0:	24090020 	li	t1,32
9d0072b4:	01224823 	subu	t1,t1,v0
9d0072b8:	01255006 	srlv	t2,a1,t1
9d0072bc:	00081c02 	srl	v1,t0,0x10
9d0072c0:	0143001b 	divu	zero,t2,v1
9d0072c4:	006001f4 	teq	v1,zero,0x7
9d0072c8:	00003010 	mfhi	a2
9d0072cc:	00005812 	mflo	t3
9d0072d0:	3107ffff 	andi	a3,t0,0xffff
9d0072d4:	00452804 	sllv	a1,a1,v0
9d0072d8:	01244806 	srlv	t1,a0,t1
9d0072dc:	01252825 	or	a1,t1,a1
9d0072e0:	00056402 	srl	t4,a1,0x10
9d0072e4:	00444804 	sllv	t1,a0,v0
9d0072e8:	71675802 	mul	t3,t3,a3
9d0072ec:	00063400 	sll	a2,a2,0x10
9d0072f0:	01863025 	or	a2,t4,a2
9d0072f4:	00cb202b 	sltu	a0,a2,t3
9d0072f8:	0143001b 	divu	zero,t2,v1
9d0072fc:	006001f4 	teq	v1,zero,0x7
9d007300:	50800006 	beqzl	a0,9d00731c <__umoddi3+0x3b8>
9d007304:	00cb3023 	subu	a2,a2,t3
9d007308:	00c83021 	addu	a2,a2,t0
9d00730c:	00c8202b 	sltu	a0,a2,t0
9d007310:	10800024 	beqz	a0,9d0073a4 <__umoddi3+0x440>
9d007314:	00cb502b 	sltu	t2,a2,t3
9d007318:	00cb3023 	subu	a2,a2,t3
9d00731c:	30aaffff 	andi	t2,a1,0xffff
9d007320:	00c3001b 	divu	zero,a2,v1
9d007324:	006001f4 	teq	v1,zero,0x7
9d007328:	00002010 	mfhi	a0
9d00732c:	00002812 	mflo	a1
9d007330:	70a72802 	mul	a1,a1,a3
9d007334:	00042400 	sll	a0,a0,0x10
9d007338:	008a2025 	or	a0,a0,t2
9d00733c:	0085502b 	sltu	t2,a0,a1
9d007340:	00c3001b 	divu	zero,a2,v1
9d007344:	006001f4 	teq	v1,zero,0x7
9d007348:	5140ff60 	beqzl	t2,9d0070cc <__umoddi3+0x168>
9d00734c:	00852823 	subu	a1,a0,a1
9d007350:	00882021 	addu	a0,a0,t0
9d007354:	0088302b 	sltu	a2,a0,t0
9d007358:	54c0ff5c 	bnezl	a2,9d0070cc <__umoddi3+0x168>
9d00735c:	00852823 	subu	a1,a0,a1
9d007360:	0085502b 	sltu	t2,a0,a1
9d007364:	00883021 	addu	a2,a0,t0
9d007368:	00ca200b 	movn	a0,a2,t2
9d00736c:	0b401c33 	j	9d0070cc <__umoddi3+0x168>
9d007370:	00852823 	subu	a1,a0,a1
9d007374:	01063023 	subu	a2,t0,a2
9d007378:	01271823 	subu	v1,t1,a3
9d00737c:	0106402b 	sltu	t0,t0,a2
9d007380:	00681823 	subu	v1,v1,t0
9d007384:	0b401ca3 	j	9d00728c <__umoddi3+0x328>
9d007388:	00431823 	subu	v1,v0,v1
9d00738c:	004e282b 	sltu	a1,v0,t6
9d007390:	50a0ffb4 	beqzl	a1,9d007264 <__umoddi3+0x300>
9d007394:	00084400 	sll	t0,t0,0x10
9d007398:	246dfffe 	addiu	t5,v1,-2
9d00739c:	0b401c98 	j	9d007260 <__umoddi3+0x2fc>
9d0073a0:	00471021 	addu	v0,v0,a3
9d0073a4:	00c82021 	addu	a0,a2,t0
9d0073a8:	0b401cc6 	j	9d007318 <__umoddi3+0x3b4>
9d0073ac:	008a300b 	movn	a2,a0,t2
9d0073b0:	0088182b 	sltu	v1,a0,t0
9d0073b4:	5460fff0 	bnezl	v1,9d007378 <__umoddi3+0x414>
9d0073b8:	01063023 	subu	a2,t0,a2
9d0073bc:	00003012 	mflo	a2
9d0073c0:	0b401ca3 	j	9d00728c <__umoddi3+0x328>
9d0073c4:	00001821 	move	v1,zero

9d0073c8 <__udivdi3>:
9d0073c8:	00c04021 	move	t0,a2
9d0073cc:	00801021 	move	v0,a0
9d0073d0:	14e0003f 	bnez	a3,9d0074d0 <__udivdi3+0x108>
9d0073d4:	00a04821 	move	t1,a1
9d0073d8:	00a6182b 	sltu	v1,a1,a2
9d0073dc:	10600047 	beqz	v1,9d0074fc <__udivdi3+0x134>
9d0073e0:	70c31820 	clz	v1,a2
9d0073e4:	50600008 	beqzl	v1,9d007408 <__udivdi3+0x40>
9d0073e8:	00081c02 	srl	v1,t0,0x10
9d0073ec:	00034823 	negu	t1,v1
9d0073f0:	00652804 	sllv	a1,a1,v1
9d0073f4:	01244806 	srlv	t1,a0,t1
9d0073f8:	00664004 	sllv	t0,a2,v1
9d0073fc:	01254825 	or	t1,t1,a1
9d007400:	00641004 	sllv	v0,a0,v1
9d007404:	00081c02 	srl	v1,t0,0x10
9d007408:	0123001b 	divu	zero,t1,v1
9d00740c:	006001f4 	teq	v1,zero,0x7
9d007410:	00006010 	mfhi	t4
9d007414:	00005812 	mflo	t3
9d007418:	310affff 	andi	t2,t0,0xffff
9d00741c:	00022402 	srl	a0,v0,0x10
9d007420:	00003012 	mflo	a2
9d007424:	716a3802 	mul	a3,t3,t2
9d007428:	000c6400 	sll	t4,t4,0x10
9d00742c:	01842025 	or	a0,t4,a0
9d007430:	0087602b 	sltu	t4,a0,a3
9d007434:	0123001b 	divu	zero,t1,v1
9d007438:	006001f4 	teq	v1,zero,0x7
9d00743c:	1180000b 	beqz	t4,9d00746c <__udivdi3+0xa4>
9d007440:	00872823 	subu	a1,a0,a3
9d007444:	00882021 	addu	a0,a0,t0
9d007448:	0088282b 	sltu	a1,a0,t0
9d00744c:	14a00006 	bnez	a1,9d007468 <__udivdi3+0xa0>
9d007450:	2566ffff 	addiu	a2,t3,-1
9d007454:	0087282b 	sltu	a1,a0,a3
9d007458:	10a00004 	beqz	a1,9d00746c <__udivdi3+0xa4>
9d00745c:	00872823 	subu	a1,a0,a3
9d007460:	2566fffe 	addiu	a2,t3,-2
9d007464:	00882021 	addu	a0,a0,t0
9d007468:	00872823 	subu	a1,a0,a3
9d00746c:	3042ffff 	andi	v0,v0,0xffff
9d007470:	00a3001b 	divu	zero,a1,v1
9d007474:	006001f4 	teq	v1,zero,0x7
9d007478:	00004810 	mfhi	t1
9d00747c:	00003812 	mflo	a3
9d007480:	00002012 	mflo	a0
9d007484:	70ea5002 	mul	t2,a3,t2
9d007488:	00094c00 	sll	t1,t1,0x10
9d00748c:	01221025 	or	v0,t1,v0
9d007490:	004a482b 	sltu	t1,v0,t2
9d007494:	00a3001b 	divu	zero,a1,v1
9d007498:	006001f4 	teq	v1,zero,0x7
9d00749c:	51200009 	beqzl	t1,9d0074c4 <__udivdi3+0xfc>
9d0074a0:	00061400 	sll	v0,a2,0x10
9d0074a4:	00481021 	addu	v0,v0,t0
9d0074a8:	0048402b 	sltu	t0,v0,t0
9d0074ac:	15000004 	bnez	t0,9d0074c0 <__udivdi3+0xf8>
9d0074b0:	24e4ffff 	addiu	a0,a3,-1
9d0074b4:	004a502b 	sltu	t2,v0,t2
9d0074b8:	24e7fffe 	addiu	a3,a3,-2
9d0074bc:	00ea200b 	movn	a0,a3,t2
9d0074c0:	00061400 	sll	v0,a2,0x10
9d0074c4:	00821025 	or	v0,a0,v0
9d0074c8:	03e00008 	jr	ra
9d0074cc:	00001821 	move	v1,zero
9d0074d0:	00a7102b 	sltu	v0,a1,a3
9d0074d4:	14400044 	bnez	v0,9d0075e8 <__udivdi3+0x220>
9d0074d8:	70e84020 	clz	t0,a3
9d0074dc:	55000045 	bnezl	t0,9d0075f4 <__udivdi3+0x22c>
9d0074e0:	24020020 	li	v0,32
9d0074e4:	00e5282b 	sltu	a1,a3,a1
9d0074e8:	14a000c8 	bnez	a1,9d00780c <__udivdi3+0x444>
9d0074ec:	0086302b 	sltu	a2,a0,a2
9d0074f0:	38c20001 	xori	v0,a2,0x1
9d0074f4:	03e00008 	jr	ra
9d0074f8:	00001821 	move	v1,zero
9d0074fc:	14c00006 	bnez	a2,9d007518 <__udivdi3+0x150>
9d007500:	71031820 	clz	v1,t0
9d007504:	24030001 	li	v1,1
9d007508:	0066001b 	divu	zero,v1,a2
9d00750c:	00c001f4 	teq	a2,zero,0x7
9d007510:	00004012 	mflo	t0
9d007514:	71031820 	clz	v1,t0
9d007518:	5460007b 	bnezl	v1,9d007708 <__udivdi3+0x340>
9d00751c:	00684004 	sllv	t0,t0,v1
9d007520:	00a82023 	subu	a0,a1,t0
9d007524:	00083c02 	srl	a3,t0,0x10
9d007528:	310bffff 	andi	t3,t0,0xffff
9d00752c:	24030001 	li	v1,1
9d007530:	00023402 	srl	a2,v0,0x10
9d007534:	0087001b 	divu	zero,a0,a3
9d007538:	00e001f4 	teq	a3,zero,0x7
9d00753c:	00006810 	mfhi	t5
9d007540:	00006012 	mflo	t4
9d007544:	00004812 	mflo	t1
9d007548:	718b5002 	mul	t2,t4,t3
9d00754c:	000d6c00 	sll	t5,t5,0x10
9d007550:	01a63025 	or	a2,t5,a2
9d007554:	00ca682b 	sltu	t5,a2,t2
9d007558:	0087001b 	divu	zero,a0,a3
9d00755c:	00e001f4 	teq	a3,zero,0x7
9d007560:	11a00009 	beqz	t5,9d007588 <__udivdi3+0x1c0>
9d007564:	00ca2823 	subu	a1,a2,t2
9d007568:	00c83021 	addu	a2,a2,t0
9d00756c:	00c8202b 	sltu	a0,a2,t0
9d007570:	14800004 	bnez	a0,9d007584 <__udivdi3+0x1bc>
9d007574:	2589ffff 	addiu	t1,t4,-1
9d007578:	00ca202b 	sltu	a0,a2,t2
9d00757c:	548000a6 	bnezl	a0,9d007818 <__udivdi3+0x450>
9d007580:	2589fffe 	addiu	t1,t4,-2
9d007584:	00ca2823 	subu	a1,a2,t2
9d007588:	3042ffff 	andi	v0,v0,0xffff
9d00758c:	00a7001b 	divu	zero,a1,a3
9d007590:	00e001f4 	teq	a3,zero,0x7
9d007594:	00005010 	mfhi	t2
9d007598:	00003012 	mflo	a2
9d00759c:	00002012 	mflo	a0
9d0075a0:	70cb5802 	mul	t3,a2,t3
9d0075a4:	000a5400 	sll	t2,t2,0x10
9d0075a8:	01421025 	or	v0,t2,v0
9d0075ac:	004b502b 	sltu	t2,v0,t3
9d0075b0:	00a7001b 	divu	zero,a1,a3
9d0075b4:	00e001f4 	teq	a3,zero,0x7
9d0075b8:	51400009 	beqzl	t2,9d0075e0 <__udivdi3+0x218>
9d0075bc:	00091400 	sll	v0,t1,0x10
9d0075c0:	00481021 	addu	v0,v0,t0
9d0075c4:	0048402b 	sltu	t0,v0,t0
9d0075c8:	15000004 	bnez	t0,9d0075dc <__udivdi3+0x214>
9d0075cc:	24c4ffff 	addiu	a0,a2,-1
9d0075d0:	004b582b 	sltu	t3,v0,t3
9d0075d4:	24c6fffe 	addiu	a2,a2,-2
9d0075d8:	00cb200b 	movn	a0,a2,t3
9d0075dc:	00091400 	sll	v0,t1,0x10
9d0075e0:	03e00008 	jr	ra
9d0075e4:	00821025 	or	v0,a0,v0
9d0075e8:	00001821 	move	v1,zero
9d0075ec:	03e00008 	jr	ra
9d0075f0:	00001021 	move	v0,zero
9d0075f4:	00481023 	subu	v0,v0,t0
9d0075f8:	01073804 	sllv	a3,a3,t0
9d0075fc:	00461806 	srlv	v1,a2,v0
9d007600:	00673825 	or	a3,v1,a3
9d007604:	00455006 	srlv	t2,a1,v0
9d007608:	00071c02 	srl	v1,a3,0x10
9d00760c:	0143001b 	divu	zero,t2,v1
9d007610:	006001f4 	teq	v1,zero,0x7
9d007614:	00004810 	mfhi	t1
9d007618:	00006812 	mflo	t5
9d00761c:	30ebffff 	andi	t3,a3,0xffff
9d007620:	01052804 	sllv	a1,a1,t0
9d007624:	00441006 	srlv	v0,a0,v0
9d007628:	00452825 	or	a1,v0,a1
9d00762c:	00057402 	srl	t6,a1,0x10
9d007630:	00001012 	mflo	v0
9d007634:	71ab6002 	mul	t4,t5,t3
9d007638:	00094c00 	sll	t1,t1,0x10
9d00763c:	012e4825 	or	t1,t1,t6
9d007640:	012c702b 	sltu	t6,t1,t4
9d007644:	0143001b 	divu	zero,t2,v1
9d007648:	006001f4 	teq	v1,zero,0x7
9d00764c:	11c0000a 	beqz	t6,9d007678 <__udivdi3+0x2b0>
9d007650:	01063004 	sllv	a2,a2,t0
9d007654:	01274821 	addu	t1,t1,a3
9d007658:	0127502b 	sltu	t2,t1,a3
9d00765c:	15400006 	bnez	t2,9d007678 <__udivdi3+0x2b0>
9d007660:	25a2ffff 	addiu	v0,t5,-1
9d007664:	012c502b 	sltu	t2,t1,t4
9d007668:	51400004 	beqzl	t2,9d00767c <__udivdi3+0x2b4>
9d00766c:	012c4823 	subu	t1,t1,t4
9d007670:	25a2fffe 	addiu	v0,t5,-2
9d007674:	01274821 	addu	t1,t1,a3
9d007678:	012c4823 	subu	t1,t1,t4
9d00767c:	30a5ffff 	andi	a1,a1,0xffff
9d007680:	0123001b 	divu	zero,t1,v1
9d007684:	006001f4 	teq	v1,zero,0x7
9d007688:	00006810 	mfhi	t5
9d00768c:	00006012 	mflo	t4
9d007690:	00005012 	mflo	t2
9d007694:	718b5802 	mul	t3,t4,t3
9d007698:	000d6c00 	sll	t5,t5,0x10
9d00769c:	01a52825 	or	a1,t5,a1
9d0076a0:	00ab682b 	sltu	t5,a1,t3
9d0076a4:	0123001b 	divu	zero,t1,v1
9d0076a8:	006001f4 	teq	v1,zero,0x7
9d0076ac:	51a0000b 	beqzl	t5,9d0076dc <__udivdi3+0x314>
9d0076b0:	00021400 	sll	v0,v0,0x10
9d0076b4:	00a72821 	addu	a1,a1,a3
9d0076b8:	00a7182b 	sltu	v1,a1,a3
9d0076bc:	14600006 	bnez	v1,9d0076d8 <__udivdi3+0x310>
9d0076c0:	258affff 	addiu	t2,t4,-1
9d0076c4:	00ab182b 	sltu	v1,a1,t3
9d0076c8:	50600004 	beqzl	v1,9d0076dc <__udivdi3+0x314>
9d0076cc:	00021400 	sll	v0,v0,0x10
9d0076d0:	258afffe 	addiu	t2,t4,-2
9d0076d4:	00a72821 	addu	a1,a1,a3
9d0076d8:	00021400 	sll	v0,v0,0x10
9d0076dc:	01421025 	or	v0,t2,v0
9d0076e0:	00ab2823 	subu	a1,a1,t3
9d0076e4:	00460019 	multu	v0,a2
9d0076e8:	00003810 	mfhi	a3
9d0076ec:	00a7182b 	sltu	v1,a1,a3
9d0076f0:	14600044 	bnez	v1,9d007804 <__udivdi3+0x43c>
9d0076f4:	00003012 	mflo	a2
9d0076f8:	10a7003f 	beq	a1,a3,9d0077f8 <__udivdi3+0x430>
9d0076fc:	01042004 	sllv	a0,a0,t0
9d007700:	03e00008 	jr	ra
9d007704:	00001821 	move	v1,zero
9d007708:	24020020 	li	v0,32
9d00770c:	00431023 	subu	v0,v0,v1
9d007710:	00454806 	srlv	t1,a1,v0
9d007714:	00083c02 	srl	a3,t0,0x10
9d007718:	0127001b 	divu	zero,t1,a3
9d00771c:	00e001f4 	teq	a3,zero,0x7
9d007720:	00003010 	mfhi	a2
9d007724:	00006012 	mflo	t4
9d007728:	310bffff 	andi	t3,t0,0xffff
9d00772c:	00652804 	sllv	a1,a1,v1
9d007730:	00441006 	srlv	v0,a0,v0
9d007734:	00452825 	or	a1,v0,a1
9d007738:	00056c02 	srl	t5,a1,0x10
9d00773c:	00641004 	sllv	v0,a0,v1
9d007740:	00001812 	mflo	v1
9d007744:	718b5002 	mul	t2,t4,t3
9d007748:	00063400 	sll	a2,a2,0x10
9d00774c:	01a63025 	or	a2,t5,a2
9d007750:	00ca202b 	sltu	a0,a2,t2
9d007754:	0127001b 	divu	zero,t1,a3
9d007758:	00e001f4 	teq	a3,zero,0x7
9d00775c:	5080000b 	beqzl	a0,9d00778c <__udivdi3+0x3c4>
9d007760:	00ca3023 	subu	a2,a2,t2
9d007764:	00c83021 	addu	a2,a2,t0
9d007768:	00c8202b 	sltu	a0,a2,t0
9d00776c:	14800006 	bnez	a0,9d007788 <__udivdi3+0x3c0>
9d007770:	2583ffff 	addiu	v1,t4,-1
9d007774:	00ca202b 	sltu	a0,a2,t2
9d007778:	50800004 	beqzl	a0,9d00778c <__udivdi3+0x3c4>
9d00777c:	00ca3023 	subu	a2,a2,t2
9d007780:	2583fffe 	addiu	v1,t4,-2
9d007784:	00c83021 	addu	a2,a2,t0
9d007788:	00ca3023 	subu	a2,a2,t2
9d00778c:	30acffff 	andi	t4,a1,0xffff
9d007790:	00c7001b 	divu	zero,a2,a3
9d007794:	00e001f4 	teq	a3,zero,0x7
9d007798:	00002010 	mfhi	a0
9d00779c:	00005012 	mflo	t2
9d0077a0:	00004812 	mflo	t1
9d0077a4:	714b2802 	mul	a1,t2,t3
9d0077a8:	00042400 	sll	a0,a0,0x10
9d0077ac:	008c2025 	or	a0,a0,t4
9d0077b0:	0085602b 	sltu	t4,a0,a1
9d0077b4:	00c7001b 	divu	zero,a2,a3
9d0077b8:	00e001f4 	teq	a3,zero,0x7
9d0077bc:	5180000b 	beqzl	t4,9d0077ec <__udivdi3+0x424>
9d0077c0:	00031c00 	sll	v1,v1,0x10
9d0077c4:	00882021 	addu	a0,a0,t0
9d0077c8:	0088302b 	sltu	a2,a0,t0
9d0077cc:	14c00006 	bnez	a2,9d0077e8 <__udivdi3+0x420>
9d0077d0:	2549ffff 	addiu	t1,t2,-1
9d0077d4:	0085302b 	sltu	a2,a0,a1
9d0077d8:	50c00004 	beqzl	a2,9d0077ec <__udivdi3+0x424>
9d0077dc:	00031c00 	sll	v1,v1,0x10
9d0077e0:	2549fffe 	addiu	t1,t2,-2
9d0077e4:	00882021 	addu	a0,a0,t0
9d0077e8:	00031c00 	sll	v1,v1,0x10
9d0077ec:	00852023 	subu	a0,a0,a1
9d0077f0:	0b401d4c 	j	9d007530 <__udivdi3+0x168>
9d0077f4:	01231825 	or	v1,t1,v1
9d0077f8:	0086302b 	sltu	a2,a0,a2
9d0077fc:	10c0ffc0 	beqz	a2,9d007700 <__udivdi3+0x338>
9d007800:	00000000 	nop
9d007804:	0b401dc0 	j	9d007700 <__udivdi3+0x338>
9d007808:	2442ffff 	addiu	v0,v0,-1
9d00780c:	00001821 	move	v1,zero
9d007810:	03e00008 	jr	ra
9d007814:	24020001 	li	v0,1
9d007818:	0b401d61 	j	9d007584 <__udivdi3+0x1bc>
9d00781c:	00c83021 	addu	a2,a2,t0

Disassembly of section .text:

9d007820 <main>:
#include "helpers.h"
#include <math.h>
#include <stdio.h>
#include "dsp.h"

int main(void) {
9d007820:	27bdffb8 	addiu	sp,sp,-72
9d007824:	afbf0044 	sw	ra,68(sp)
9d007828:	afbe0040 	sw	s8,64(sp)
9d00782c:	afb7003c 	sw	s7,60(sp)
9d007830:	afb60038 	sw	s6,56(sp)
9d007834:	afb50034 	sw	s5,52(sp)
9d007838:	afb40030 	sw	s4,48(sp)
9d00783c:	afb3002c 	sw	s3,44(sp)
9d007840:	afb20028 	sw	s2,40(sp)
9d007844:	afb10024 	sw	s1,36(sp)
9d007848:	afb00020 	sw	s0,32(sp)
  int i;  // generic variable
  __builtin_disable_interrupts();
9d00784c:	41626000 	di	v0
9d007850:	000000c0 	ehb
  NU32_Startup();
9d007854:	0f402a31 	jal	9d00a8c4 <NU32_Startup>
9d007858:	00000000 	nop

9d00785c <.LVL0>:
  digital_init();
9d00785c:	0f40120e 	jal	9d004838 <digital_init>
9d007860:	00000000 	nop

9d007864 <.LVL1>:
  interrupt_init();
9d007864:	0f4012ed 	jal	9d004bb4 <interrupt_init>
9d007868:	00000000 	nop

9d00786c <.LVL2>:
  SPI_com_init();
9d00786c:	0f401220 	jal	9d004880 <SPI_com_init>
9d007870:	00000000 	nop

9d007874 <.LVL3>:
  SYN = 0;
9d007874:	3c02bf88 	lui	v0,0xbf88
9d007878:	94436060 	lhu	v1,24672(v0)
9d00787c:	7c034a44 	ins	v1,zero,0x9,0x1
9d007880:	a4436060 	sh	v1,24672(v0)
  CNVST = 1;
9d007884:	94436060 	lhu	v1,24672(v0)
9d007888:	24040001 	li	a0,1
9d00788c:	7c835284 	ins	v1,a0,0xa,0x1
9d007890:	a4436060 	sh	v1,24672(v0)
  __builtin_enable_interrupts();
9d007894:	41626020 	ei	v0

  NU32_ReadUART3(message,100);
9d007898:	3c10a000 	lui	s0,0xa000
9d00789c:	26040320 	addiu	a0,s0,800
9d0078a0:	0f402a76 	jal	9d00a9d8 <NU32_ReadUART3>
9d0078a4:	24050064 	li	a1,100

9d0078a8 <.LVL4>:
  sprintf(message,"%s\n\r","CONNECTED");
9d0078a8:	26040320 	addiu	a0,s0,800
9d0078ac:	3c059d01 	lui	a1,0x9d01
9d0078b0:	24a5caa0 	addiu	a1,a1,-13664
9d0078b4:	3c069d01 	lui	a2,0x9d01
9d0078b8:	0f40351c 	jal	9d00d470 <_sprintf_cdfFnopsuxX>
9d0078bc:	24c6caa8 	addiu	a2,a2,-13656

9d0078c0 <.LVL5>:
  NU32_WriteUART3(message);
9d0078c0:	0f402a93 	jal	9d00aa4c <NU32_WriteUART3>
9d0078c4:	26040320 	addiu	a0,s0,800

9d0078c8 <.LVL6>:

  while (1){
    NU32_ReadUART3(message,100);
9d0078c8:	02008821 	move	s1,s0
    sscanf(message,"%c",&option);
9d0078cc:	3c169d01 	lui	s6,0x9d01
    sprintf(message,"%c\r\n", option);
9d0078d0:	3c159d01 	lui	s5,0x9d01
      if (clfeedback == 0){
        clfeedback = 1;
        sprintf(message, "closed loop turned on\n\r");
      } else {
        clfeedback = 0;
        sprintf(message, "closed loop turned off\n\r");
9d0078d4:	3c1e9d01 	lui	s8,0x9d01
9d0078d8:	8fc2cb14 	lw	v0,-13548(s8)
9d0078dc:	afa20018 	sw	v0,24(sp)
      NU32_WriteUART3(message);
      break;
      case 'f':
      if (clfeedback == 0){
        clfeedback = 1;
        sprintf(message, "closed loop turned on\n\r");
9d0078e0:	3c179d01 	lui	s7,0x9d01
9d0078e4:	8ee2cafc 	lw	v0,-13572(s7)
9d0078e8:	afa2001c 	sw	v0,28(sp)
  NU32_ReadUART3(message,100);
  sprintf(message,"%s\n\r","CONNECTED");
  NU32_WriteUART3(message);

  while (1){
    NU32_ReadUART3(message,100);
9d0078ec:	26300320 	addiu	s0,s1,800
    sscanf(message,"%c",&option);
9d0078f0:	26d3cab4 	addiu	s3,s6,-13644
    sprintf(message,"%c\r\n", option);
9d0078f4:	26b2cab8 	addiu	s2,s5,-13640
    NU32_WriteUART3(message);
    switch (option){
9d0078f8:	3c149d00 	lui	s4,0x9d00
9d0078fc:	26947960 	addiu	s4,s4,31072
  NU32_ReadUART3(message,100);
  sprintf(message,"%s\n\r","CONNECTED");
  NU32_WriteUART3(message);

  while (1){
    NU32_ReadUART3(message,100);
9d007900:	02002021 	move	a0,s0
9d007904:	0f402a76 	jal	9d00a9d8 <NU32_ReadUART3>
9d007908:	24050064 	li	a1,100

9d00790c <.LVL7>:
    sscanf(message,"%c",&option);
9d00790c:	02002021 	move	a0,s0
9d007910:	02602821 	move	a1,s3
9d007914:	0f4034ff 	jal	9d00d3fc <_sscanf_cdfFnopuxX>
9d007918:	2786832c 	addiu	a2,gp,-31956

9d00791c <.LVL8>:
    sprintf(message,"%c\r\n", option);
9d00791c:	02002021 	move	a0,s0
9d007920:	02402821 	move	a1,s2
9d007924:	0f40351c 	jal	9d00d470 <_sprintf_cdfFnopsuxX>
9d007928:	8386832c 	lb	a2,-31956(gp)

9d00792c <.LVL9>:
    NU32_WriteUART3(message);
9d00792c:	0f402a93 	jal	9d00aa4c <NU32_WriteUART3>
9d007930:	02002021 	move	a0,s0

9d007934 <.LVL10>:
    switch (option){
9d007934:	9382832c 	lbu	v0,-31956(gp)
9d007938:	2442ff9f 	addiu	v0,v0,-97
9d00793c:	304300ff 	andi	v1,v0,0xff
9d007940:	2c63001a 	sltiu	v1,v1,26
9d007944:	1060ffee 	beqz	v1,9d007900 <.LVL6+0x38>
9d007948:	304200ff 	andi	v0,v0,0xff
9d00794c:	00021080 	sll	v0,v0,0x2
9d007950:	02821021 	addu	v0,s4,v0
9d007954:	8c420000 	lw	v0,0(v0)
9d007958:	00400008 	jr	v0
9d00795c:	00000000 	nop
9d007960:	9d0079c8 	0x9d0079c8
9d007964:	9d007900 	0x9d007900
9d007968:	9d007900 	0x9d007900
9d00796c:	9d007900 	0x9d007900
9d007970:	9d007900 	0x9d007900
9d007974:	9d007b34 	0x9d007b34
9d007978:	9d007900 	0x9d007900
9d00797c:	9d007900 	0x9d007900
9d007980:	9d007900 	0x9d007900
9d007984:	9d007900 	0x9d007900
9d007988:	9d007900 	0x9d007900
9d00798c:	9d007900 	0x9d007900
9d007990:	9d007900 	0x9d007900
9d007994:	9d007900 	0x9d007900
9d007998:	9d007b10 	0x9d007b10
9d00799c:	9d007bd4 	0x9d007bd4
9d0079a0:	9d007900 	0x9d007900
9d0079a4:	9d007900 	0x9d007900
9d0079a8:	9d007900 	0x9d007900
9d0079ac:	9d007ae8 	0x9d007ae8
9d0079b0:	9d007900 	0x9d007900
9d0079b4:	9d007900 	0x9d007900
9d0079b8:	9d007c2c 	0x9d007c2c
9d0079bc:	9d007900 	0x9d007900
9d0079c0:	9d007900 	0x9d007900
9d0079c4:	9d007ad8 	0x9d007ad8
      case 'a': // send along desired amplitude and frequency
      amplitude = 0.0;
9d0079c8:	00001021 	move	v0,zero
9d0079cc:	af8280a4 	sw	v0,-32604(gp)
      __builtin_disable_interrupts();
9d0079d0:	41626000 	di	v0
9d0079d4:	000000c0 	ehb
      NU32_ReadUART3(message,100);
9d0079d8:	26240320 	addiu	a0,s1,800
9d0079dc:	0f402a76 	jal	9d00a9d8 <NU32_ReadUART3>
9d0079e0:	24050064 	li	a1,100

9d0079e4 <.LVL11>:
      sscanf(message,"%lf",&amplitude);
9d0079e4:	26240320 	addiu	a0,s1,800
9d0079e8:	3c059d01 	lui	a1,0x9d01
9d0079ec:	24a5cac0 	addiu	a1,a1,-13632
9d0079f0:	0f4034ff 	jal	9d00d3fc <_sscanf_cdfFnopuxX>
9d0079f4:	278680a4 	addiu	a2,gp,-32604

9d0079f8 <.LVL12>:
      NU32_ReadUART3(message,100);
9d0079f8:	26240320 	addiu	a0,s1,800
9d0079fc:	0f402a76 	jal	9d00a9d8 <NU32_ReadUART3>
9d007a00:	24050064 	li	a1,100

9d007a04 <.LVL13>:
      sscanf(message,"%d",&freqi);
9d007a04:	26240320 	addiu	a0,s1,800
9d007a08:	3c059d01 	lui	a1,0x9d01
9d007a0c:	24a5cac4 	addiu	a1,a1,-13628
9d007a10:	0f4034ff 	jal	9d00d3fc <_sscanf_cdfFnopuxX>
9d007a14:	27868018 	addiu	a2,gp,-32744

9d007a18 <.LVL14>:
      if(amplitude>maxamplitude[freqi]){
9d007a18:	8f908018 	lw	s0,-32744(gp)
9d007a1c:	00101880 	sll	v1,s0,0x2
9d007a20:	3c02a000 	lui	v0,0xa000
9d007a24:	24420d58 	addiu	v0,v0,3416
9d007a28:	00621021 	addu	v0,v1,v0
9d007a2c:	8c520000 	lw	s2,0(v0)
9d007a30:	02402021 	move	a0,s2
9d007a34:	0f4033f1 	jal	9d00cfc4 <__eqsf2>
9d007a38:	8f8580a4 	lw	a1,-32604(gp)
9d007a3c:	04420001 	bltzl	v0,9d007a44 <.LVL14+0x2c>
9d007a40:	af9280a4 	sw	s2,-32604(gp)
        amplitude = maxamplitude[freqi];
      }
      if (amplitude<.0001){
9d007a44:	8f8480a4 	lw	a0,-32604(gp)
9d007a48:	3c029d01 	lui	v0,0x9d01
9d007a4c:	0f4033f1 	jal	9d00cfc4 <__eqsf2>
9d007a50:	8c45cb44 	lw	a1,-13500(v0)
9d007a54:	04410004 	bgez	v0,9d007a68 <.LVL14+0x50>
9d007a58:	00108080 	sll	s0,s0,0x2
        amplitude = .0001;
9d007a5c:	3c029d01 	lui	v0,0x9d01
9d007a60:	8c42cb44 	lw	v0,-13500(v0)
9d007a64:	af8280a4 	sw	v0,-32604(gp)
      }
      halfperiod = 1/(2*freq[freqi]);
9d007a68:	3c02a000 	lui	v0,0xa000
9d007a6c:	24420d78 	addiu	v0,v0,3448
9d007a70:	02028021 	addu	s0,s0,v0
9d007a74:	8e100000 	lw	s0,0(s0)
9d007a78:	02002021 	move	a0,s0
9d007a7c:	0f402877 	jal	9d00a1dc <__addsf3>
9d007a80:	02002821 	move	a1,s0
9d007a84:	3c039d01 	lui	v1,0x9d01
9d007a88:	8c64cb48 	lw	a0,-13496(v1)
9d007a8c:	0f4029a5 	jal	9d00a694 <__divsf3>
9d007a90:	00402821 	move	a1,v0
9d007a94:	af8280a0 	sw	v0,-32608(gp)
      sprintf(message,"%s\t%lf\t%s\t%lf\r\n", "amp",amplitude,"frequency",freq[freqi]);
9d007a98:	3c029d01 	lui	v0,0x9d01
9d007a9c:	2442cadc 	addiu	v0,v0,-13604
9d007aa0:	afa20010 	sw	v0,16(sp)
9d007aa4:	afb00014 	sw	s0,20(sp)
9d007aa8:	26240320 	addiu	a0,s1,800
9d007aac:	3c059d01 	lui	a1,0x9d01
9d007ab0:	24a5cac8 	addiu	a1,a1,-13624
9d007ab4:	3c069d01 	lui	a2,0x9d01
9d007ab8:	24c6cad8 	addiu	a2,a2,-13608
9d007abc:	0f40351c 	jal	9d00d470 <_sprintf_cdfFnopsuxX>
9d007ac0:	8f8780a4 	lw	a3,-32604(gp)

9d007ac4 <.LVL19>:
      NU32_WriteUART3(message);
9d007ac4:	0f402a93 	jal	9d00aa4c <NU32_WriteUART3>
9d007ac8:	26240320 	addiu	a0,s1,800

9d007acc <.LVL20>:
      __builtin_enable_interrupts();
9d007acc:	41626020 	ei	v0
      break;
9d007ad0:	0b401e3c 	j	9d0078f0 <.LVL6+0x28>
9d007ad4:	26300320 	addiu	s0,s1,800
      case 'z':
      amplitude = 0.0;
9d007ad8:	00001021 	move	v0,zero
9d007adc:	af8280a4 	sw	v0,-32604(gp)
      avc = 0;
      break;
9d007ae0:	0b401e3b 	j	9d0078ec <.LVL6+0x24>
9d007ae4:	af808128 	sw	zero,-32472(gp)
      case 't':
      sprintf(message,"%lf\t%lf\n\r", HALL1, HALL2);
9d007ae8:	26240320 	addiu	a0,s1,800
9d007aec:	3c059d01 	lui	a1,0x9d01
9d007af0:	24a5cae8 	addiu	a1,a1,-13592
9d007af4:	8f868104 	lw	a2,-32508(gp)
9d007af8:	0f40351c 	jal	9d00d470 <_sprintf_cdfFnopsuxX>
9d007afc:	8f8780d8 	lw	a3,-32552(gp)

9d007b00 <.LVL21>:
      NU32_WriteUART3(message);
9d007b00:	0f402a93 	jal	9d00aa4c <NU32_WriteUART3>
9d007b04:	26240320 	addiu	a0,s1,800

9d007b08 <.LVL22>:
      break;
9d007b08:	0b401e3c 	j	9d0078f0 <.LVL6+0x28>
9d007b0c:	26300320 	addiu	s0,s1,800
      case 'o':
      sprintf(message,"%d\n\r", chip_out2);
9d007b10:	26240320 	addiu	a0,s1,800
9d007b14:	3c059d01 	lui	a1,0x9d01
9d007b18:	24a5caf4 	addiu	a1,a1,-13580
9d007b1c:	0f40351c 	jal	9d00d470 <_sprintf_cdfFnopsuxX>
9d007b20:	8f868134 	lw	a2,-32460(gp)

9d007b24 <.LVL23>:
      NU32_WriteUART3(message);
9d007b24:	0f402a93 	jal	9d00aa4c <NU32_WriteUART3>
9d007b28:	26240320 	addiu	a0,s1,800

9d007b2c <.LVL24>:
      break;
9d007b2c:	0b401e3c 	j	9d0078f0 <.LVL6+0x28>
9d007b30:	26300320 	addiu	s0,s1,800
      case 'f':
      if (clfeedback == 0){
9d007b34:	8f828108 	lw	v0,-32504(gp)
9d007b38:	54400012 	bnezl	v0,9d007b84 <.LVL24+0x58>
9d007b3c:	af808108 	sw	zero,-32504(gp)
        clfeedback = 1;
9d007b40:	24020001 	li	v0,1
9d007b44:	af828108 	sw	v0,-32504(gp)
        sprintf(message, "closed loop turned on\n\r");
9d007b48:	26e2cafc 	addiu	v0,s7,-13572
9d007b4c:	8c470004 	lw	a3,4(v0)
9d007b50:	8c460008 	lw	a2,8(v0)
9d007b54:	8c45000c 	lw	a1,12(v0)
9d007b58:	8c440010 	lw	a0,16(v0)
9d007b5c:	8c430014 	lw	v1,20(v0)
9d007b60:	8fa2001c 	lw	v0,28(sp)
9d007b64:	ae220320 	sw	v0,800(s1)
9d007b68:	26220320 	addiu	v0,s1,800
9d007b6c:	ac470004 	sw	a3,4(v0)
9d007b70:	ac460008 	sw	a2,8(v0)
9d007b74:	ac45000c 	sw	a1,12(v0)
9d007b78:	ac440010 	sw	a0,16(v0)
9d007b7c:	0b401ef1 	j	9d007bc4 <.LVL24+0x98>
9d007b80:	ac430014 	sw	v1,20(v0)
      } else {
        clfeedback = 0;
        sprintf(message, "closed loop turned off\n\r");
9d007b84:	27c3cb14 	addiu	v1,s8,-13548
9d007b88:	8c680004 	lw	t0,4(v1)
9d007b8c:	8c670008 	lw	a3,8(v1)
9d007b90:	8c66000c 	lw	a2,12(v1)
9d007b94:	8c650010 	lw	a1,16(v1)
9d007b98:	8c640014 	lw	a0,20(v1)
9d007b9c:	8fa20018 	lw	v0,24(sp)
9d007ba0:	ae220320 	sw	v0,800(s1)
9d007ba4:	26220320 	addiu	v0,s1,800
9d007ba8:	ac480004 	sw	t0,4(v0)
9d007bac:	ac470008 	sw	a3,8(v0)
9d007bb0:	ac46000c 	sw	a2,12(v0)
9d007bb4:	ac450010 	sw	a1,16(v0)
9d007bb8:	ac440014 	sw	a0,20(v0)
9d007bbc:	90630018 	lbu	v1,24(v1)
9d007bc0:	a0430018 	sb	v1,24(v0)
      }
      NU32_WriteUART3(message);
9d007bc4:	0f402a93 	jal	9d00aa4c <NU32_WriteUART3>
9d007bc8:	26240320 	addiu	a0,s1,800

9d007bcc <.LVL25>:
      break;
9d007bcc:	0b401e3c 	j	9d0078f0 <.LVL6+0x28>
9d007bd0:	26300320 	addiu	s0,s1,800
      case 'p':
      sprintf(message,"%lf\t%lf\n\r", HALL1amp,HALL2amp);
9d007bd4:	26240320 	addiu	a0,s1,800
9d007bd8:	3c059d01 	lui	a1,0x9d01
9d007bdc:	24a5cae8 	addiu	a1,a1,-13592
9d007be0:	8f8680f0 	lw	a2,-32528(gp)
9d007be4:	0f40351c 	jal	9d00d470 <_sprintf_cdfFnopsuxX>
9d007be8:	8f8780c4 	lw	a3,-32572(gp)

9d007bec <.LVL26>:
      NU32_WriteUART3(message);
9d007bec:	0f402a93 	jal	9d00aa4c <NU32_WriteUART3>
9d007bf0:	26240320 	addiu	a0,s1,800

9d007bf4 <.LVL27>:
      sprintf(message,"%lf\t%lf\t%lf\t%lf\n\r", HALL1pha, HALL2pha,control_pha_H1,control_pha_H2);
9d007bf4:	8f8280dc 	lw	v0,-32548(gp)
9d007bf8:	afa20010 	sw	v0,16(sp)
9d007bfc:	8f8280b0 	lw	v0,-32592(gp)
9d007c00:	afa20014 	sw	v0,20(sp)
9d007c04:	26240320 	addiu	a0,s1,800
9d007c08:	3c059d01 	lui	a1,0x9d01
9d007c0c:	24a5cb30 	addiu	a1,a1,-13520
9d007c10:	8f8680ec 	lw	a2,-32532(gp)
9d007c14:	0f40351c 	jal	9d00d470 <_sprintf_cdfFnopsuxX>
9d007c18:	8f8780c0 	lw	a3,-32576(gp)

9d007c1c <.LVL28>:
      NU32_WriteUART3(message);
9d007c1c:	0f402a93 	jal	9d00aa4c <NU32_WriteUART3>
9d007c20:	26240320 	addiu	a0,s1,800

9d007c24 <.LVL29>:
      break;
9d007c24:	0b401e3c 	j	9d0078f0 <.LVL6+0x28>
9d007c28:	26300320 	addiu	s0,s1,800
      case 'w':
      NU32_ReadUART3(message,100);
9d007c2c:	26240320 	addiu	a0,s1,800
9d007c30:	0f402a76 	jal	9d00a9d8 <NU32_ReadUART3>
9d007c34:	24050064 	li	a1,100

9d007c38 <.LVL30>:
      sscanf(message,"%d",&wavetype);
9d007c38:	26240320 	addiu	a0,s1,800
9d007c3c:	3c059d01 	lui	a1,0x9d01
9d007c40:	24a5cac4 	addiu	a1,a1,-13628
9d007c44:	0f4034ff 	jal	9d00d3fc <_sscanf_cdfFnopuxX>
9d007c48:	27868098 	addiu	a2,gp,-32616

9d007c4c <.LVL31>:
      break;
9d007c4c:	0b401e3c 	j	9d0078f0 <.LVL6+0x28>
9d007c50:	26300320 	addiu	s0,s1,800

Disassembly of section .text.dp32subadd:

9d007c54 <__subdf3>:
9d007c54:	3c018000 00e13826                       ...<&8..

9d007c5c <__adddf3>:
9d007c5c:	00055840 000b5d42 000552c0 00047d42     @X..B]...R..B}..
9d007c6c:	014f5025 00044ac0 3c088000 01485025     %PO..J.....<%PH.
9d007c7c:	00077040 000e7542 00076ac0 00067d42     @p..Bu...j..B}..
9d007c8c:	01af6825 000662c0 01a86825 256fffff     %h...b..%h....o%
9d007c9c:	2de107fe 1020008d 00000000              ...-.. .....

9d007ca8 <Blab1>:
9d007ca8:	25cfffff 	addiu	t7,t6,-1
9d007cac:	2de107fe 	sltiu	at,t7,2046
9d007cb0:	102000bb 	beqz	at,9d007fa0 <BspecB>
9d007cb4:	00000000 	nop

9d007cb8 <Blab2>:
9d007cb8:	3c018000 	lui	at,0x8000
9d007cbc:	00a12824 	and	a1,a1,at
9d007cc0:	016e4023 	subu	t0,t3,t6
9d007cc4:	1100002c 	beqz	t0,9d007d78 <Badd3>
9d007cc8:	00000000 	nop
9d007ccc:	19000015 	blez	t0,9d007d24 <i1>
9d007cd0:	00000000 	nop

9d007cd4 <L1>:
9d007cd4:	2d010020 	sltiu	at,t0,32
9d007cd8:	14200007 	bnez	at,9d007cf8 <L2>
9d007cdc:	00000000 	nop
9d007ce0:	2108ffe0 	addi	t0,t0,-32
9d007ce4:	000c302b 	sltu	a2,zero,t4
9d007ce8:	100d0023 	beq	zero,t5,9d007d78 <Badd3>
9d007cec:	01a66025 	or	t4,t5,a2
9d007cf0:	1000fff8 	b	9d007cd4 <L1>
9d007cf4:	340d0000 	li	t5,0x0

9d007cf8 <L2>:
9d007cf8:	1100001f 	beqz	t0,9d007d78 <Badd3>
9d007cfc:	00000000 	nop
9d007d00:	00082022 	neg	a0,t0
9d007d04:	008c3004 	sllv	a2,t4,a0
9d007d08:	008d2004 	sllv	a0,t5,a0
9d007d0c:	010c6006 	srlv	t4,t4,t0
9d007d10:	010d6806 	srlv	t5,t5,t0
9d007d14:	10c00018 	beqz	a2,9d007d78 <Badd3>
9d007d18:	008c6025 	or	t4,a0,t4
9d007d1c:	10000016 	b	9d007d78 <Badd3>
9d007d20:	358c0002 	ori	t4,t4,0x2

9d007d24 <i1>:
9d007d24:	000e5825 	or	t3,zero,t6
9d007d28:	00084023 	negu	t0,t0

9d007d2c <L4>:
9d007d2c:	2d010020 	sltiu	at,t0,32
9d007d30:	14200007 	bnez	at,9d007d50 <L5>
9d007d34:	00000000 	nop
9d007d38:	2108ffe0 	addi	t0,t0,-32
9d007d3c:	0009302b 	sltu	a2,zero,t1
9d007d40:	100a000d 	beq	zero,t2,9d007d78 <Badd3>
9d007d44:	01464825 	or	t1,t2,a2
9d007d48:	1000fff8 	b	9d007d2c <L4>
9d007d4c:	340a0000 	li	t2,0x0

9d007d50 <L5>:
9d007d50:	11000009 	beqz	t0,9d007d78 <Badd3>
9d007d54:	00000000 	nop
9d007d58:	00082022 	neg	a0,t0
9d007d5c:	00893004 	sllv	a2,t1,a0
9d007d60:	008a2004 	sllv	a0,t2,a0
9d007d64:	01094806 	srlv	t1,t1,t0
9d007d68:	010a5006 	srlv	t2,t2,t0
9d007d6c:	10c00002 	beqz	a2,9d007d78 <Badd3>
9d007d70:	00894825 	or	t1,a0,t1
9d007d74:	35290002 	ori	t1,t1,0x2

9d007d78 <Badd3>:
9d007d78:	00a77826 	xor	t7,a1,a3
9d007d7c:	05e0001c 	bltz	t7,9d007df0 <Bsub1>
9d007d80:	00000000 	nop
9d007d84:	012c4821 	addu	t1,t1,t4
9d007d88:	012c782b 	sltu	t7,t1,t4
9d007d8c:	014d5021 	addu	t2,t2,t5
9d007d90:	014f5021 	addu	t2,t2,t7
9d007d94:	114d0002 	beq	t2,t5,9d007da0 <L7>
9d007d98:	00000000 	nop
9d007d9c:	014d782b 	sltu	t7,t2,t5

9d007da0 <L7>:
9d007da0:	11e00037 	beqz	t7,9d007e80 <Bres>
9d007da4:	00000000 	nop
9d007da8:	312f0001 	andi	t7,t1,0x1
9d007dac:	11e00002 	beqz	t7,9d007db8 <i3>
9d007db0:	00000000 	nop
9d007db4:	35290002 	ori	t1,t1,0x2

9d007db8 <i3>:
9d007db8:	00094842 	srl	t1,t1,0x1
9d007dbc:	000a7fc0 	sll	t7,t2,0x1f
9d007dc0:	012f4825 	or	t1,t1,t7
9d007dc4:	000a5042 	srl	t2,t2,0x1
9d007dc8:	3c018000 	lui	at,0x8000
9d007dcc:	01415025 	or	t2,t2,at
9d007dd0:	256b0001 	addiu	t3,t3,1
9d007dd4:	240107ff 	li	at,2047
9d007dd8:	15610029 	bne	t3,at,9d007e80 <Bres>
9d007ddc:	00000000 	nop
9d007de0:	3c017ff0 	lui	at,0x7ff0
9d007de4:	00a12825 	or	a1,a1,at
9d007de8:	10000037 	b	9d007ec8 <BretA>
9d007dec:	24040000 	li	a0,0

9d007df0 <Bsub1>:
9d007df0:	012c782b 	sltu	t7,t1,t4
9d007df4:	012c4823 	subu	t1,t1,t4
9d007df8:	014f102b 	sltu	v0,t2,t7
9d007dfc:	014f5023 	subu	t2,t2,t7
9d007e00:	014d782b 	sltu	t7,t2,t5
9d007e04:	01e27825 	or	t7,t7,v0
9d007e08:	11e00007 	beqz	t7,9d007e28 <i5>
9d007e0c:	014d5023 	subu	t2,t2,t5
9d007e10:	3c018000 	lui	at,0x8000
9d007e14:	00a12826 	xor	a1,a1,at
9d007e18:	0009782b 	sltu	t7,zero,t1
9d007e1c:	00094823 	negu	t1,t1
9d007e20:	000a5023 	negu	t2,t2
9d007e24:	014f5023 	subu	t2,t2,t7

9d007e28 <i5>:
9d007e28:	15400008 	bnez	t2,9d007e4c <L8>
9d007e2c:	00000000 	nop
9d007e30:	15200003 	bnez	t1,9d007e40 <L9>
9d007e34:	00000000 	nop
9d007e38:	1000000d 	b	9d007e70 <L10>
9d007e3c:	240b0000 	li	t3,0

9d007e40 <L9>:
9d007e40:	01205025 	move	t2,t1
9d007e44:	24090000 	li	t1,0
9d007e48:	256bffe0 	addiu	t3,t3,-32

9d007e4c <L8>:
9d007e4c:	71484020 	clz	t0,t2
9d007e50:	11000007 	beqz	t0,9d007e70 <L10>
9d007e54:	00000000 	nop
9d007e58:	01685823 	subu	t3,t3,t0
9d007e5c:	00082022 	neg	a0,t0
9d007e60:	00892006 	srlv	a0,t1,a0
9d007e64:	01094804 	sllv	t1,t1,t0
9d007e68:	010a5004 	sllv	t2,t2,t0
9d007e6c:	01445025 	or	t2,t2,a0

9d007e70 <L10>:
9d007e70:	01497825 	or	t7,t2,t1
9d007e74:	15e00002 	bnez	t7,9d007e80 <Bres>
9d007e78:	00000000 	nop
9d007e7c:	24050000 	li	a1,0

9d007e80 <Bres>:
9d007e80:	19600068 	blez	t3,9d008024 <Bund>
9d007e84:	00000000 	nop

9d007e88 <Blab8>:
9d007e88:	25290400 	addiu	t1,t1,1024
9d007e8c:	2d2f0400 	sltiu	t7,t1,1024
9d007e90:	014f5021 	addu	t2,t2,t7
9d007e94:	014f782b 	sltu	t7,t2,t7
9d007e98:	016f5821 	addu	t3,t3,t7
9d007e9c:	00097ac2 	srl	t7,t1,0xb
9d007ea0:	31ef0001 	andi	t7,t7,0x1
9d007ea4:	012f4823 	subu	t1,t1,t7
9d007ea8:	000922c2 	srl	a0,t1,0xb
9d007eac:	000a7d40 	sll	t7,t2,0x15
9d007eb0:	008f2025 	or	a0,a0,t7
9d007eb4:	000a7840 	sll	t7,t2,0x1
9d007eb8:	000f7b02 	srl	t7,t7,0xc
9d007ebc:	00af2825 	or	a1,a1,t7
9d007ec0:	000b7d00 	sll	t7,t3,0x14
9d007ec4:	00af2825 	or	a1,a1,t7

9d007ec8 <BretA>:
9d007ec8:	00041025 	or	v0,zero,a0
9d007ecc:	00051825 	or	v1,zero,a1

9d007ed0 <B999>:
9d007ed0:	03e00008 	jr	ra
9d007ed4:	00000000 	nop

9d007ed8 <BspecA>:
9d007ed8:	0120782a 	slt	t7,t1,zero
9d007edc:	01294821 	addu	t1,t1,t1
9d007ee0:	014a5021 	addu	t2,t2,t2
9d007ee4:	15600023 	bnez	t3,9d007f74 <i7>
9d007ee8:	014f5021 	addu	t2,t2,t7
9d007eec:	01497825 	or	t7,t2,t1
9d007ef0:	11e00014 	beqz	t7,9d007f44 <i8>
9d007ef4:	00000000 	nop
9d007ef8:	15400008 	bnez	t2,9d007f1c <L11>
9d007efc:	00000000 	nop
9d007f00:	15200003 	bnez	t1,9d007f10 <L12>
9d007f04:	00000000 	nop
9d007f08:	1000ff67 	b	9d007ca8 <Blab1>
9d007f0c:	240b0000 	li	t3,0

9d007f10 <L12>:
9d007f10:	01205025 	move	t2,t1
9d007f14:	24090000 	li	t1,0
9d007f18:	256bffe0 	addiu	t3,t3,-32

9d007f1c <L11>:
9d007f1c:	71484020 	clz	t0,t2
9d007f20:	1100ff61 	beqz	t0,9d007ca8 <Blab1>
9d007f24:	00000000 	nop
9d007f28:	01685823 	subu	t3,t3,t0
9d007f2c:	00082022 	neg	a0,t0
9d007f30:	00892006 	srlv	a0,t1,a0
9d007f34:	01094804 	sllv	t1,t1,t0
9d007f38:	010a5004 	sllv	t2,t2,t0
9d007f3c:	1000ff5a 	b	9d007ca8 <Blab1>
9d007f40:	01445025 	or	t2,t2,a0

9d007f44 <i8>:
9d007f44:	240107ff 	li	at,2047
9d007f48:	11c10015 	beq	t6,at,9d007fa0 <BspecB>
9d007f4c:	00000000 	nop
9d007f50:	00e74021 	addu	t0,a3,a3
9d007f54:	01067825 	or	t7,t0,a2
9d007f58:	15e00003 	bnez	t7,9d007f68 <BretB>
9d007f5c:	00000000 	nop
9d007f60:	04e0ffd9 	bltz	a3,9d007ec8 <BretA>
9d007f64:	00000000 	nop

9d007f68 <BretB>:
9d007f68:	00061025 	or	v0,zero,a2
9d007f6c:	1000ffd8 	b	9d007ed0 <B999>
9d007f70:	00071825 	or	v1,zero,a3

9d007f74 <i7>:
9d007f74:	01497825 	or	t7,t2,t1
9d007f78:	15e00027 	bnez	t7,9d008018 <Bnan>
9d007f7c:	00000000 	nop
9d007f80:	240107ff 	li	at,2047
9d007f84:	15c1ffd0 	bne	t6,at,9d007ec8 <BretA>
9d007f88:	00000000 	nop
9d007f8c:	00a77826 	xor	t7,a1,a3
9d007f90:	05e00021 	bltz	t7,9d008018 <Bnan>
9d007f94:	00000000 	nop
9d007f98:	1000fff3 	b	9d007f68 <BretB>
9d007f9c:	00000000 	nop

9d007fa0 <BspecB>:
9d007fa0:	0180782a 	slt	t7,t4,zero
9d007fa4:	018c6021 	addu	t4,t4,t4
9d007fa8:	01ad6821 	addu	t5,t5,t5
9d007fac:	15c00017 	bnez	t6,9d00800c <i11>
9d007fb0:	01af6821 	addu	t5,t5,t7
9d007fb4:	01ac7825 	or	t7,t5,t4
9d007fb8:	11e0ffc3 	beqz	t7,9d007ec8 <BretA>
9d007fbc:	00000000 	nop
9d007fc0:	15a00008 	bnez	t5,9d007fe4 <L14>
9d007fc4:	00000000 	nop
9d007fc8:	15800003 	bnez	t4,9d007fd8 <L15>
9d007fcc:	00000000 	nop
9d007fd0:	1000ff39 	b	9d007cb8 <Blab2>
9d007fd4:	240e0000 	li	t6,0

9d007fd8 <L15>:
9d007fd8:	01806825 	move	t5,t4
9d007fdc:	240c0000 	li	t4,0
9d007fe0:	25ceffe0 	addiu	t6,t6,-32

9d007fe4 <L14>:
9d007fe4:	71a84020 	clz	t0,t5
9d007fe8:	1100ff33 	beqz	t0,9d007cb8 <Blab2>
9d007fec:	00000000 	nop
9d007ff0:	01c87023 	subu	t6,t6,t0
9d007ff4:	00082022 	neg	a0,t0
9d007ff8:	008c2006 	srlv	a0,t4,a0
9d007ffc:	010c6004 	sllv	t4,t4,t0
9d008000:	010d6804 	sllv	t5,t5,t0
9d008004:	1000ff2c 	b	9d007cb8 <Blab2>
9d008008:	01a46825 	or	t5,t5,a0

9d00800c <i11>:
9d00800c:	01ac7825 	or	t7,t5,t4
9d008010:	11e0ffd5 	beqz	t7,9d007f68 <BretB>
9d008014:	00000000 	nop

9d008018 <Bnan>:
9d008018:	3c05fff8 	lui	a1,0xfff8
9d00801c:	1000ffaa 	b	9d007ec8 <BretA>
9d008020:	24040000 	li	a0,0

9d008024 <Bund>:
9d008024:	24080001 	li	t0,1
9d008028:	010b4023 	subu	t0,t0,t3

9d00802c <L17>:
9d00802c:	2d010020 	sltiu	at,t0,32
9d008030:	14200007 	bnez	at,9d008050 <L18>
9d008034:	00000000 	nop
9d008038:	2108ffe0 	addi	t0,t0,-32
9d00803c:	0009302b 	sltu	a2,zero,t1
9d008040:	100a000d 	beq	zero,t2,9d008078 <L19>
9d008044:	01464825 	or	t1,t2,a2
9d008048:	1000fff8 	b	9d00802c <L17>
9d00804c:	340a0000 	li	t2,0x0

9d008050 <L18>:
9d008050:	11000009 	beqz	t0,9d008078 <L19>
9d008054:	00000000 	nop
9d008058:	00082022 	neg	a0,t0
9d00805c:	00893004 	sllv	a2,t1,a0
9d008060:	008a2004 	sllv	a0,t2,a0
9d008064:	01094806 	srlv	t1,t1,t0
9d008068:	010a5006 	srlv	t2,t2,t0
9d00806c:	10c00002 	beqz	a2,9d008078 <L19>
9d008070:	00894825 	or	t1,a0,t1
9d008074:	35290002 	ori	t1,t1,0x2

9d008078 <L19>:
9d008078:	1000ff83 	b	9d007e88 <Blab8>
9d00807c:	240b0000 	li	t3,0
9d008080:	00000000 	nop

Disassembly of section .text.__strtod:

9d008084 <__strtod>:
9d008084:	27bdffc8 	addiu	sp,sp,-56

9d008088 <.LCFI0>:
9d008088:	afbf0034 	sw	ra,52(sp)
9d00808c:	afbe0030 	sw	s8,48(sp)
9d008090:	afb7002c 	sw	s7,44(sp)
9d008094:	afb60028 	sw	s6,40(sp)
9d008098:	afb50024 	sw	s5,36(sp)
9d00809c:	afb40020 	sw	s4,32(sp)
9d0080a0:	afb3001c 	sw	s3,28(sp)
9d0080a4:	afb20018 	sw	s2,24(sp)
9d0080a8:	afb10014 	sw	s1,20(sp)
9d0080ac:	afb00010 	sw	s0,16(sp)
9d0080b0:	0080b821 	move	s7,a0
9d0080b4:	80820000 	lb	v0,0(a0)
9d0080b8:	3c1e9d01 	lui	s8,0x9d01
9d0080bc:	27debf79 	addiu	s8,s8,-16519
9d0080c0:	03c21821 	addu	v1,s8,v0
9d0080c4:	80630000 	lb	v1,0(v1)
9d0080c8:	00a0a821 	move	s5,a1
9d0080cc:	30630088 	andi	v1,v1,0x88
9d0080d0:	10600008 	beqz	v1,9d0080f4 <.LCFI0+0x6c>
9d0080d4:	0080a021 	move	s4,a0
9d0080d8:	26940001 	addiu	s4,s4,1
9d0080dc:	82820000 	lb	v0,0(s4)
9d0080e0:	03c21821 	addu	v1,s8,v0
9d0080e4:	80630000 	lb	v1,0(v1)
9d0080e8:	30630088 	andi	v1,v1,0x88
9d0080ec:	5460fffb 	bnezl	v1,9d0080dc <.LCFI0+0x54>
9d0080f0:	26940001 	addiu	s4,s4,1
9d0080f4:	2403002d 	li	v1,45
9d0080f8:	10430098 	beq	v0,v1,9d00835c <.LCFI0+0x2d4>
9d0080fc:	3842002b 	xori	v0,v0,0x2b
9d008100:	2c420001 	sltiu	v0,v0,1
9d008104:	00009821 	move	s3,zero
9d008108:	0282a021 	addu	s4,s4,v0
9d00810c:	82860000 	lb	a2,0(s4)
9d008110:	03c61021 	addu	v0,s8,a2
9d008114:	90420000 	lbu	v0,0(v0)
9d008118:	30420004 	andi	v0,v0,0x4
9d00811c:	00008821 	move	s1,zero
9d008120:	104000bc 	beqz	v0,9d008414 <.LCFI0+0x38c>
9d008124:	00008021 	move	s0,zero
9d008128:	00009021 	move	s2,zero
9d00812c:	24d6ffd0 	addiu	s6,a2,-48
9d008130:	02002821 	move	a1,s0
9d008134:	02202021 	move	a0,s1
9d008138:	00003021 	move	a2,zero
9d00813c:	0f4023a1 	jal	9d008e84 <__muldf3>
9d008140:	3c074024 	lui	a3,0x4024
9d008144:	00408021 	move	s0,v0
9d008148:	00608821 	move	s1,v1
9d00814c:	0f4034e1 	jal	9d00d384 <__floatsidf>
9d008150:	02c02021 	move	a0,s6
9d008154:	02002021 	move	a0,s0
9d008158:	02202821 	move	a1,s1
9d00815c:	00403021 	move	a2,v0
9d008160:	00603821 	move	a3,v1
9d008164:	0f401f17 	jal	9d007c5c <__adddf3>
9d008168:	26940001 	addiu	s4,s4,1
9d00816c:	00408821 	move	s1,v0
9d008170:	00608021 	move	s0,v1
9d008174:	82860000 	lb	a2,0(s4)
9d008178:	03c61021 	addu	v0,s8,a2
9d00817c:	90420000 	lbu	v0,0(v0)
9d008180:	30420004 	andi	v0,v0,0x4
9d008184:	1440ffe9 	bnez	v0,9d00812c <.LCFI0+0xa4>
9d008188:	02569025 	or	s2,s2,s6
9d00818c:	24030001 	li	v1,1
9d008190:	2402002e 	li	v0,46
9d008194:	50c20048 	beql	a2,v0,9d0082b8 <.LCFI0+0x230>
9d008198:	82820001 	lb	v0,1(s4)
9d00819c:	54600072 	bnezl	v1,9d008368 <.LCFI0+0x2e0>
9d0081a0:	82820000 	lb	v0,0(s4)
9d0081a4:	12a0002a 	beqz	s5,9d008250 <.LCFI0+0x1c8>
9d0081a8:	00000000 	nop
9d0081ac:	02e0a021 	move	s4,s7
9d0081b0:	0000b821 	move	s7,zero
9d0081b4:	aeb40000 	sw	s4,0(s5)
9d0081b8:	12e00025 	beqz	s7,9d008250 <.LCFI0+0x1c8>
9d0081bc:	00004021 	move	t0,zero
9d0081c0:	001717c3 	sra	v0,s7,0x1f
9d0081c4:	0057b026 	xor	s6,v0,s7
9d0081c8:	02c2b023 	subu	s6,s6,v0
9d0081cc:	3c159d01 	lui	s5,0x9d01
9d0081d0:	26b5dac0 	addiu	s5,s5,-9536
9d0081d4:	3c093ff0 	lui	t1,0x3ff0
9d0081d8:	0b40207a 	j	9d0081e8 <.LCFI0+0x160>
9d0081dc:	24140009 	li	s4,9
9d0081e0:	1280000e 	beqz	s4,9d00821c <.LCFI0+0x194>
9d0081e4:	26b5fff8 	addiu	s5,s5,-8
9d0081e8:	2694ffff 	addiu	s4,s4,-1
9d0081ec:	02961007 	srav	v0,s6,s4
9d0081f0:	30420001 	andi	v0,v0,0x1
9d0081f4:	1040fffa 	beqz	v0,9d0081e0 <.LCFI0+0x158>
9d0081f8:	01002021 	move	a0,t0
9d0081fc:	8ea60000 	lw	a2,0(s5)
9d008200:	8ea70004 	lw	a3,4(s5)
9d008204:	0f4023a1 	jal	9d008e84 <__muldf3>
9d008208:	01202821 	move	a1,t1
9d00820c:	00404021 	move	t0,v0
9d008210:	00604821 	move	t1,v1
9d008214:	1680fff4 	bnez	s4,9d0081e8 <.LCFI0+0x160>
9d008218:	26b5fff8 	addiu	s5,s5,-8
9d00821c:	02202021 	move	a0,s1
9d008220:	02002821 	move	a1,s0
9d008224:	01003021 	move	a2,t0
9d008228:	06e00075 	bltz	s7,9d008400 <.LCFI0+0x378>
9d00822c:	01203821 	move	a3,t1
9d008230:	0f4023a1 	jal	9d008e84 <__muldf3>
9d008234:	00000000 	nop
9d008238:	00402021 	move	a0,v0
9d00823c:	00602821 	move	a1,v1
9d008240:	0f402b7c 	jal	9d00adf0 <__ldexp>
9d008244:	02e03021 	move	a2,s7
9d008248:	00408821 	move	s1,v0
9d00824c:	00608021 	move	s0,v1
9d008250:	1220007b 	beqz	s1,9d008440 <.LCFI0+0x3b8>
9d008254:	7e02f000 	ext	v0,s0,0x0,0x1f
9d008258:	02301025 	or	v0,s1,s0
9d00825c:	10400073 	beqz	v0,9d00842c <.LCFI0+0x3a4>
9d008260:	00000000 	nop
9d008264:	12600007 	beqz	s3,9d008284 <.LCFI0+0x1fc>
9d008268:	02201021 	move	v0,s1
9d00826c:	02202021 	move	a0,s1
9d008270:	0f4037fa 	jal	9d00dfe8 <.LFE6>
9d008274:	02002821 	move	a1,s0
9d008278:	00408821 	move	s1,v0
9d00827c:	00608021 	move	s0,v1
9d008280:	02201021 	move	v0,s1
9d008284:	02001821 	move	v1,s0
9d008288:	8fbf0034 	lw	ra,52(sp)
9d00828c:	8fbe0030 	lw	s8,48(sp)
9d008290:	8fb7002c 	lw	s7,44(sp)
9d008294:	8fb60028 	lw	s6,40(sp)
9d008298:	8fb50024 	lw	s5,36(sp)
9d00829c:	8fb40020 	lw	s4,32(sp)
9d0082a0:	8fb3001c 	lw	s3,28(sp)
9d0082a4:	8fb20018 	lw	s2,24(sp)
9d0082a8:	8fb10014 	lw	s1,20(sp)
9d0082ac:	8fb00010 	lw	s0,16(sp)
9d0082b0:	03e00008 	jr	ra
9d0082b4:	27bd0038 	addiu	sp,sp,56
9d0082b8:	03c22021 	addu	a0,s8,v0
9d0082bc:	90840000 	lbu	a0,0(a0)
9d0082c0:	30840004 	andi	a0,a0,0x4
9d0082c4:	1080ffb5 	beqz	a0,9d00819c <.LCFI0+0x114>
9d0082c8:	26940001 	addiu	s4,s4,1
9d0082cc:	0000b821 	move	s7,zero
9d0082d0:	2456ffd0 	addiu	s6,v0,-48
9d0082d4:	02002821 	move	a1,s0
9d0082d8:	02202021 	move	a0,s1
9d0082dc:	00003021 	move	a2,zero
9d0082e0:	0f4023a1 	jal	9d008e84 <__muldf3>
9d0082e4:	3c074024 	lui	a3,0x4024
9d0082e8:	00408021 	move	s0,v0
9d0082ec:	00608821 	move	s1,v1
9d0082f0:	0f4034e1 	jal	9d00d384 <__floatsidf>
9d0082f4:	02c02021 	move	a0,s6
9d0082f8:	02002021 	move	a0,s0
9d0082fc:	02202821 	move	a1,s1
9d008300:	00403021 	move	a2,v0
9d008304:	00603821 	move	a3,v1
9d008308:	0f401f17 	jal	9d007c5c <__adddf3>
9d00830c:	26940001 	addiu	s4,s4,1
9d008310:	00408821 	move	s1,v0
9d008314:	00608021 	move	s0,v1
9d008318:	82820000 	lb	v0,0(s4)
9d00831c:	02569025 	or	s2,s2,s6
9d008320:	03c21821 	addu	v1,s8,v0
9d008324:	90630000 	lbu	v1,0(v1)
9d008328:	30630004 	andi	v1,v1,0x4
9d00832c:	1460ffe8 	bnez	v1,9d0082d0 <.LCFI0+0x248>
9d008330:	26f7ffff 	addiu	s7,s7,-1
9d008334:	2404ffdf 	li	a0,-33
9d008338:	00441824 	and	v1,v0,a0
9d00833c:	7c031c20 	seb	v1,v1
9d008340:	24020045 	li	v0,69
9d008344:	5062000f 	beql	v1,v0,9d008384 <.LCFI0+0x2fc>
9d008348:	82830001 	lb	v1,1(s4)
9d00834c:	56a0ff9a 	bnezl	s5,9d0081b8 <.LCFI0+0x130>
9d008350:	aeb40000 	sw	s4,0(s5)
9d008354:	0b40206e 	j	9d0081b8 <.LCFI0+0x130>
9d008358:	00000000 	nop
9d00835c:	26940001 	addiu	s4,s4,1
9d008360:	0b402043 	j	9d00810c <.LCFI0+0x84>
9d008364:	24130001 	li	s3,1
9d008368:	2404ffdf 	li	a0,-33
9d00836c:	00441824 	and	v1,v0,a0
9d008370:	7c031c20 	seb	v1,v1
9d008374:	24020045 	li	v0,69
9d008378:	1462fff4 	bne	v1,v0,9d00834c <.LCFI0+0x2c4>
9d00837c:	0000b821 	move	s7,zero
9d008380:	82830001 	lb	v1,1(s4)
9d008384:	2402002d 	li	v0,45
9d008388:	10620019 	beq	v1,v0,9d0083f0 <.LCFI0+0x368>
9d00838c:	2402002b 	li	v0,43
9d008390:	50620023 	beql	v1,v0,9d008420 <.LCFI0+0x398>
9d008394:	82830002 	lb	v1,2(s4)
9d008398:	26940001 	addiu	s4,s4,1
9d00839c:	00003821 	move	a3,zero
9d0083a0:	03c31021 	addu	v0,s8,v1
9d0083a4:	90420000 	lbu	v0,0(v0)
9d0083a8:	30420004 	andi	v0,v0,0x4
9d0083ac:	1040000c 	beqz	v0,9d0083e0 <.LCFI0+0x358>
9d0083b0:	00001021 	move	v0,zero
9d0083b4:	26940001 	addiu	s4,s4,1
9d0083b8:	2465ffd0 	addiu	a1,v1,-48
9d0083bc:	82830000 	lb	v1,0(s4)
9d0083c0:	00023040 	sll	a2,v0,0x1
9d0083c4:	000210c0 	sll	v0,v0,0x3
9d0083c8:	03c32021 	addu	a0,s8,v1
9d0083cc:	90840000 	lbu	a0,0(a0)
9d0083d0:	00c21021 	addu	v0,a2,v0
9d0083d4:	30840004 	andi	a0,a0,0x4
9d0083d8:	1480fff6 	bnez	a0,9d0083b4 <.LCFI0+0x32c>
9d0083dc:	00451021 	addu	v0,v0,a1
9d0083e0:	00021823 	negu	v1,v0
9d0083e4:	0067100b 	movn	v0,v1,a3
9d0083e8:	0b4020d3 	j	9d00834c <.LCFI0+0x2c4>
9d0083ec:	02e2b821 	addu	s7,s7,v0
9d0083f0:	82830002 	lb	v1,2(s4)
9d0083f4:	24070001 	li	a3,1
9d0083f8:	0b4020e8 	j	9d0083a0 <.LCFI0+0x318>
9d0083fc:	26940002 	addiu	s4,s4,2
9d008400:	0f401862 	jal	9d006188 <__divdf3>
9d008404:	00000000 	nop
9d008408:	00402021 	move	a0,v0
9d00840c:	0b402090 	j	9d008240 <.LCFI0+0x1b8>
9d008410:	00602821 	move	a1,v1
9d008414:	00001821 	move	v1,zero
9d008418:	0b402064 	j	9d008190 <.LCFI0+0x108>
9d00841c:	00009021 	move	s2,zero
9d008420:	00003821 	move	a3,zero
9d008424:	0b4020e8 	j	9d0083a0 <.LCFI0+0x318>
9d008428:	26940002 	addiu	s4,s4,2
9d00842c:	1240ff8d 	beqz	s2,9d008264 <.LCFI0+0x1dc>
9d008430:	24030022 	li	v1,34
9d008434:	3c02a000 	lui	v0,0xa000
9d008438:	0b402099 	j	9d008264 <.LCFI0+0x1dc>
9d00843c:	ac430318 	sw	v1,792(v0)
9d008440:	3c037ff0 	lui	v1,0x7ff0
9d008444:	1443ff85 	bne	v0,v1,9d00825c <.LCFI0+0x1d4>
9d008448:	02301025 	or	v0,s1,s0
9d00844c:	0b40210d 	j	9d008434 <.LCFI0+0x3ac>
9d008450:	24030022 	li	v1,34

Disassembly of section .text.strtoll:

9d008454 <strtoll>:
9d008454:	27bdffd0 	addiu	sp,sp,-48
9d008458:	afbf002c 	sw	ra,44(sp)
9d00845c:	afb60028 	sw	s6,40(sp)
9d008460:	afb50024 	sw	s5,36(sp)
9d008464:	afb40020 	sw	s4,32(sp)
9d008468:	afb3001c 	sw	s3,28(sp)
9d00846c:	afb20018 	sw	s2,24(sp)
9d008470:	afb10014 	sw	s1,20(sp)
9d008474:	afb00010 	sw	s0,16(sp)
9d008478:	00809821 	move	s3,a0
9d00847c:	80820000 	lb	v0,0(a0)
9d008480:	00a0a021 	move	s4,a1
9d008484:	104000c0 	beqz	v0,9d008788 <strtoll+0x334>
9d008488:	00c09021 	move	s2,a2
9d00848c:	3c049d01 	lui	a0,0x9d01
9d008490:	2484bf79 	addiu	a0,a0,-16519
9d008494:	00821821 	addu	v1,a0,v0
9d008498:	80630000 	lb	v1,0(v1)
9d00849c:	30630088 	andi	v1,v1,0x88
9d0084a0:	14600007 	bnez	v1,9d0084c0 <strtoll+0x6c>
9d0084a4:	02608821 	move	s1,s3
9d0084a8:	0b4021b0 	j	9d0086c0 <strtoll+0x26c>
9d0084ac:	2403002b 	li	v1,43
9d0084b0:	80630000 	lb	v1,0(v1)
9d0084b4:	30630088 	andi	v1,v1,0x88
9d0084b8:	50600081 	beqzl	v1,9d0086c0 <strtoll+0x26c>
9d0084bc:	2403002b 	li	v1,43
9d0084c0:	26310001 	addiu	s1,s1,1
9d0084c4:	82220000 	lb	v0,0(s1)
9d0084c8:	1440fff9 	bnez	v0,9d0084b0 <strtoll+0x5c>
9d0084cc:	00821821 	addu	v1,a0,v0
9d0084d0:	00008021 	move	s0,zero
9d0084d4:	0000b021 	move	s6,zero
9d0084d8:	16400063 	bnez	s2,9d008668 <strtoll+0x214>
9d0084dc:	24020010 	li	v0,16
9d0084e0:	24020030 	li	v0,48
9d0084e4:	12020090 	beq	s0,v0,9d008728 <strtoll+0x2d4>
9d0084e8:	3c0fcccc 	lui	t7,0xcccc
9d0084ec:	35efcccc 	ori	t7,t7,0xcccc
9d0084f0:	3c0b0ccc 	lui	t3,0xccc
9d0084f4:	356bcccc 	ori	t3,t3,0xcccc
9d0084f8:	240c000a 	li	t4,10
9d0084fc:	0000a821 	move	s5,zero
9d008500:	00002021 	move	a0,zero
9d008504:	2412000a 	li	s2,10
9d008508:	2628ffff 	addiu	t0,s1,-1
9d00850c:	00002821 	move	a1,zero
9d008510:	00001021 	move	v0,zero
9d008514:	00001821 	move	v1,zero
9d008518:	3c079d01 	lui	a3,0x9d01
9d00851c:	24e7bf79 	addiu	a3,a3,-16519
9d008520:	240e0061 	li	t6,97
9d008524:	240d0041 	li	t5,65
9d008528:	3c187fff 	lui	t8,0x7fff
9d00852c:	3718ffff 	ori	t8,t8,0xffff
9d008530:	1200002c 	beqz	s0,9d0085e4 <strtoll+0x190>
9d008534:	25080001 	addiu	t0,t0,1
9d008538:	02074821 	addu	t1,s0,a3
9d00853c:	91290000 	lbu	t1,0(t1)
9d008540:	312a0004 	andi	t2,t1,0x4
9d008544:	11400041 	beqz	t2,9d00864c <strtoll+0x1f8>
9d008548:	31260003 	andi	a2,t1,0x3
9d00854c:	2610ffd0 	addiu	s0,s0,-48
9d008550:	06000024 	bltz	s0,9d0085e4 <strtoll+0x190>
9d008554:	0212482a 	slt	t1,s0,s2
9d008558:	11200022 	beqz	t1,9d0085e4 <strtoll+0x190>
9d00855c:	0163482a 	slt	t1,t3,v1
9d008560:	55200037 	bnezl	t1,9d008640 <strtoll+0x1ec>
9d008564:	24050001 	li	a1,1
9d008568:	146b0003 	bne	v1,t3,9d008578 <strtoll+0x124>
9d00856c:	01e2202b 	sltu	a0,t7,v0
9d008570:	54800033 	bnezl	a0,9d008640 <strtoll+0x1ec>
9d008574:	24050001 	li	a1,1
9d008578:	14a00030 	bnez	a1,9d00863c <strtoll+0x1e8>
9d00857c:	02a20018 	mult	s5,v0
9d008580:	001027c3 	sra	a0,s0,0x1f
9d008584:	71830000 	madd	t4,v1
9d008588:	00003012 	mflo	a2
9d00858c:	004c0019 	multu	v0,t4
9d008590:	00001012 	mflo	v0
9d008594:	00001810 	mfhi	v1
9d008598:	00c31821 	addu	v1,a2,v1
9d00859c:	03033023 	subu	a2,t8,v1
9d0085a0:	00c4482a 	slt	t1,a2,a0
9d0085a4:	15200025 	bnez	t1,9d00863c <strtoll+0x1e8>
9d0085a8:	00025027 	nor	t2,zero,v0
9d0085ac:	54860005 	bnel	a0,a2,9d0085c4 <strtoll+0x170>
9d0085b0:	02028021 	addu	s0,s0,v0
9d0085b4:	0150502b 	sltu	t2,t2,s0
9d0085b8:	55400021 	bnezl	t2,9d008640 <strtoll+0x1ec>
9d0085bc:	24050001 	li	a1,1
9d0085c0:	02028021 	addu	s0,s0,v0
9d0085c4:	0202302b 	sltu	a2,s0,v0
9d0085c8:	00642021 	addu	a0,v1,a0
9d0085cc:	02001021 	move	v0,s0
9d0085d0:	00c41821 	addu	v1,a2,a0
9d0085d4:	81100001 	lb	s0,1(t0)
9d0085d8:	24040001 	li	a0,1
9d0085dc:	1600ffd6 	bnez	s0,9d008538 <strtoll+0xe4>
9d0085e0:	25080001 	addiu	t0,t0,1
9d0085e4:	12c0002d 	beqz	s6,9d00869c <strtoll+0x248>
9d0085e8:	00000000 	nop
9d0085ec:	54a0003b 	bnezl	a1,9d0086dc <strtoll+0x288>
9d0085f0:	24030022 	li	v1,34
9d0085f4:	00023823 	negu	a3,v0
9d0085f8:	0007282b 	sltu	a1,zero,a3
9d0085fc:	00033023 	negu	a2,v1
9d008600:	00e01021 	move	v0,a3
9d008604:	00c51823 	subu	v1,a2,a1
9d008608:	12800002 	beqz	s4,9d008614 <strtoll+0x1c0>
9d00860c:	0264400a 	movz	t0,s3,a0
9d008610:	ae880000 	sw	t0,0(s4)
9d008614:	8fbf002c 	lw	ra,44(sp)
9d008618:	8fb60028 	lw	s6,40(sp)
9d00861c:	8fb50024 	lw	s5,36(sp)
9d008620:	8fb40020 	lw	s4,32(sp)
9d008624:	8fb3001c 	lw	s3,28(sp)
9d008628:	8fb20018 	lw	s2,24(sp)
9d00862c:	8fb10014 	lw	s1,20(sp)
9d008630:	8fb00010 	lw	s0,16(sp)
9d008634:	03e00008 	jr	ra
9d008638:	27bd0030 	addiu	sp,sp,48
9d00863c:	24050001 	li	a1,1
9d008640:	81100001 	lb	s0,1(t0)
9d008644:	0b402177 	j	9d0085dc <strtoll+0x188>
9d008648:	24040001 	li	a0,1
9d00864c:	10c0ffe5 	beqz	a2,9d0085e4 <strtoll+0x190>
9d008650:	31290001 	andi	t1,t1,0x1
9d008654:	01a03021 	move	a2,t5
9d008658:	01c9300a 	movz	a2,t6,t1
9d00865c:	02068023 	subu	s0,s0,a2
9d008660:	0b402154 	j	9d008550 <strtoll+0xfc>
9d008664:	2610000a 	addiu	s0,s0,10
9d008668:	12420026 	beq	s2,v0,9d008704 <strtoll+0x2b0>
9d00866c:	0012afc3 	sra	s5,s2,0x1f
9d008670:	2404ffff 	li	a0,-1
9d008674:	3c057fff 	lui	a1,0x7fff
9d008678:	34a5ffff 	ori	a1,a1,0xffff
9d00867c:	02403021 	move	a2,s2
9d008680:	0f401990 	jal	9d006640 <__divdi3>
9d008684:	02a03821 	move	a3,s5
9d008688:	02406021 	move	t4,s2
9d00868c:	00407821 	move	t7,v0
9d008690:	00605821 	move	t3,v1
9d008694:	0b402142 	j	9d008508 <strtoll+0xb4>
9d008698:	00002021 	move	a0,zero
9d00869c:	10a0ffda 	beqz	a1,9d008608 <strtoll+0x1b4>
9d0086a0:	00000000 	nop
9d0086a4:	24030022 	li	v1,34
9d0086a8:	3c02a000 	lui	v0,0xa000
9d0086ac:	ac430318 	sw	v1,792(v0)
9d0086b0:	2402ffff 	li	v0,-1
9d0086b4:	3c037fff 	lui	v1,0x7fff
9d0086b8:	0b402182 	j	9d008608 <strtoll+0x1b4>
9d0086bc:	3463ffff 	ori	v1,v1,0xffff
9d0086c0:	5443000b 	bnel	v0,v1,9d0086f0 <strtoll+0x29c>
9d0086c4:	2403002d 	li	v1,45
9d0086c8:	3842002d 	xori	v0,v0,0x2d
9d0086cc:	82300001 	lb	s0,1(s1)
9d0086d0:	2c560001 	sltiu	s6,v0,1
9d0086d4:	0b402136 	j	9d0084d8 <strtoll+0x84>
9d0086d8:	26310001 	addiu	s1,s1,1
9d0086dc:	3c02a000 	lui	v0,0xa000
9d0086e0:	ac430318 	sw	v1,792(v0)
9d0086e4:	00001021 	move	v0,zero
9d0086e8:	0b402182 	j	9d008608 <strtoll+0x1b4>
9d0086ec:	3c038000 	lui	v1,0x8000
9d0086f0:	5043fff6 	beql	v0,v1,9d0086cc <strtoll+0x278>
9d0086f4:	3842002d 	xori	v0,v0,0x2d
9d0086f8:	82300000 	lb	s0,0(s1)
9d0086fc:	0b402136 	j	9d0084d8 <strtoll+0x84>
9d008700:	0000b021 	move	s6,zero
9d008704:	24020030 	li	v0,48
9d008708:	12020023 	beq	s0,v0,9d008798 <strtoll+0x344>
9d00870c:	240fffff 	li	t7,-1
9d008710:	3c0b07ff 	lui	t3,0x7ff
9d008714:	356bffff 	ori	t3,t3,0xffff
9d008718:	240c0010 	li	t4,16
9d00871c:	0000a821 	move	s5,zero
9d008720:	0b402142 	j	9d008508 <strtoll+0xb4>
9d008724:	00002021 	move	a0,zero
9d008728:	82300001 	lb	s0,1(s1)
9d00872c:	2402ffdf 	li	v0,-33
9d008730:	02021824 	and	v1,s0,v0
9d008734:	24020058 	li	v0,88
9d008738:	5062000a 	beql	v1,v0,9d008764 <strtoll+0x310>
9d00873c:	82300002 	lb	s0,2(s1)
9d008740:	26310001 	addiu	s1,s1,1
9d008744:	240fffff 	li	t7,-1
9d008748:	3c0b0fff 	lui	t3,0xfff
9d00874c:	356bffff 	ori	t3,t3,0xffff
9d008750:	240c0008 	li	t4,8
9d008754:	0000a821 	move	s5,zero
9d008758:	24040001 	li	a0,1
9d00875c:	0b402142 	j	9d008508 <strtoll+0xb4>
9d008760:	24120008 	li	s2,8
9d008764:	240fffff 	li	t7,-1
9d008768:	26310002 	addiu	s1,s1,2
9d00876c:	3c0b07ff 	lui	t3,0x7ff
9d008770:	356bffff 	ori	t3,t3,0xffff
9d008774:	240c0010 	li	t4,16
9d008778:	0000a821 	move	s5,zero
9d00877c:	24040001 	li	a0,1
9d008780:	0b402142 	j	9d008508 <strtoll+0xb4>
9d008784:	24120010 	li	s2,16
9d008788:	00008021 	move	s0,zero
9d00878c:	00808821 	move	s1,a0
9d008790:	0b402136 	j	9d0084d8 <strtoll+0x84>
9d008794:	0000b021 	move	s6,zero
9d008798:	82300001 	lb	s0,1(s1)
9d00879c:	2406ffdf 	li	a2,-33
9d0087a0:	02061824 	and	v1,s0,a2
9d0087a4:	24020058 	li	v0,88
9d0087a8:	50620009 	beql	v1,v0,9d0087d0 <strtoll+0x37c>
9d0087ac:	82300002 	lb	s0,2(s1)
9d0087b0:	26310001 	addiu	s1,s1,1
9d0087b4:	240fffff 	li	t7,-1
9d0087b8:	3c0b07ff 	lui	t3,0x7ff
9d0087bc:	356bffff 	ori	t3,t3,0xffff
9d0087c0:	240c0010 	li	t4,16
9d0087c4:	0000a821 	move	s5,zero
9d0087c8:	0b402142 	j	9d008508 <strtoll+0xb4>
9d0087cc:	24040001 	li	a0,1
9d0087d0:	240fffff 	li	t7,-1
9d0087d4:	0b4021ee 	j	9d0087b8 <strtoll+0x364>
9d0087d8:	26310002 	addiu	s1,s1,2

Disassembly of section .text.__strtof:

9d0087dc <__strtof>:
9d0087dc:	27bdffc8 	addiu	sp,sp,-56

9d0087e0 <.LCFI0>:
9d0087e0:	afbf0034 	sw	ra,52(sp)
9d0087e4:	afb70030 	sw	s7,48(sp)
9d0087e8:	afb6002c 	sw	s6,44(sp)
9d0087ec:	afb50028 	sw	s5,40(sp)
9d0087f0:	afb40024 	sw	s4,36(sp)
9d0087f4:	afb30020 	sw	s3,32(sp)
9d0087f8:	afb2001c 	sw	s2,28(sp)
9d0087fc:	afb10018 	sw	s1,24(sp)
9d008800:	afb00014 	sw	s0,20(sp)
9d008804:	0080a821 	move	s5,a0
9d008808:	80820000 	lb	v0,0(a0)
9d00880c:	3c139d01 	lui	s3,0x9d01
9d008810:	2673bf79 	addiu	s3,s3,-16519
9d008814:	02621821 	addu	v1,s3,v0
9d008818:	80630000 	lb	v1,0(v1)
9d00881c:	00a0b021 	move	s6,a1
9d008820:	30630088 	andi	v1,v1,0x88
9d008824:	10600008 	beqz	v1,9d008848 <.LCFI0+0x68>
9d008828:	00808021 	move	s0,a0
9d00882c:	26100001 	addiu	s0,s0,1
9d008830:	82020000 	lb	v0,0(s0)
9d008834:	02621821 	addu	v1,s3,v0
9d008838:	80630000 	lb	v1,0(v1)
9d00883c:	30630088 	andi	v1,v1,0x88
9d008840:	5460fffb 	bnezl	v1,9d008830 <.LCFI0+0x50>
9d008844:	26100001 	addiu	s0,s0,1
9d008848:	2403002d 	li	v1,45
9d00884c:	10430081 	beq	v0,v1,9d008a54 <.LCFI0+0x274>
9d008850:	3842002b 	xori	v0,v0,0x2b
9d008854:	2c420001 	sltiu	v0,v0,1
9d008858:	0000b821 	move	s7,zero
9d00885c:	02028021 	addu	s0,s0,v0
9d008860:	82030000 	lb	v1,0(s0)
9d008864:	02631021 	addu	v0,s3,v1
9d008868:	90420000 	lbu	v0,0(v0)
9d00886c:	30420004 	andi	v0,v0,0x4
9d008870:	104000a5 	beqz	v0,9d008b08 <.LCFI0+0x328>
9d008874:	00008821 	move	s1,zero
9d008878:	0000a021 	move	s4,zero
9d00887c:	2472ffd0 	addiu	s2,v1,-48
9d008880:	02202021 	move	a0,s1
9d008884:	0f402aa2 	jal	9d00aa88 <.LFE9>
9d008888:	3c054120 	lui	a1,0x4120
9d00888c:	00408821 	move	s1,v0
9d008890:	0f4035d1 	jal	9d00d744 <__floatsisf>
9d008894:	02402021 	move	a0,s2
9d008898:	02202021 	move	a0,s1
9d00889c:	00402821 	move	a1,v0
9d0088a0:	0f402877 	jal	9d00a1dc <__addsf3>
9d0088a4:	26100001 	addiu	s0,s0,1
9d0088a8:	00408821 	move	s1,v0
9d0088ac:	82030000 	lb	v1,0(s0)
9d0088b0:	02631021 	addu	v0,s3,v1
9d0088b4:	90420000 	lbu	v0,0(v0)
9d0088b8:	30420004 	andi	v0,v0,0x4
9d0088bc:	1440ffef 	bnez	v0,9d00887c <.LCFI0+0x9c>
9d0088c0:	0292a025 	or	s4,s4,s2
9d0088c4:	24040001 	li	a0,1
9d0088c8:	2402002e 	li	v0,46
9d0088cc:	5062003e 	beql	v1,v0,9d0089c8 <.LCFI0+0x1e8>
9d0088d0:	82020001 	lb	v0,1(s0)
9d0088d4:	54800062 	bnezl	a0,9d008a60 <.LCFI0+0x280>
9d0088d8:	82020000 	lb	v0,0(s0)
9d0088dc:	12c00024 	beqz	s6,9d008970 <.LCFI0+0x190>
9d0088e0:	00111840 	sll	v1,s1,0x1
9d0088e4:	02a08021 	move	s0,s5
9d0088e8:	00009021 	move	s2,zero
9d0088ec:	aed00000 	sw	s0,0(s6)
9d0088f0:	1240001f 	beqz	s2,9d008970 <.LCFI0+0x190>
9d0088f4:	00111840 	sll	v1,s1,0x1
9d0088f8:	001217c3 	sra	v0,s2,0x1f
9d0088fc:	0052a826 	xor	s5,v0,s2
9d008900:	02a2a823 	subu	s5,s5,v0
9d008904:	3c139d01 	lui	s3,0x9d01
9d008908:	2673e030 	addiu	s3,s3,-8144
9d00890c:	24100006 	li	s0,6
9d008910:	0b402248 	j	9d008920 <.LCFI0+0x140>
9d008914:	3c023f80 	lui	v0,0x3f80
9d008918:	1200000b 	beqz	s0,9d008948 <.LCFI0+0x168>
9d00891c:	2673fffc 	addiu	s3,s3,-4
9d008920:	2610ffff 	addiu	s0,s0,-1
9d008924:	02151807 	srav	v1,s5,s0
9d008928:	30630001 	andi	v1,v1,0x1
9d00892c:	1060fffa 	beqz	v1,9d008918 <.LCFI0+0x138>
9d008930:	00000000 	nop
9d008934:	8e650000 	lw	a1,0(s3)
9d008938:	0f402aa2 	jal	9d00aa88 <.LFE9>
9d00893c:	00402021 	move	a0,v0
9d008940:	1600fff7 	bnez	s0,9d008920 <.LCFI0+0x140>
9d008944:	2673fffc 	addiu	s3,s3,-4
9d008948:	02202021 	move	a0,s1
9d00894c:	0640006a 	bltz	s2,9d008af8 <.LCFI0+0x318>
9d008950:	00402821 	move	a1,v0
9d008954:	0f402aa2 	jal	9d00aa88 <.LFE9>
9d008958:	00000000 	nop
9d00895c:	00402021 	move	a0,v0
9d008960:	0f403060 	jal	9d00c180 <__ldexpf>
9d008964:	02402821 	move	a1,s2
9d008968:	00408821 	move	s1,v0
9d00896c:	00111840 	sll	v1,s1,0x1
9d008970:	3c02ff00 	lui	v0,0xff00
9d008974:	5062006c 	beql	v1,v0,9d008b28 <.LCFI0+0x348>
9d008978:	24030022 	li	v1,34
9d00897c:	12200068 	beqz	s1,9d008b20 <.LCFI0+0x340>
9d008980:	00000000 	nop
9d008984:	12e00005 	beqz	s7,9d00899c <.LCFI0+0x1bc>
9d008988:	02201021 	move	v0,s1
9d00898c:	0f403821 	jal	9d00e084 <__negsf2>
9d008990:	02202021 	move	a0,s1
9d008994:	00408821 	move	s1,v0
9d008998:	02201021 	move	v0,s1
9d00899c:	8fbf0034 	lw	ra,52(sp)
9d0089a0:	8fb70030 	lw	s7,48(sp)
9d0089a4:	8fb6002c 	lw	s6,44(sp)
9d0089a8:	8fb50028 	lw	s5,40(sp)
9d0089ac:	8fb40024 	lw	s4,36(sp)
9d0089b0:	8fb30020 	lw	s3,32(sp)
9d0089b4:	8fb2001c 	lw	s2,28(sp)
9d0089b8:	8fb10018 	lw	s1,24(sp)
9d0089bc:	8fb00014 	lw	s0,20(sp)
9d0089c0:	03e00008 	jr	ra
9d0089c4:	27bd0038 	addiu	sp,sp,56
9d0089c8:	02621821 	addu	v1,s3,v0
9d0089cc:	90630000 	lbu	v1,0(v1)
9d0089d0:	30630004 	andi	v1,v1,0x4
9d0089d4:	1060ffbf 	beqz	v1,9d0088d4 <.LCFI0+0xf4>
9d0089d8:	26100001 	addiu	s0,s0,1
9d0089dc:	00009021 	move	s2,zero
9d0089e0:	2455ffd0 	addiu	s5,v0,-48
9d0089e4:	02202021 	move	a0,s1
9d0089e8:	0f402aa2 	jal	9d00aa88 <.LFE9>
9d0089ec:	3c054120 	lui	a1,0x4120
9d0089f0:	00408821 	move	s1,v0
9d0089f4:	0f4035d1 	jal	9d00d744 <__floatsisf>
9d0089f8:	02a02021 	move	a0,s5
9d0089fc:	02202021 	move	a0,s1
9d008a00:	00402821 	move	a1,v0
9d008a04:	0f402877 	jal	9d00a1dc <__addsf3>
9d008a08:	26100001 	addiu	s0,s0,1
9d008a0c:	00408821 	move	s1,v0
9d008a10:	82020000 	lb	v0,0(s0)
9d008a14:	0295a025 	or	s4,s4,s5
9d008a18:	02621821 	addu	v1,s3,v0
9d008a1c:	90630000 	lbu	v1,0(v1)
9d008a20:	30630004 	andi	v1,v1,0x4
9d008a24:	1460ffee 	bnez	v1,9d0089e0 <.LCFI0+0x200>
9d008a28:	2652ffff 	addiu	s2,s2,-1
9d008a2c:	2404ffdf 	li	a0,-33
9d008a30:	00441824 	and	v1,v0,a0
9d008a34:	7c031c20 	seb	v1,v1
9d008a38:	24020045 	li	v0,69
9d008a3c:	5062000f 	beql	v1,v0,9d008a7c <.LCFI0+0x29c>
9d008a40:	82030001 	lb	v1,1(s0)
9d008a44:	56c0ffaa 	bnezl	s6,9d0088f0 <.LCFI0+0x110>
9d008a48:	aed00000 	sw	s0,0(s6)
9d008a4c:	0b40223c 	j	9d0088f0 <.LCFI0+0x110>
9d008a50:	00000000 	nop
9d008a54:	26100001 	addiu	s0,s0,1
9d008a58:	0b402218 	j	9d008860 <.LCFI0+0x80>
9d008a5c:	24170001 	li	s7,1
9d008a60:	2404ffdf 	li	a0,-33
9d008a64:	00441824 	and	v1,v0,a0
9d008a68:	7c031c20 	seb	v1,v1
9d008a6c:	24020045 	li	v0,69
9d008a70:	1462fff4 	bne	v1,v0,9d008a44 <.LCFI0+0x264>
9d008a74:	00009021 	move	s2,zero
9d008a78:	82030001 	lb	v1,1(s0)
9d008a7c:	2402002d 	li	v0,45
9d008a80:	10620019 	beq	v1,v0,9d008ae8 <.LCFI0+0x308>
9d008a84:	2402002b 	li	v0,43
9d008a88:	50620022 	beql	v1,v0,9d008b14 <.LCFI0+0x334>
9d008a8c:	82030002 	lb	v1,2(s0)
9d008a90:	26100001 	addiu	s0,s0,1
9d008a94:	00003821 	move	a3,zero
9d008a98:	02631021 	addu	v0,s3,v1
9d008a9c:	90420000 	lbu	v0,0(v0)
9d008aa0:	30420004 	andi	v0,v0,0x4
9d008aa4:	1040000c 	beqz	v0,9d008ad8 <.LCFI0+0x2f8>
9d008aa8:	00001021 	move	v0,zero
9d008aac:	26100001 	addiu	s0,s0,1
9d008ab0:	2465ffd0 	addiu	a1,v1,-48
9d008ab4:	82030000 	lb	v1,0(s0)
9d008ab8:	00023040 	sll	a2,v0,0x1
9d008abc:	000210c0 	sll	v0,v0,0x3
9d008ac0:	02632021 	addu	a0,s3,v1
9d008ac4:	90840000 	lbu	a0,0(a0)
9d008ac8:	00c21021 	addu	v0,a2,v0
9d008acc:	30840004 	andi	a0,a0,0x4
9d008ad0:	1480fff6 	bnez	a0,9d008aac <.LCFI0+0x2cc>
9d008ad4:	00451021 	addu	v0,v0,a1
9d008ad8:	00021823 	negu	v1,v0
9d008adc:	0067100b 	movn	v0,v1,a3
9d008ae0:	0b402291 	j	9d008a44 <.LCFI0+0x264>
9d008ae4:	02429021 	addu	s2,s2,v0
9d008ae8:	82030002 	lb	v1,2(s0)
9d008aec:	24070001 	li	a3,1
9d008af0:	0b4022a6 	j	9d008a98 <.LCFI0+0x2b8>
9d008af4:	26100002 	addiu	s0,s0,2
9d008af8:	0f4029a5 	jal	9d00a694 <__divsf3>
9d008afc:	00000000 	nop
9d008b00:	0b402258 	j	9d008960 <.LCFI0+0x180>
9d008b04:	00402021 	move	a0,v0
9d008b08:	00002021 	move	a0,zero
9d008b0c:	0b402232 	j	9d0088c8 <.LCFI0+0xe8>
9d008b10:	0000a021 	move	s4,zero
9d008b14:	00003821 	move	a3,zero
9d008b18:	0b4022a6 	j	9d008a98 <.LCFI0+0x2b8>
9d008b1c:	26100002 	addiu	s0,s0,2
9d008b20:	1280ff98 	beqz	s4,9d008984 <.LCFI0+0x1a4>
9d008b24:	24030022 	li	v1,34
9d008b28:	3c02a000 	lui	v0,0xa000
9d008b2c:	0b402261 	j	9d008984 <.LCFI0+0x1a4>
9d008b30:	ac430318 	sw	v1,792(v0)

Disassembly of section .text.libm:

9d008b34 <fpexatan>:
9d008b34:	28a1007f 14200032 00000000 04a000cc     ...(2. .........
9d008b44:	00000000 00052823 24a500fd 3c0b8000     ....#(.....$...<
9d008b54:	148b0008 00000000 2401007e 14a10003     ........~..$....
9d008b64:	00000000 10000025 2404ffff              ....%......$

9d008b70 <i3>:
9d008b70:	10000023 	b	9d008c00 <e2>
9d008b74:	24a50001 	addiu	a1,a1,1

9d008b78 <i2>:
9d008b78:	00045402 	srl	t2,a0,0x10
9d008b7c:	014001f4 	teq	t2,zero,0x7
9d008b80:	016a001b 	divu	zero,t3,t2
9d008b84:	00003812 	mflo	a3
9d008b88:	00005810 	mfhi	t3
9d008b8c:	3088ffff 	andi	t0,a0,0xffff
9d008b90:	01070019 	multu	t0,a3
9d008b94:	00004812 	mflo	t1
9d008b98:	000b5c00 	sll	t3,t3,0x10
9d008b9c:	0169702b 	sltu	t6,t3,t1
9d008ba0:	11c00006 	beqz	t6,9d008bbc <i4>
9d008ba4:	01695823 	subu	t3,t3,t1

9d008ba8 <b5>:
9d008ba8:	24e7ffff 	addiu	a3,a3,-1
9d008bac:	01645821 	addu	t3,t3,a0
9d008bb0:	0164082b 	sltu	at,t3,a0
9d008bb4:	1020fffc 	beqz	at,9d008ba8 <b5>
9d008bb8:	00000000 	nop

9d008bbc <i4>:
9d008bbc:	014001f4 	teq	t2,zero,0x7
9d008bc0:	016a001b 	divu	zero,t3,t2
9d008bc4:	00005012 	mflo	t2
9d008bc8:	00005810 	mfhi	t3
9d008bcc:	010a0019 	multu	t0,t2
9d008bd0:	00004812 	mflo	t1
9d008bd4:	000b5c00 	sll	t3,t3,0x10
9d008bd8:	0169702b 	sltu	t6,t3,t1
9d008bdc:	11c00006 	beqz	t6,9d008bf8 <i6>
9d008be0:	01695823 	subu	t3,t3,t1

9d008be4 <b7>:
9d008be4:	254affff 	addiu	t2,t2,-1
9d008be8:	01645821 	addu	t3,t3,a0
9d008bec:	0164082b 	sltu	at,t3,a0
9d008bf0:	1020fffc 	beqz	at,9d008be4 <b7>
9d008bf4:	00000000 	nop

9d008bf8 <i6>:
9d008bf8:	00077400 	sll	t6,a3,0x10
9d008bfc:	014e2021 	addu	a0,t2,t6

9d008c00 <e2>:
9d008c00:	34c60001 	ori	a2,a2,0x1

9d008c04 <i1>:
9d008c04:	24070081 	li	a3,129
9d008c08:	00e53823 	subu	a3,a3,a1
9d008c0c:	28e10008 	slti	at,a3,8
9d008c10:	14200002 	bnez	at,9d008c1c <i8>
9d008c14:	00000000 	nop
9d008c18:	24070008 	li	a3,8

9d008c1c <i8>:
9d008c1c:	00046602 	srl	t4,a0,0x18
9d008c20:	00ec6006 	srlv	t4,t4,a3
9d008c24:	000c6040 	sll	t4,t4,0x1
9d008c28:	000c5e80 	sll	t3,t4,0x1a
9d008c2c:	01640019 	multu	t3,a0
9d008c30:	00005810 	mfhi	t3
9d008c34:	2409007f 	li	t1,127
9d008c38:	01254823 	subu	t1,t1,a1
9d008c3c:	2d210020 	sltiu	at,t1,32
9d008c40:	14200002 	bnez	at,9d008c4c <L1>
9d008c44:	00000000 	nop
9d008c48:	340b0000 	li	t3,0x0

9d008c4c <L1>:
9d008c4c:	012b5806 	srlv	t3,t3,t1
9d008c50:	3c018000 	lui	at,0x8000
9d008c54:	01615825 	or	t3,t3,at
9d008c58:	240f0008 	li	t7,8
9d008c5c:	01e77823 	subu	t7,t7,a3
9d008c60:	240effff 	li	t6,-1
9d008c64:	01ee7006 	srlv	t6,t6,t7
9d008c68:	008e2024 	and	a0,a0,t6
9d008c6c:	1080004e 	beqz	a0,9d008da8 <Alab5>
9d008c70:	00000000 	nop
9d008c74:	70873820 	clz	a3,a0
9d008c78:	00a72823 	subu	a1,a1,a3
9d008c7c:	00e42004 	sllv	a0,a0,a3
9d008c80:	00042042 	srl	a0,a0,0x1
9d008c84:	000b5402 	srl	t2,t3,0x10
9d008c88:	014001f4 	teq	t2,zero,0x7
9d008c8c:	008a001b 	divu	zero,a0,t2
9d008c90:	00003812 	mflo	a3
9d008c94:	00002010 	mfhi	a0
9d008c98:	3168ffff 	andi	t0,t3,0xffff
9d008c9c:	01070019 	multu	t0,a3
9d008ca0:	00004812 	mflo	t1
9d008ca4:	00042400 	sll	a0,a0,0x10
9d008ca8:	0089702b 	sltu	t6,a0,t1
9d008cac:	11c00006 	beqz	t6,9d008cc8 <i9>
9d008cb0:	00892023 	subu	a0,a0,t1

9d008cb4 <b10>:
9d008cb4:	24e7ffff 	addiu	a3,a3,-1
9d008cb8:	008b2021 	addu	a0,a0,t3
9d008cbc:	008b082b 	sltu	at,a0,t3
9d008cc0:	1020fffc 	beqz	at,9d008cb4 <b10>
9d008cc4:	00000000 	nop

9d008cc8 <i9>:
9d008cc8:	014001f4 	teq	t2,zero,0x7
9d008ccc:	008a001b 	divu	zero,a0,t2
9d008cd0:	00002012 	mflo	a0
9d008cd4:	00005010 	mfhi	t2
9d008cd8:	01040019 	multu	t0,a0
9d008cdc:	00004812 	mflo	t1
9d008ce0:	000a5400 	sll	t2,t2,0x10
9d008ce4:	0149702b 	sltu	t6,t2,t1
9d008ce8:	11c00006 	beqz	t6,9d008d04 <i11>
9d008cec:	01495023 	subu	t2,t2,t1

9d008cf0 <b12>:
9d008cf0:	2484ffff 	addiu	a0,a0,-1
9d008cf4:	014b5021 	addu	t2,t2,t3
9d008cf8:	014b082b 	sltu	at,t2,t3
9d008cfc:	1020fffc 	beqz	at,9d008cf0 <b12>
9d008d00:	00000000 	nop

9d008d04 <i11>:
9d008d04:	00077400 	sll	t6,a3,0x10
9d008d08:	008e2021 	addu	a0,a0,t6
9d008d0c:	18800003 	blez	a0,9d008d1c <i13>
9d008d10:	00000000 	nop
9d008d14:	00042040 	sll	a0,a0,0x1
9d008d18:	24a5ffff 	addiu	a1,a1,-1

9d008d1c <i13>:
9d008d1c:	00840019 	multu	a0,a0
9d008d20:	00005810 	mfhi	t3
9d008d24:	240700fc 	li	a3,252
9d008d28:	00e53823 	subu	a3,a3,a1
9d008d2c:	00e53823 	subu	a3,a3,a1
9d008d30:	2ce10020 	sltiu	at,a3,32
9d008d34:	14200002 	bnez	at,9d008d40 <L2>
9d008d38:	00000000 	nop
9d008d3c:	340b0000 	li	t3,0x0

9d008d40 <L2>:
9d008d40:	00eb5806 	srlv	t3,t3,a3
9d008d44:	3c090088 	lui	t1,0x88
9d008d48:	3529253e 	ori	t1,t1,0x253e
9d008d4c:	01690019 	multu	t3,t1
9d008d50:	00004810 	mfhi	t1
9d008d54:	3c0e2aa5 	lui	t6,0x2aa5
9d008d58:	35ce3cd6 	ori	t6,t6,0x3cd6
9d008d5c:	01c94823 	subu	t1,t6,t1
9d008d60:	01690019 	multu	t3,t1
9d008d64:	00004810 	mfhi	t1
9d008d68:	3c0e8000 	lui	t6,0x8000
9d008d6c:	35ce00b2 	ori	t6,t6,0xb2
9d008d70:	01c94823 	subu	t1,t6,t1
9d008d74:	05200003 	bltz	t1,9d008d84 <i14>
9d008d78:	00000000 	nop
9d008d7c:	10000002 	b	9d008d88 <e14>
9d008d80:	00094840 	sll	t1,t1,0x1

9d008d84 <i14>:
9d008d84:	24a50001 	addiu	a1,a1,1

9d008d88 <e14>:
9d008d88:	00890019 	multu	a0,t1
9d008d8c:	00002010 	mfhi	a0
9d008d90:	04800003 	bltz	a0,9d008da0 <i15>
9d008d94:	00000000 	nop
9d008d98:	00042040 	sll	a0,a0,0x1
9d008d9c:	24a5ffff 	addiu	a1,a1,-1

9d008da0 <i15>:
9d008da0:	1180001b 	beqz	t4,9d008e10 <Alab7>
9d008da4:	00000000 	nop

9d008da8 <Alab5>:
9d008da8:	3c0ea000 	lui	t6,0xa000
9d008dac:	25ce0794 	addiu	t6,t6,1940
9d008db0:	258f0001 	addiu	t7,t4,1
9d008db4:	000f7880 	sll	t7,t7,0x2
9d008db8:	01cf7021 	addu	t6,t6,t7
9d008dbc:	8dc70000 	lw	a3,0(t6)
9d008dc0:	00e54023 	subu	t0,a3,a1
9d008dc4:	2d010020 	sltiu	at,t0,32
9d008dc8:	14200002 	bnez	at,9d008dd4 <L3>
9d008dcc:	00000000 	nop
9d008dd0:	34040000 	li	a0,0x0

9d008dd4 <L3>:
9d008dd4:	01042006 	srlv	a0,a0,t0
9d008dd8:	00072825 	or	a1,zero,a3
9d008ddc:	3c0ea000 	lui	t6,0xa000
9d008de0:	25ce0794 	addiu	t6,t6,1940
9d008de4:	000c7880 	sll	t7,t4,0x2
9d008de8:	01cf7021 	addu	t6,t6,t7
9d008dec:	8dc70000 	lw	a3,0(t6)
9d008df0:	00872021 	addu	a0,a0,a3
9d008df4:	0087702b 	sltu	t6,a0,a3
9d008df8:	11c00005 	beqz	t6,9d008e10 <Alab7>
9d008dfc:	00000000 	nop
9d008e00:	00042042 	srl	a0,a0,0x1
9d008e04:	3c018000 	lui	at,0x8000
9d008e08:	00812025 	or	a0,a0,at
9d008e0c:	24a50001 	addiu	a1,a1,1

9d008e10 <Alab7>:
9d008e10:	30ce0001 	andi	t6,a2,0x1
9d008e14:	11c00012 	beqz	t6,9d008e60 <Alab8>
9d008e18:	00000000 	nop
9d008e1c:	2401fffe 	li	at,-2
9d008e20:	00c13024 	and	a2,a2,at
9d008e24:	2407007f 	li	a3,127
9d008e28:	00e53823 	subu	a3,a3,a1
9d008e2c:	2ce10020 	sltiu	at,a3,32
9d008e30:	14200002 	bnez	at,9d008e3c <L4>
9d008e34:	00000000 	nop
9d008e38:	34040000 	li	a0,0x0

9d008e3c <L4>:
9d008e3c:	00e42006 	srlv	a0,a0,a3
9d008e40:	2405007f 	li	a1,127
9d008e44:	3c0ec90f 	lui	t6,0xc90f
9d008e48:	35cedaa2 	ori	t6,t6,0xdaa2
9d008e4c:	01c42023 	subu	a0,t6,a0
9d008e50:	04800003 	bltz	a0,9d008e60 <Alab8>
9d008e54:	00000000 	nop
9d008e58:	00042040 	sll	a0,a0,0x1
9d008e5c:	24a5ffff 	addiu	a1,a1,-1

9d008e60 <Alab8>:
9d008e60:	00041025 	or	v0,zero,a0
9d008e64:	00051825 	or	v1,zero,a1
9d008e68:	0006c025 	or	t8,zero,a2

9d008e6c <A999>:
9d008e6c:	03e00008 	jr	ra
9d008e70:	00000000 	nop

9d008e74 <Azer>:
9d008e74:	24050000 	li	a1,0
9d008e78:	1000fff9 	b	9d008e60 <Alab8>
9d008e7c:	00052025 	or	a0,zero,a1
9d008e80:	00000000 	nop

Disassembly of section .text.dp32mul:

9d008e84 <__muldf3>:
9d008e84:	00055040 000a5542 00054ac0 00047d42     @P..BU...J..B}..
9d008e94:	012f4825 000442c0 3c0e8000 012e4825     %H/..B.....<%H..
9d008ea4:	00076840 000d6d42 000762c0 00067d42     @h..Bm...b..B}..
9d008eb4:	018f6025 00065ac0 018e6025 00a72826     %`...Z..%`..&(..
9d008ec4:	00ae2824 254fffff 2de107fe 10200047     $(....O%...-G. .
9d008ed4:	00000000                                ....

9d008ed8 <Clab1>:
9d008ed8:	25afffff 	addiu	t7,t5,-1
9d008edc:	2de107fe 	sltiu	at,t7,2046
9d008ee0:	1020006f 	beqz	at,9d0090a0 <CspecB>
9d008ee4:	00000000 	nop

9d008ee8 <Clab2>:
9d008ee8:	25affc02 	addiu	t7,t5,-1022
9d008eec:	014f5021 	addu	t2,t2,t7
9d008ef0:	012c0019 	multu	t1,t4
9d008ef4:	00003812 	mflo	a3
9d008ef8:	00007010 	mfhi	t6
9d008efc:	010b0019 	multu	t0,t3
9d008f00:	00002012 	mflo	a0
9d008f04:	00003010 	mfhi	a2
9d008f08:	012b0019 	multu	t1,t3
9d008f0c:	00005812 	mflo	t3
9d008f10:	00006810 	mfhi	t5
9d008f14:	00cb3021 	addu	a2,a2,t3
9d008f18:	00cb782b 	sltu	t7,a2,t3
9d008f1c:	00ed3821 	addu	a3,a3,t5
9d008f20:	00ef3821 	addu	a3,a3,t7
9d008f24:	10ed0002 	beq	a3,t5,9d008f30 <L20>
9d008f28:	00000000 	nop
9d008f2c:	00ed782b 	sltu	t7,a3,t5

9d008f30 <L20>:
9d008f30:	01cf7021 	addu	t6,t6,t7
9d008f34:	010c0019 	multu	t0,t4
9d008f38:	00004012 	mflo	t0
9d008f3c:	00004810 	mfhi	t1
9d008f40:	00c83021 	addu	a2,a2,t0
9d008f44:	00c8782b 	sltu	t7,a2,t0
9d008f48:	00e93821 	addu	a3,a3,t1
9d008f4c:	00ef3821 	addu	a3,a3,t7
9d008f50:	10e90002 	beq	a3,t1,9d008f5c <L21>
9d008f54:	00000000 	nop
9d008f58:	00e9782b 	sltu	t7,a3,t1

9d008f5c <L21>:
9d008f5c:	01cf7021 	addu	t6,t6,t7
9d008f60:	00867825 	or	t7,a0,a2
9d008f64:	11e00002 	beqz	t7,9d008f70 <i13>
9d008f68:	00000000 	nop
9d008f6c:	34e70001 	ori	a3,a3,0x1

9d008f70 <i13>:
9d008f70:	000e4825 	or	t1,zero,t6
9d008f74:	05200006 	bltz	t1,9d008f90 <i14>
9d008f78:	00074025 	or	t0,zero,a3
9d008f7c:	0100782a 	slt	t7,t0,zero
9d008f80:	01084021 	addu	t0,t0,t0
9d008f84:	01294821 	addu	t1,t1,t1
9d008f88:	012f4821 	addu	t1,t1,t7
9d008f8c:	254affff 	addiu	t2,t2,-1

9d008f90 <i14>:
9d008f90:	254fffff 	addiu	t7,t2,-1
9d008f94:	2de107fe 	sltiu	at,t7,2046
9d008f98:	10200068 	beqz	at,9d00913c <Coveund>
9d008f9c:	00000000 	nop
9d008fa0:	25080400 	addiu	t0,t0,1024
9d008fa4:	2d0f0400 	sltiu	t7,t0,1024
9d008fa8:	012f4821 	addu	t1,t1,t7
9d008fac:	012f782b 	sltu	t7,t1,t7
9d008fb0:	014f5021 	addu	t2,t2,t7

9d008fb4 <Clab8>:
9d008fb4:	00087ac2 	srl	t7,t0,0xb
9d008fb8:	31ef0001 	andi	t7,t7,0x1
9d008fbc:	010f4023 	subu	t0,t0,t7
9d008fc0:	000822c2 	srl	a0,t0,0xb
9d008fc4:	00097d40 	sll	t7,t1,0x15
9d008fc8:	008f2025 	or	a0,a0,t7
9d008fcc:	00097840 	sll	t7,t1,0x1
9d008fd0:	000f7b02 	srl	t7,t7,0xc
9d008fd4:	00af2825 	or	a1,a1,t7
9d008fd8:	000a7d00 	sll	t7,t2,0x14
9d008fdc:	00af2825 	or	a1,a1,t7

9d008fe0 <Cret>:
9d008fe0:	00041025 	or	v0,zero,a0
9d008fe4:	00051825 	or	v1,zero,a1

9d008fe8 <C999>:
9d008fe8:	03e00008 	jr	ra
9d008fec:	00000000 	nop

9d008ff0 <CspecA>:
9d008ff0:	0100782a 	slt	t7,t0,zero
9d008ff4:	01084021 	addu	t0,t0,t0
9d008ff8:	01294821 	addu	t1,t1,t1
9d008ffc:	1540001c 	bnez	t2,9d009070 <i15>
9d009000:	012f4821 	addu	t1,t1,t7
9d009004:	01287825 	or	t7,t1,t0
9d009008:	11e00014 	beqz	t7,9d00905c <i16>
9d00900c:	00000000 	nop
9d009010:	15200008 	bnez	t1,9d009034 <L22>
9d009014:	00000000 	nop
9d009018:	15000003 	bnez	t0,9d009028 <L23>
9d00901c:	00000000 	nop
9d009020:	1000ffad 	b	9d008ed8 <Clab1>
9d009024:	240a0000 	li	t2,0

9d009028 <L23>:
9d009028:	01004825 	move	t1,t0
9d00902c:	24080000 	li	t0,0
9d009030:	254affe0 	addiu	t2,t2,-32

9d009034 <L22>:
9d009034:	712e7020 	clz	t6,t1
9d009038:	11c0ffa7 	beqz	t6,9d008ed8 <Clab1>
9d00903c:	00000000 	nop
9d009040:	014e5023 	subu	t2,t2,t6
9d009044:	000e3822 	neg	a3,t6
9d009048:	00e83806 	srlv	a3,t0,a3
9d00904c:	01c84004 	sllv	t0,t0,t6
9d009050:	01c94804 	sllv	t1,t1,t6
9d009054:	1000ffa0 	b	9d008ed8 <Clab1>
9d009058:	01274825 	or	t1,t1,a3

9d00905c <i16>:
9d00905c:	240107ff 	li	at,2047
9d009060:	11a10033 	beq	t5,at,9d009130 <Cnan>
9d009064:	00000000 	nop
9d009068:	1000ffdd 	b	9d008fe0 <Cret>
9d00906c:	00000000 	nop

9d009070 <i15>:
9d009070:	01287825 	or	t7,t1,t0
9d009074:	15e0002e 	bnez	t7,9d009130 <Cnan>
9d009078:	00000000 	nop
9d00907c:	15a00005 	bnez	t5,9d009094 <i17>
9d009080:	00000000 	nop
9d009084:	000c7840 	sll	t7,t4,0x1
9d009088:	01eb7825 	or	t7,t7,t3
9d00908c:	11e00028 	beqz	t7,9d009130 <Cnan>
9d009090:	00000000 	nop

9d009094 <i17>:
9d009094:	240107ff 	li	at,2047
9d009098:	15a10021 	bne	t5,at,9d009120 <Cinf>
9d00909c:	00000000 	nop

9d0090a0 <CspecB>:
9d0090a0:	0160782a 	slt	t7,t3,zero
9d0090a4:	016b5821 	addu	t3,t3,t3
9d0090a8:	018c6021 	addu	t4,t4,t4
9d0090ac:	15a00019 	bnez	t5,9d009114 <i18>
9d0090b0:	018f6021 	addu	t4,t4,t7
9d0090b4:	018b7825 	or	t7,t4,t3
9d0090b8:	11e00014 	beqz	t7,9d00910c <i19>
9d0090bc:	00000000 	nop
9d0090c0:	15800008 	bnez	t4,9d0090e4 <L25>
9d0090c4:	00000000 	nop
9d0090c8:	15600003 	bnez	t3,9d0090d8 <L26>
9d0090cc:	00000000 	nop
9d0090d0:	1000ff85 	b	9d008ee8 <Clab2>
9d0090d4:	240d0000 	li	t5,0

9d0090d8 <L26>:
9d0090d8:	01606025 	move	t4,t3
9d0090dc:	240b0000 	li	t3,0
9d0090e0:	25adffe0 	addiu	t5,t5,-32

9d0090e4 <L25>:
9d0090e4:	71863020 	clz	a2,t4
9d0090e8:	10c0ff7f 	beqz	a2,9d008ee8 <Clab2>
9d0090ec:	00000000 	nop
9d0090f0:	01a66823 	subu	t5,t5,a2
9d0090f4:	00067022 	neg	t6,a2
9d0090f8:	01cb7006 	srlv	t6,t3,t6
9d0090fc:	00cb5804 	sllv	t3,t3,a2
9d009100:	00cc6004 	sllv	t4,t4,a2
9d009104:	1000ff78 	b	9d008ee8 <Clab2>
9d009108:	018e6025 	or	t4,t4,t6

9d00910c <i19>:
9d00910c:	1000ffb4 	b	9d008fe0 <Cret>
9d009110:	24040000 	li	a0,0

9d009114 <i18>:
9d009114:	018b7825 	or	t7,t4,t3
9d009118:	15e00005 	bnez	t7,9d009130 <Cnan>
9d00911c:	00000000 	nop

9d009120 <Cinf>:
9d009120:	3c017ff0 	lui	at,0x7ff0
9d009124:	00a12825 	or	a1,a1,at
9d009128:	1000ffad 	b	9d008fe0 <Cret>
9d00912c:	24040000 	li	a0,0

9d009130 <Cnan>:
9d009130:	3c05fff8 	lui	a1,0xfff8
9d009134:	1000ffaa 	b	9d008fe0 <Cret>
9d009138:	24040000 	li	a0,0

9d00913c <Coveund>:
9d00913c:	1d40fff8 	bgtz	t2,9d009120 <Cinf>
9d009140:	00000000 	nop
9d009144:	240e0001 	li	t6,1
9d009148:	01ca7023 	subu	t6,t6,t2

9d00914c <L28>:
9d00914c:	2dc10020 	sltiu	at,t6,32
9d009150:	14200007 	bnez	at,9d009170 <L29>
9d009154:	00000000 	nop
9d009158:	21ceffe0 	addi	t6,t6,-32
9d00915c:	0008302b 	sltu	a2,zero,t0
9d009160:	1009000d 	beq	zero,t1,9d009198 <L30>
9d009164:	01264025 	or	t0,t1,a2
9d009168:	1000fff8 	b	9d00914c <L28>
9d00916c:	34090000 	li	t1,0x0

9d009170 <L29>:
9d009170:	11c00009 	beqz	t6,9d009198 <L30>
9d009174:	00000000 	nop
9d009178:	000e3822 	neg	a3,t6
9d00917c:	00e83004 	sllv	a2,t0,a3
9d009180:	00e93804 	sllv	a3,t1,a3
9d009184:	01c84006 	srlv	t0,t0,t6
9d009188:	01c94806 	srlv	t1,t1,t6
9d00918c:	10c00002 	beqz	a2,9d009198 <L30>
9d009190:	00e84025 	or	t0,a3,t0
9d009194:	35080002 	ori	t0,t0,0x2

9d009198 <L30>:
9d009198:	25080400 	addiu	t0,t0,1024
9d00919c:	2d0f0400 	sltiu	t7,t0,1024
9d0091a0:	012f4821 	addu	t1,t1,t7
9d0091a4:	1000ff83 	b	9d008fb4 <Clab8>
9d0091a8:	000957c2 	srl	t2,t1,0x1f
9d0091ac:	00000000 	nop

Disassembly of section .text.atan2f:

9d0091b0 <atan2f>:
9d0091b0:	27bdff58 	addiu	sp,sp,-168

9d0091b4 <.LCFI0>:
9d0091b4:	afbf00a4 	sw	ra,164(sp)
9d0091b8:	afb500a0 	sw	s5,160(sp)
9d0091bc:	afb4009c 	sw	s4,156(sp)
9d0091c0:	afb30098 	sw	s3,152(sp)
9d0091c4:	afb20094 	sw	s2,148(sp)
9d0091c8:	afb10090 	sw	s1,144(sp)
9d0091cc:	afb0008c 	sw	s0,140(sp)
9d0091d0:	3c029d01 	lui	v0,0x9d01
9d0091d4:	8c46de28 	lw	a2,-8664(v0)
9d0091d8:	8c47de2c 	lw	a3,-8660(v0)
9d0091dc:	00a0a021 	move	s4,a1
9d0091e0:	0080a821 	move	s5,a0
9d0091e4:	afa60078 	sw	a2,120(sp)
9d0091e8:	afa7007c 	sw	a3,124(sp)
9d0091ec:	afa60080 	sw	a2,128(sp)
9d0091f0:	0f4032fe 	jal	9d00cbf8 <__extendsfdf2>
9d0091f4:	afa70084 	sw	a3,132(sp)
9d0091f8:	afa20070 	sw	v0,112(sp)
9d0091fc:	afa30074 	sw	v1,116(sp)
9d009200:	97a20076 	lhu	v0,118(sp)
9d009204:	02802021 	move	a0,s4
9d009208:	8fa60080 	lw	a2,128(sp)
9d00920c:	8fa70084 	lw	a3,132(sp)
9d009210:	afa60068 	sw	a2,104(sp)
9d009214:	afa7006c 	sw	a3,108(sp)
9d009218:	7c027004 	ins	v0,zero,0x0,0xf
9d00921c:	34423ff0 	ori	v0,v0,0x3ff0
9d009220:	0f4032fe 	jal	9d00cbf8 <__extendsfdf2>
9d009224:	a7a2007e 	sh	v0,126(sp)
9d009228:	afa20060 	sw	v0,96(sp)
9d00922c:	afa30064 	sw	v1,100(sp)
9d009230:	97a20066 	lhu	v0,102(sp)
9d009234:	02a02021 	move	a0,s5
9d009238:	00002821 	move	a1,zero
9d00923c:	7c027004 	ins	v0,zero,0x0,0xf
9d009240:	34423ff0 	ori	v0,v0,0x3ff0
9d009244:	a7a2006e 	sh	v0,110(sp)
9d009248:	8fb00078 	lw	s0,120(sp)
9d00924c:	8fb1007c 	lw	s1,124(sp)
9d009250:	8fb20068 	lw	s2,104(sp)
9d009254:	0f4033f1 	jal	9d00cfc4 <__eqsf2>
9d009258:	8fb3006c 	lw	s3,108(sp)
9d00925c:	8fa60080 	lw	a2,128(sp)
9d009260:	1440001c 	bnez	v0,9d0092d4 <.LCFI0+0x120>
9d009264:	8fa70084 	lw	a3,132(sp)
9d009268:	02402021 	move	a0,s2
9d00926c:	0f402e37 	jal	9d00b8dc <.LFE0>
9d009270:	02602821 	move	a1,s3
9d009274:	10400036 	beqz	v0,9d009350 <.LCFI0+0x19c>
9d009278:	3c029d01 	lui	v0,0x9d01
9d00927c:	afb00050 	sw	s0,80(sp)
9d009280:	afb10054 	sw	s1,84(sp)
9d009284:	97a40056 	lhu	a0,86(sp)
9d009288:	7c047004 	ins	a0,zero,0x0,0xf
9d00928c:	34844009 	ori	a0,a0,0x4009
9d009290:	8c43de24 	lw	v1,-8668(v0)
9d009294:	8c42de20 	lw	v0,-8672(v0)
9d009298:	afa20058 	sw	v0,88(sp)
9d00929c:	afa3005c 	sw	v1,92(sp)
9d0092a0:	a7a4005e 	sh	a0,94(sp)
9d0092a4:	8fa40058 	lw	a0,88(sp)
9d0092a8:	0f4030a1 	jal	9d00c284 <.LFE23>
9d0092ac:	8fa5005c 	lw	a1,92(sp)
9d0092b0:	8fbf00a4 	lw	ra,164(sp)
9d0092b4:	8fb500a0 	lw	s5,160(sp)
9d0092b8:	8fb4009c 	lw	s4,156(sp)
9d0092bc:	8fb30098 	lw	s3,152(sp)
9d0092c0:	8fb20094 	lw	s2,148(sp)
9d0092c4:	8fb10090 	lw	s1,144(sp)
9d0092c8:	8fb0008c 	lw	s0,140(sp)
9d0092cc:	03e00008 	jr	ra
9d0092d0:	27bd00a8 	addiu	sp,sp,168
9d0092d4:	02802021 	move	a0,s4
9d0092d8:	00002821 	move	a1,zero
9d0092dc:	afa60080 	sw	a2,128(sp)
9d0092e0:	0f4033f1 	jal	9d00cfc4 <__eqsf2>
9d0092e4:	afa70084 	sw	a3,132(sp)
9d0092e8:	8fa60080 	lw	a2,128(sp)
9d0092ec:	14400022 	bnez	v0,9d009378 <.LCFI0+0x1c4>
9d0092f0:	8fa70084 	lw	a3,132(sp)
9d0092f4:	afb00040 	sw	s0,64(sp)
9d0092f8:	afb10044 	sw	s1,68(sp)
9d0092fc:	97a40046 	lhu	a0,70(sp)
9d009300:	7c047004 	ins	a0,zero,0x0,0xf
9d009304:	34843ff9 	ori	a0,a0,0x3ff9
9d009308:	3c029d01 	lui	v0,0x9d01
9d00930c:	8c43de34 	lw	v1,-8652(v0)
9d009310:	8c42de30 	lw	v0,-8656(v0)
9d009314:	afa20048 	sw	v0,72(sp)
9d009318:	afa3004c 	sw	v1,76(sp)
9d00931c:	a7a4004e 	sh	a0,78(sp)
9d009320:	8fa40048 	lw	a0,72(sp)
9d009324:	0f4030a1 	jal	9d00c284 <.LFE23>
9d009328:	8fa5004c 	lw	a1,76(sp)
9d00932c:	8fbf00a4 	lw	ra,164(sp)
9d009330:	8fb500a0 	lw	s5,160(sp)
9d009334:	8fb4009c 	lw	s4,156(sp)
9d009338:	8fb30098 	lw	s3,152(sp)
9d00933c:	8fb20094 	lw	s2,148(sp)
9d009340:	8fb10090 	lw	s1,144(sp)
9d009344:	8fb0008c 	lw	s0,140(sp)
9d009348:	03e00008 	jr	ra
9d00934c:	27bd00a8 	addiu	sp,sp,168
9d009350:	02a01021 	move	v0,s5
9d009354:	8fbf00a4 	lw	ra,164(sp)
9d009358:	8fb500a0 	lw	s5,160(sp)
9d00935c:	8fb4009c 	lw	s4,156(sp)
9d009360:	8fb30098 	lw	s3,152(sp)
9d009364:	8fb20094 	lw	s2,148(sp)
9d009368:	8fb10090 	lw	s1,144(sp)
9d00936c:	8fb0008c 	lw	s0,140(sp)
9d009370:	03e00008 	jr	ra
9d009374:	27bd00a8 	addiu	sp,sp,168
9d009378:	02802021 	move	a0,s4
9d00937c:	afa60080 	sw	a2,128(sp)
9d009380:	0f4037f3 	jal	9d00dfcc <finitel>
9d009384:	afa70084 	sw	a3,132(sp)
9d009388:	1440001e 	bnez	v0,9d009404 <.LCFI0+0x250>
9d00938c:	02a02021 	move	a0,s5
9d009390:	0f4037f3 	jal	9d00dfcc <finitel>
9d009394:	00000000 	nop
9d009398:	8fa60080 	lw	a2,128(sp)
9d00939c:	8fa70084 	lw	a3,132(sp)
9d0093a0:	02402021 	move	a0,s2
9d0093a4:	1440002b 	bnez	v0,9d009454 <.LCFI0+0x2a0>
9d0093a8:	02602821 	move	a1,s3
9d0093ac:	0f402e37 	jal	9d00b8dc <.LFE0>
9d0093b0:	00000000 	nop
9d0093b4:	50400042 	beqzl	v0,9d0094c0 <.LCFI0+0x30c>
9d0093b8:	3c029d01 	lui	v0,0x9d01
9d0093bc:	3c029d01 	lui	v0,0x9d01
9d0093c0:	8c43de1c 	lw	v1,-8676(v0)
9d0093c4:	8c42de18 	lw	v0,-8680(v0)
9d0093c8:	afa20038 	sw	v0,56(sp)
9d0093cc:	afa3003c 	sw	v1,60(sp)
9d0093d0:	afb00030 	sw	s0,48(sp)
9d0093d4:	afb10034 	sw	s1,52(sp)
9d0093d8:	97a3003e 	lhu	v1,62(sp)
9d0093dc:	97a20036 	lhu	v0,54(sp)
9d0093e0:	30637fff 	andi	v1,v1,0x7fff
9d0093e4:	7c027004 	ins	v0,zero,0x0,0xf
9d0093e8:	00431025 	or	v0,v0,v1
9d0093ec:	a7a2003e 	sh	v0,62(sp)
9d0093f0:	8fa40038 	lw	a0,56(sp)
9d0093f4:	0f4030a1 	jal	9d00c284 <.LFE23>
9d0093f8:	8fa5003c 	lw	a1,60(sp)
9d0093fc:	0b4024cc 	j	9d009330 <.LCFI0+0x17c>
9d009400:	8fbf00a4 	lw	ra,164(sp)
9d009404:	0f4037f3 	jal	9d00dfcc <finitel>
9d009408:	00000000 	nop
9d00940c:	14400028 	bnez	v0,9d0094b0 <.LCFI0+0x2fc>
9d009410:	02a02021 	move	a0,s5
9d009414:	afb00010 	sw	s0,16(sp)
9d009418:	afb10014 	sw	s1,20(sp)
9d00941c:	97a40016 	lhu	a0,22(sp)
9d009420:	7c047004 	ins	a0,zero,0x0,0xf
9d009424:	34843ff9 	ori	a0,a0,0x3ff9
9d009428:	3c029d01 	lui	v0,0x9d01
9d00942c:	8c43de34 	lw	v1,-8652(v0)
9d009430:	8c42de30 	lw	v0,-8656(v0)
9d009434:	afa20018 	sw	v0,24(sp)
9d009438:	afa3001c 	sw	v1,28(sp)
9d00943c:	a7a4001e 	sh	a0,30(sp)
9d009440:	8fa40018 	lw	a0,24(sp)
9d009444:	0f4030a1 	jal	9d00c284 <.LFE23>
9d009448:	8fa5001c 	lw	a1,28(sp)
9d00944c:	0b4024cc 	j	9d009330 <.LCFI0+0x17c>
9d009450:	8fbf00a4 	lw	ra,164(sp)
9d009454:	0f402e37 	jal	9d00b8dc <.LFE0>
9d009458:	00000000 	nop
9d00945c:	00002021 	move	a0,zero
9d009460:	10400004 	beqz	v0,9d009474 <.LCFI0+0x2c0>
9d009464:	00002821 	move	a1,zero
9d009468:	3c029d01 	lui	v0,0x9d01
9d00946c:	8c44de20 	lw	a0,-8672(v0)
9d009470:	8c45de24 	lw	a1,-8668(v0)
9d009474:	afa40028 	sw	a0,40(sp)
9d009478:	afa5002c 	sw	a1,44(sp)
9d00947c:	afb00020 	sw	s0,32(sp)
9d009480:	afb10024 	sw	s1,36(sp)
9d009484:	97a3002e 	lhu	v1,46(sp)
9d009488:	97a20026 	lhu	v0,38(sp)
9d00948c:	30637fff 	andi	v1,v1,0x7fff
9d009490:	7c027004 	ins	v0,zero,0x0,0xf
9d009494:	00431025 	or	v0,v0,v1
9d009498:	a7a2002e 	sh	v0,46(sp)
9d00949c:	8fa40028 	lw	a0,40(sp)
9d0094a0:	0f4030a1 	jal	9d00c284 <.LFE23>
9d0094a4:	8fa5002c 	lw	a1,44(sp)
9d0094a8:	0b4024cc 	j	9d009330 <.LCFI0+0x17c>
9d0094ac:	8fbf00a4 	lw	ra,164(sp)
9d0094b0:	0f402913 	jal	9d00a44c <__mchp_atan2f>
9d0094b4:	02802821 	move	a1,s4
9d0094b8:	0b4024cc 	j	9d009330 <.LCFI0+0x17c>
9d0094bc:	8fbf00a4 	lw	ra,164(sp)
9d0094c0:	8c43de14 	lw	v1,-8684(v0)
9d0094c4:	0b4024f2 	j	9d0093c8 <.LCFI0+0x214>
9d0094c8:	8c42de10 	lw	v0,-8688(v0)

Disassembly of section .text.strtoull:

9d0094cc <strtoull>:
9d0094cc:	27bdffd0 	addiu	sp,sp,-48
9d0094d0:	afbf002c 	sw	ra,44(sp)
9d0094d4:	afb50028 	sw	s5,40(sp)
9d0094d8:	afb40024 	sw	s4,36(sp)
9d0094dc:	afb30020 	sw	s3,32(sp)
9d0094e0:	afb2001c 	sw	s2,28(sp)
9d0094e4:	afb10018 	sw	s1,24(sp)
9d0094e8:	afb00014 	sw	s0,20(sp)
9d0094ec:	00808821 	move	s1,a0
9d0094f0:	80820000 	lb	v0,0(a0)
9d0094f4:	00a09821 	move	s3,a1
9d0094f8:	1040001f 	beqz	v0,9d009578 <strtoull+0xac>
9d0094fc:	00c09021 	move	s2,a2
9d009500:	3c049d01 	lui	a0,0x9d01
9d009504:	2484bf79 	addiu	a0,a0,-16519
9d009508:	0b402547 	j	9d00951c <strtoull+0x50>
9d00950c:	00821821 	addu	v1,a0,v0
9d009510:	82220000 	lb	v0,0(s1)
9d009514:	10400018 	beqz	v0,9d009578 <strtoull+0xac>
9d009518:	00821821 	addu	v1,a0,v0
9d00951c:	80630000 	lb	v1,0(v1)
9d009520:	30630088 	andi	v1,v1,0x88
9d009524:	5460fffa 	bnezl	v1,9d009510 <strtoull+0x44>
9d009528:	26310001 	addiu	s1,s1,1
9d00952c:	2403002b 	li	v1,43
9d009530:	14430079 	bne	v0,v1,9d009718 <strtoull+0x24c>
9d009534:	2403002d 	li	v1,45
9d009538:	3842002d 	xori	v0,v0,0x2d
9d00953c:	82300001 	lb	s0,1(s1)
9d009540:	2c550001 	sltiu	s5,v0,1
9d009544:	26310001 	addiu	s1,s1,1
9d009548:	1640000f 	bnez	s2,9d009588 <strtoull+0xbc>
9d00954c:	24020010 	li	v0,16
9d009550:	24020030 	li	v0,48
9d009554:	12020075 	beq	s0,v0,9d00972c <strtoull+0x260>
9d009558:	3c0d9999 	lui	t5,0x9999
9d00955c:	35ad9999 	ori	t5,t5,0x9999
9d009560:	3c0a1999 	lui	t2,0x1999
9d009564:	354a9999 	ori	t2,t2,0x9999
9d009568:	240b000a 	li	t3,10
9d00956c:	0000a021 	move	s4,zero
9d009570:	0b40256c 	j	9d0095b0 <strtoull+0xe4>
9d009574:	2412000a 	li	s2,10
9d009578:	00008021 	move	s0,zero
9d00957c:	1240fff4 	beqz	s2,9d009550 <strtoull+0x84>
9d009580:	0000a821 	move	s5,zero
9d009584:	24020010 	li	v0,16
9d009588:	12420076 	beq	s2,v0,9d009764 <strtoull+0x298>
9d00958c:	0012a7c3 	sra	s4,s2,0x1f
9d009590:	2404ffff 	li	a0,-1
9d009594:	2405ffff 	li	a1,-1
9d009598:	02403021 	move	a2,s2
9d00959c:	0f401cf2 	jal	9d0073c8 <__udivdi3>
9d0095a0:	02803821 	move	a3,s4
9d0095a4:	02405821 	move	t3,s2
9d0095a8:	00406821 	move	t5,v0
9d0095ac:	00605021 	move	t2,v1
9d0095b0:	2624ffff 	addiu	a0,s1,-1
9d0095b4:	00002821 	move	a1,zero
9d0095b8:	00001021 	move	v0,zero
9d0095bc:	00001821 	move	v1,zero
9d0095c0:	3c079d01 	lui	a3,0x9d01
9d0095c4:	24e7bf79 	addiu	a3,a3,-16519
9d0095c8:	240e0061 	li	t6,97
9d0095cc:	240c0041 	li	t4,65
9d0095d0:	1200002b 	beqz	s0,9d009680 <strtoull+0x1b4>
9d0095d4:	24840001 	addiu	a0,a0,1
9d0095d8:	02074021 	addu	t0,s0,a3
9d0095dc:	91080000 	lbu	t0,0(t0)
9d0095e0:	31090004 	andi	t1,t0,0x4
9d0095e4:	1120003d 	beqz	t1,9d0096dc <strtoull+0x210>
9d0095e8:	31060003 	andi	a2,t0,0x3
9d0095ec:	2610ffd0 	addiu	s0,s0,-48
9d0095f0:	06000023 	bltz	s0,9d009680 <strtoull+0x1b4>
9d0095f4:	0212402a 	slt	t0,s0,s2
9d0095f8:	11000021 	beqz	t0,9d009680 <strtoull+0x1b4>
9d0095fc:	0143402b 	sltu	t0,t2,v1
9d009600:	55000034 	bnezl	t0,9d0096d4 <strtoull+0x208>
9d009604:	24050001 	li	a1,1
9d009608:	146a0003 	bne	v1,t2,9d009618 <strtoull+0x14c>
9d00960c:	01a2302b 	sltu	a2,t5,v0
9d009610:	54c00030 	bnezl	a2,9d0096d4 <strtoull+0x208>
9d009614:	24050001 	li	a1,1
9d009618:	14a00016 	bnez	a1,9d009674 <strtoull+0x1a8>
9d00961c:	02820018 	mult	s4,v0
9d009620:	001047c3 	sra	t0,s0,0x1f
9d009624:	71630000 	madd	t3,v1
9d009628:	00003012 	mflo	a2
9d00962c:	004b0019 	multu	v0,t3
9d009630:	00001012 	mflo	v0
9d009634:	00001810 	mfhi	v1
9d009638:	00c31821 	addu	v1,a2,v1
9d00963c:	00033027 	nor	a2,zero,v1
9d009640:	00c8482b 	sltu	t1,a2,t0
9d009644:	15200022 	bnez	t1,9d0096d0 <strtoull+0x204>
9d009648:	00027827 	nor	t7,zero,v0
9d00964c:	55060005 	bnel	t0,a2,9d009664 <strtoull+0x198>
9d009650:	02028021 	addu	s0,s0,v0
9d009654:	01f0782b 	sltu	t7,t7,s0
9d009658:	55e0001e 	bnezl	t7,9d0096d4 <strtoull+0x208>
9d00965c:	24050001 	li	a1,1
9d009660:	02028021 	addu	s0,s0,v0
9d009664:	0202302b 	sltu	a2,s0,v0
9d009668:	00684021 	addu	t0,v1,t0
9d00966c:	02001021 	move	v0,s0
9d009670:	00c81821 	addu	v1,a2,t0
9d009674:	80900001 	lb	s0,1(a0)
9d009678:	1600ffd7 	bnez	s0,9d0095d8 <strtoull+0x10c>
9d00967c:	24840001 	addiu	a0,a0,1
9d009680:	12a0001d 	beqz	s5,9d0096f8 <strtoull+0x22c>
9d009684:	00000000 	nop
9d009688:	54a0001e 	bnezl	a1,9d009704 <strtoull+0x238>
9d00968c:	24030022 	li	v1,34
9d009690:	00023823 	negu	a3,v0
9d009694:	0007282b 	sltu	a1,zero,a3
9d009698:	00033023 	negu	a2,v1
9d00969c:	00e01021 	move	v0,a3
9d0096a0:	00c51823 	subu	v1,a2,a1
9d0096a4:	56600001 	bnezl	s3,9d0096ac <strtoull+0x1e0>
9d0096a8:	ae640000 	sw	a0,0(s3)
9d0096ac:	8fbf002c 	lw	ra,44(sp)
9d0096b0:	8fb50028 	lw	s5,40(sp)
9d0096b4:	8fb40024 	lw	s4,36(sp)
9d0096b8:	8fb30020 	lw	s3,32(sp)
9d0096bc:	8fb2001c 	lw	s2,28(sp)
9d0096c0:	8fb10018 	lw	s1,24(sp)
9d0096c4:	8fb00014 	lw	s0,20(sp)
9d0096c8:	03e00008 	jr	ra
9d0096cc:	27bd0030 	addiu	sp,sp,48
9d0096d0:	24050001 	li	a1,1
9d0096d4:	0b40259e 	j	9d009678 <strtoull+0x1ac>
9d0096d8:	80900001 	lb	s0,1(a0)
9d0096dc:	10c0ffe8 	beqz	a2,9d009680 <strtoull+0x1b4>
9d0096e0:	31080001 	andi	t0,t0,0x1
9d0096e4:	01803021 	move	a2,t4
9d0096e8:	01c8300a 	movz	a2,t6,t0
9d0096ec:	02068023 	subu	s0,s0,a2
9d0096f0:	0b40257c 	j	9d0095f0 <strtoull+0x124>
9d0096f4:	2610000a 	addiu	s0,s0,10
9d0096f8:	10a0ffea 	beqz	a1,9d0096a4 <strtoull+0x1d8>
9d0096fc:	00000000 	nop
9d009700:	24030022 	li	v1,34
9d009704:	3c02a000 	lui	v0,0xa000
9d009708:	ac430318 	sw	v1,792(v0)
9d00970c:	2402ffff 	li	v0,-1
9d009710:	0b4025a9 	j	9d0096a4 <strtoull+0x1d8>
9d009714:	2403ffff 	li	v1,-1
9d009718:	1043ff88 	beq	v0,v1,9d00953c <strtoull+0x70>
9d00971c:	3842002d 	xori	v0,v0,0x2d
9d009720:	82300000 	lb	s0,0(s1)
9d009724:	0b402552 	j	9d009548 <strtoull+0x7c>
9d009728:	0000a821 	move	s5,zero
9d00972c:	82300001 	lb	s0,1(s1)
9d009730:	2402ffdf 	li	v0,-33
9d009734:	02021824 	and	v1,s0,v0
9d009738:	24020058 	li	v0,88
9d00973c:	50620012 	beql	v1,v0,9d009788 <strtoull+0x2bc>
9d009740:	82300002 	lb	s0,2(s1)
9d009744:	26310001 	addiu	s1,s1,1
9d009748:	240dffff 	li	t5,-1
9d00974c:	3c0a1fff 	lui	t2,0x1fff
9d009750:	354affff 	ori	t2,t2,0xffff
9d009754:	240b0008 	li	t3,8
9d009758:	0000a021 	move	s4,zero
9d00975c:	0b40256c 	j	9d0095b0 <strtoull+0xe4>
9d009760:	24120008 	li	s2,8
9d009764:	24020030 	li	v0,48
9d009768:	5202000f 	beql	s0,v0,9d0097a8 <strtoull+0x2dc>
9d00976c:	82300001 	lb	s0,1(s1)
9d009770:	240dffff 	li	t5,-1
9d009774:	3c0a0fff 	lui	t2,0xfff
9d009778:	354affff 	ori	t2,t2,0xffff
9d00977c:	240b0010 	li	t3,16
9d009780:	0b40256c 	j	9d0095b0 <strtoull+0xe4>
9d009784:	0000a021 	move	s4,zero
9d009788:	240dffff 	li	t5,-1
9d00978c:	26310002 	addiu	s1,s1,2
9d009790:	3c0a0fff 	lui	t2,0xfff
9d009794:	354affff 	ori	t2,t2,0xffff
9d009798:	240b0010 	li	t3,16
9d00979c:	0000a021 	move	s4,zero
9d0097a0:	0b40256c 	j	9d0095b0 <strtoull+0xe4>
9d0097a4:	24120010 	li	s2,16
9d0097a8:	24020078 	li	v0,120
9d0097ac:	52020003 	beql	s0,v0,9d0097bc <strtoull+0x2f0>
9d0097b0:	82300002 	lb	s0,2(s1)
9d0097b4:	0b4025dc 	j	9d009770 <strtoull+0x2a4>
9d0097b8:	26310001 	addiu	s1,s1,1
9d0097bc:	240dffff 	li	t5,-1
9d0097c0:	26310002 	addiu	s1,s1,2
9d0097c4:	3c0a0fff 	lui	t2,0xfff
9d0097c8:	354affff 	ori	t2,t2,0xffff
9d0097cc:	240b0010 	li	t3,16
9d0097d0:	0b40256c 	j	9d0095b0 <strtoull+0xe4>
9d0097d4:	0000a021 	move	s4,zero

Disassembly of section .text._strtostr:

9d0097d8 <_strtostr>:
9d0097d8:	27bdfec8 	addiu	sp,sp,-312
9d0097dc:	afbf0134 	sw	ra,308(sp)
9d0097e0:	afbe0130 	sw	s8,304(sp)
9d0097e4:	afb7012c 	sw	s7,300(sp)
9d0097e8:	afb60128 	sw	s6,296(sp)
9d0097ec:	afb50124 	sw	s5,292(sp)
9d0097f0:	afb40120 	sw	s4,288(sp)
9d0097f4:	afb3011c 	sw	s3,284(sp)
9d0097f8:	afb20118 	sw	s2,280(sp)
9d0097fc:	afb10114 	sw	s1,276(sp)
9d009800:	afb00110 	sw	s0,272(sp)
9d009804:	00808021 	move	s0,a0
9d009808:	afa5013c 	sw	a1,316(sp)
9d00980c:	00c09821 	move	s3,a2
9d009810:	00e0b021 	move	s6,a3
9d009814:	24020002 	li	v0,2
9d009818:	10820056 	beq	a0,v0,9d009974 <_strtostr+0x19c>
9d00981c:	8fb20148 	lw	s2,328(sp)
9d009820:	32730001 	andi	s3,s3,0x1
9d009824:	16600005 	bnez	s3,9d00983c <_strtostr+0x64>
9d009828:	00000000 	nop
9d00982c:	8e42000c 	lw	v0,12(s2)
9d009830:	24430004 	addiu	v1,v0,4
9d009834:	ae43000c 	sw	v1,12(s2)
9d009838:	8c510000 	lw	s1,0(v0)
9d00983c:	12c00081 	beqz	s6,9d009a44 <_strtostr+0x26c>
9d009840:	02c0b821 	move	s7,s6
9d009844:	2414ffff 	li	s4,-1
9d009848:	24150001 	li	s5,1
9d00984c:	3c1e9d01 	lui	s8,0x9d01
9d009850:	27debf79 	addiu	s8,s8,-16519
9d009854:	0f40359f 	jal	9d00d67c <.LFE0>
9d009858:	02402021 	move	a0,s2
9d00985c:	50540011 	beql	v0,s4,9d0098a4 <_strtostr+0xcc>
9d009860:	02e01821 	move	v1,s7
9d009864:	12150038 	beq	s0,s5,9d009948 <_strtostr+0x170>
9d009868:	26e3ffff 	addiu	v1,s7,-1
9d00986c:	24040002 	li	a0,2
9d009870:	1204002b 	beq	s0,a0,9d009920 <_strtostr+0x148>
9d009874:	27a50010 	addiu	a1,sp,16
9d009878:	16600003 	bnez	s3,9d009888 <_strtostr+0xb0>
9d00987c:	00000000 	nop
9d009880:	a2220000 	sb	v0,0(s1)
9d009884:	26310001 	addiu	s1,s1,1
9d009888:	10600006 	beqz	v1,9d0098a4 <_strtostr+0xcc>
9d00988c:	0060b821 	move	s7,v1
9d009890:	0f40359f 	jal	9d00d67c <.LFE0>
9d009894:	02402021 	move	a0,s2
9d009898:	1454fff2 	bne	v0,s4,9d009864 <_strtostr+0x8c>
9d00989c:	00000000 	nop
9d0098a0:	02e01821 	move	v1,s7
9d0098a4:	2402ffff 	li	v0,-1
9d0098a8:	8e440014 	lw	a0,20(s2)
9d0098ac:	24840001 	addiu	a0,a0,1
9d0098b0:	16600008 	bnez	s3,9d0098d4 <_strtostr+0xfc>
9d0098b4:	ae440014 	sw	a0,20(s2)
9d0098b8:	24040001 	li	a0,1
9d0098bc:	8fa6013c 	lw	a2,316(sp)
9d0098c0:	50c40001 	beql	a2,a0,9d0098c8 <_strtostr+0xf0>
9d0098c4:	a2200000 	sb	zero,0(s1)
9d0098c8:	8e440018 	lw	a0,24(s2)
9d0098cc:	24840001 	addiu	a0,a0,1
9d0098d0:	ae440018 	sw	a0,24(s2)
9d0098d4:	14760005 	bne	v1,s6,9d0098ec <_strtostr+0x114>
9d0098d8:	00002021 	move	a0,zero
9d0098dc:	2404ffff 	li	a0,-1
9d0098e0:	00021027 	nor	v0,zero,v0
9d0098e4:	24030001 	li	v1,1
9d0098e8:	0062200b 	movn	a0,v1,v0
9d0098ec:	00801021 	move	v0,a0
9d0098f0:	8fbf0134 	lw	ra,308(sp)
9d0098f4:	8fbe0130 	lw	s8,304(sp)
9d0098f8:	8fb7012c 	lw	s7,300(sp)
9d0098fc:	8fb60128 	lw	s6,296(sp)
9d009900:	8fb50124 	lw	s5,292(sp)
9d009904:	8fb40120 	lw	s4,288(sp)
9d009908:	8fb3011c 	lw	s3,284(sp)
9d00990c:	8fb20118 	lw	s2,280(sp)
9d009910:	8fb10114 	lw	s1,276(sp)
9d009914:	8fb00110 	lw	s0,272(sp)
9d009918:	03e00008 	jr	ra
9d00991c:	27bd0138 	addiu	sp,sp,312
9d009920:	00a22021 	addu	a0,a1,v0
9d009924:	80840000 	lb	a0,0(a0)
9d009928:	1480ffd3 	bnez	a0,9d009878 <_strtostr+0xa0>
9d00992c:	00000000 	nop
9d009930:	8e440010 	lw	a0,16(s2)
9d009934:	ae420004 	sw	v0,4(s2)
9d009938:	02e01821 	move	v1,s7
9d00993c:	2484ffff 	addiu	a0,a0,-1
9d009940:	0b40262a 	j	9d0098a8 <_strtostr+0xd0>
9d009944:	ae440010 	sw	a0,16(s2)
9d009948:	005e2021 	addu	a0,v0,s8
9d00994c:	80840000 	lb	a0,0(a0)
9d009950:	30840088 	andi	a0,a0,0x88
9d009954:	1080ffc8 	beqz	a0,9d009878 <_strtostr+0xa0>
9d009958:	00000000 	nop
9d00995c:	8e440010 	lw	a0,16(s2)
9d009960:	ae420004 	sw	v0,4(s2)
9d009964:	02e01821 	move	v1,s7
9d009968:	2484ffff 	addiu	a0,a0,-1
9d00996c:	0b40262a 	j	9d0098a8 <_strtostr+0xd0>
9d009970:	ae440010 	sw	a0,16(s2)
9d009974:	8e540008 	lw	s4,8(s2)
9d009978:	82830000 	lb	v1,0(s4)
9d00997c:	2402005e 	li	v0,94
9d009980:	50620032 	beql	v1,v0,9d009a4c <_strtostr+0x274>
9d009984:	26940001 	addiu	s4,s4,1
9d009988:	24150001 	li	s5,1
9d00998c:	00002821 	move	a1,zero
9d009990:	27a40010 	addiu	a0,sp,16
9d009994:	0f40376f 	jal	9d00ddbc <.LFE1>
9d009998:	24060100 	li	a2,256
9d00999c:	82830000 	lb	v1,0(s4)
9d0099a0:	2405ffff 	li	a1,-1
9d0099a4:	2409ffff 	li	t1,-1
9d0099a8:	240a002d 	li	t2,45
9d0099ac:	2408005d 	li	t0,93
9d0099b0:	0b402678 	j	9d0099e0 <_strtostr+0x208>
9d0099b4:	7c152420 	seb	a0,s5
9d0099b8:	00602821 	move	a1,v1
9d0099bc:	27a30010 	addiu	v1,sp,16
9d0099c0:	00651021 	addu	v0,v1,a1
9d0099c4:	a0550000 	sb	s5,0(v0)
9d0099c8:	02801021 	move	v0,s4
9d0099cc:	24540001 	addiu	s4,v0,1
9d0099d0:	ae540008 	sw	s4,8(s2)
9d0099d4:	80430001 	lb	v1,1(v0)
9d0099d8:	50680018 	beql	v1,t0,9d009a3c <_strtostr+0x264>
9d0099dc:	24420002 	addiu	v0,v0,2
9d0099e0:	10a9fff5 	beq	a1,t1,9d0099b8 <_strtostr+0x1e0>
9d0099e4:	82870001 	lb	a3,1(s4)
9d0099e8:	546afff4 	bnel	v1,t2,9d0099bc <_strtostr+0x1e4>
9d0099ec:	00602821 	move	a1,v1
9d0099f0:	10e8fff1 	beq	a3,t0,9d0099b8 <_strtostr+0x1e0>
9d0099f4:	24a20001 	addiu	v0,a1,1
9d0099f8:	00e2282a 	slt	a1,a3,v0
9d0099fc:	27a30010 	addiu	v1,sp,16
9d009a00:	00621021 	addu	v0,v1,v0
9d009a04:	27a60011 	addiu	a2,sp,17
9d009a08:	14a00005 	bnez	a1,9d009a20 <_strtostr+0x248>
9d009a0c:	00c71821 	addu	v1,a2,a3
9d009a10:	a0440000 	sb	a0,0(v0)
9d009a14:	24420001 	addiu	v0,v0,1
9d009a18:	5443fffe 	bnel	v0,v1,9d009a14 <_strtostr+0x23c>
9d009a1c:	a0440000 	sb	a0,0(v0)
9d009a20:	26820001 	addiu	v0,s4,1
9d009a24:	24540001 	addiu	s4,v0,1
9d009a28:	ae540008 	sw	s4,8(s2)
9d009a2c:	80430001 	lb	v1,1(v0)
9d009a30:	1468ffeb 	bne	v1,t0,9d0099e0 <_strtostr+0x208>
9d009a34:	2405ffff 	li	a1,-1
9d009a38:	24420002 	addiu	v0,v0,2
9d009a3c:	0b402608 	j	9d009820 <_strtostr+0x48>
9d009a40:	ae420008 	sw	v0,8(s2)
9d009a44:	0b402629 	j	9d0098a4 <_strtostr+0xcc>
9d009a48:	00001821 	move	v1,zero
9d009a4c:	ae540008 	sw	s4,8(s2)
9d009a50:	0000a821 	move	s5,zero
9d009a54:	0b402664 	j	9d009990 <_strtostr+0x1b8>
9d009a58:	24050001 	li	a1,1

Disassembly of section .text.strtoul:

9d009a5c <strtoul>:
9d009a5c:	80820000 	lb	v0,0(a0)
9d009a60:	10400089 	beqz	v0,9d009c88 <strtoul+0x22c>
9d009a64:	00001821 	move	v1,zero
9d009a68:	3c089d01 	lui	t0,0x9d01
9d009a6c:	2508bf79 	addiu	t0,t0,-16519
9d009a70:	01021821 	addu	v1,t0,v0
9d009a74:	80630000 	lb	v1,0(v1)
9d009a78:	30630088 	andi	v1,v1,0x88
9d009a7c:	14600007 	bnez	v1,9d009a9c <strtoul+0x40>
9d009a80:	00803821 	move	a3,a0
9d009a84:	0b4026fb 	j	9d009bec <strtoul+0x190>
9d009a88:	2403002b 	li	v1,43
9d009a8c:	80630000 	lb	v1,0(v1)
9d009a90:	30630088 	andi	v1,v1,0x88
9d009a94:	50600055 	beqzl	v1,9d009bec <strtoul+0x190>
9d009a98:	2403002b 	li	v1,43
9d009a9c:	24e70001 	addiu	a3,a3,1
9d009aa0:	80e20000 	lb	v0,0(a3)
9d009aa4:	1440fff9 	bnez	v0,9d009a8c <strtoul+0x30>
9d009aa8:	01021821 	addu	v1,t0,v0
9d009aac:	00001821 	move	v1,zero
9d009ab0:	0000c021 	move	t8,zero
9d009ab4:	14c00041 	bnez	a2,9d009bbc <strtoul+0x160>
9d009ab8:	24020010 	li	v0,16
9d009abc:	24020030 	li	v0,48
9d009ac0:	1062005d 	beq	v1,v0,9d009c38 <strtoul+0x1dc>
9d009ac4:	3c0d1999 	lui	t5,0x1999
9d009ac8:	35ad9999 	ori	t5,t5,0x9999
9d009acc:	240f000a 	li	t7,10
9d009ad0:	00005821 	move	t3,zero
9d009ad4:	2406000a 	li	a2,10
9d009ad8:	24e7ffff 	addiu	a3,a3,-1
9d009adc:	00005021 	move	t2,zero
9d009ae0:	00001021 	move	v0,zero
9d009ae4:	3c0c9d01 	lui	t4,0x9d01
9d009ae8:	258cbf79 	addiu	t4,t4,-16519
9d009aec:	24190061 	li	t9,97
9d009af0:	240e0041 	li	t6,65
9d009af4:	10600019 	beqz	v1,9d009b5c <strtoul+0x100>
9d009af8:	24e70001 	addiu	a3,a3,1
9d009afc:	006c4021 	addu	t0,v1,t4
9d009b00:	91080000 	lbu	t0,0(t0)
9d009b04:	31090004 	andi	t1,t0,0x4
9d009b08:	11200023 	beqz	t1,9d009b98 <strtoul+0x13c>
9d009b0c:	31090003 	andi	t1,t0,0x3
9d009b10:	2463ffd0 	addiu	v1,v1,-48
9d009b14:	04600011 	bltz	v1,9d009b5c <strtoul+0x100>
9d009b18:	0066402a 	slt	t0,v1,a2
9d009b1c:	1100000f 	beqz	t0,9d009b5c <strtoul+0x100>
9d009b20:	01a2402b 	sltu	t0,t5,v0
9d009b24:	55000019 	bnezl	t0,9d009b8c <strtoul+0x130>
9d009b28:	240a0001 	li	t2,1
9d009b2c:	55400008 	bnezl	t2,9d009b50 <strtoul+0xf4>
9d009b30:	80e30001 	lb	v1,1(a3)
9d009b34:	704f1002 	mul	v0,v0,t7
9d009b38:	00024027 	nor	t0,zero,v0
9d009b3c:	0103402b 	sltu	t0,t0,v1
9d009b40:	55000012 	bnezl	t0,9d009b8c <strtoul+0x130>
9d009b44:	240a0001 	li	t2,1
9d009b48:	00431021 	addu	v0,v0,v1
9d009b4c:	80e30001 	lb	v1,1(a3)
9d009b50:	240b0001 	li	t3,1
9d009b54:	1460ffe9 	bnez	v1,9d009afc <strtoul+0xa0>
9d009b58:	24e70001 	addiu	a3,a3,1
9d009b5c:	1300001f 	beqz	t8,9d009bdc <strtoul+0x180>
9d009b60:	00000000 	nop
9d009b64:	11400005 	beqz	t2,9d009b7c <strtoul+0x120>
9d009b68:	00021023 	negu	v0,v0
9d009b6c:	24030022 	li	v1,34
9d009b70:	3c02a000 	lui	v0,0xa000
9d009b74:	ac430318 	sw	v1,792(v0)
9d009b78:	2402ffff 	li	v0,-1
9d009b7c:	10a0000d 	beqz	a1,9d009bb4 <strtoul+0x158>
9d009b80:	008b380a 	movz	a3,a0,t3
9d009b84:	03e00008 	jr	ra
9d009b88:	aca70000 	sw	a3,0(a1)
9d009b8c:	80e30001 	lb	v1,1(a3)
9d009b90:	0b4026d5 	j	9d009b54 <strtoul+0xf8>
9d009b94:	240b0001 	li	t3,1
9d009b98:	1120fff0 	beqz	t1,9d009b5c <strtoul+0x100>
9d009b9c:	31080001 	andi	t0,t0,0x1
9d009ba0:	01c04821 	move	t1,t6
9d009ba4:	0328480a 	movz	t1,t9,t0
9d009ba8:	00691823 	subu	v1,v1,t1
9d009bac:	0b4026c5 	j	9d009b14 <strtoul+0xb8>
9d009bb0:	2463000a 	addiu	v1,v1,10
9d009bb4:	03e00008 	jr	ra
9d009bb8:	00000000 	nop
9d009bbc:	10c20017 	beq	a2,v0,9d009c1c <strtoul+0x1c0>
9d009bc0:	240dffff 	li	t5,-1
9d009bc4:	00c07821 	move	t7,a2
9d009bc8:	01a6001b 	divu	zero,t5,a2
9d009bcc:	00c001f4 	teq	a2,zero,0x7
9d009bd0:	00006812 	mflo	t5
9d009bd4:	0b4026b6 	j	9d009ad8 <strtoul+0x7c>
9d009bd8:	00005821 	move	t3,zero
9d009bdc:	1540ffe4 	bnez	t2,9d009b70 <strtoul+0x114>
9d009be0:	24030022 	li	v1,34
9d009be4:	0b4026df 	j	9d009b7c <strtoul+0x120>
9d009be8:	00000000 	nop
9d009bec:	54430006 	bnel	v0,v1,9d009c08 <strtoul+0x1ac>
9d009bf0:	2403002d 	li	v1,45
9d009bf4:	3842002d 	xori	v0,v0,0x2d
9d009bf8:	80e30001 	lb	v1,1(a3)
9d009bfc:	2c580001 	sltiu	t8,v0,1
9d009c00:	0b4026ad 	j	9d009ab4 <strtoul+0x58>
9d009c04:	24e70001 	addiu	a3,a3,1
9d009c08:	5043fffb 	beql	v0,v1,9d009bf8 <strtoul+0x19c>
9d009c0c:	3842002d 	xori	v0,v0,0x2d
9d009c10:	80e30000 	lb	v1,0(a3)
9d009c14:	0b4026ad 	j	9d009ab4 <strtoul+0x58>
9d009c18:	0000c021 	move	t8,zero
9d009c1c:	24020030 	li	v0,48
9d009c20:	1062001c 	beq	v1,v0,9d009c94 <strtoul+0x238>
9d009c24:	3c0d0fff 	lui	t5,0xfff
9d009c28:	35adffff 	ori	t5,t5,0xffff
9d009c2c:	240f0010 	li	t7,16
9d009c30:	0b4026b6 	j	9d009ad8 <strtoul+0x7c>
9d009c34:	00005821 	move	t3,zero
9d009c38:	80e30001 	lb	v1,1(a3)
9d009c3c:	2402ffdf 	li	v0,-33
9d009c40:	00623024 	and	a2,v1,v0
9d009c44:	24020058 	li	v0,88
9d009c48:	50c20008 	beql	a2,v0,9d009c6c <strtoul+0x210>
9d009c4c:	80e30002 	lb	v1,2(a3)
9d009c50:	24e70001 	addiu	a3,a3,1
9d009c54:	3c0d1fff 	lui	t5,0x1fff
9d009c58:	35adffff 	ori	t5,t5,0xffff
9d009c5c:	240f0008 	li	t7,8
9d009c60:	240b0001 	li	t3,1
9d009c64:	0b4026b6 	j	9d009ad8 <strtoul+0x7c>
9d009c68:	24060008 	li	a2,8
9d009c6c:	3c0d0fff 	lui	t5,0xfff
9d009c70:	35adffff 	ori	t5,t5,0xffff
9d009c74:	24e70002 	addiu	a3,a3,2
9d009c78:	240f0010 	li	t7,16
9d009c7c:	240b0001 	li	t3,1
9d009c80:	0b4026b6 	j	9d009ad8 <strtoul+0x7c>
9d009c84:	24060010 	li	a2,16
9d009c88:	00803821 	move	a3,a0
9d009c8c:	0b4026ad 	j	9d009ab4 <strtoul+0x58>
9d009c90:	0000c021 	move	t8,zero
9d009c94:	80e30001 	lb	v1,1(a3)
9d009c98:	2402ffdf 	li	v0,-33
9d009c9c:	00624024 	and	t0,v1,v0
9d009ca0:	24020058 	li	v0,88
9d009ca4:	51020007 	beql	t0,v0,9d009cc4 <strtoul+0x268>
9d009ca8:	80e30002 	lb	v1,2(a3)
9d009cac:	24e70001 	addiu	a3,a3,1
9d009cb0:	3c0d0fff 	lui	t5,0xfff
9d009cb4:	35adffff 	ori	t5,t5,0xffff
9d009cb8:	240f0010 	li	t7,16
9d009cbc:	0b4026b6 	j	9d009ad8 <strtoul+0x7c>
9d009cc0:	240b0001 	li	t3,1
9d009cc4:	3c0d0fff 	lui	t5,0xfff
9d009cc8:	35adffff 	ori	t5,t5,0xffff
9d009ccc:	24e70002 	addiu	a3,a3,2
9d009cd0:	240f0010 	li	t7,16
9d009cd4:	0b4026b6 	j	9d009ad8 <strtoul+0x7c>
9d009cd8:	240b0001 	li	t3,1

Disassembly of section .text.free:

9d009cdc <free>:
9d009cdc:	10800074 	beqz	a0,9d009eb0 <free+0x1d4>
9d009ce0:	2402fffe 	li	v0,-2
9d009ce4:	8c86fffc 	lw	a2,-4(a0)
9d009ce8:	2485fff8 	addiu	a1,a0,-8
9d009cec:	00c21824 	and	v1,a2,v0
9d009cf0:	00a31021 	addu	v0,a1,v1
9d009cf4:	8c470004 	lw	a3,4(v0)
9d009cf8:	30e80001 	andi	t0,a3,0x1
9d009cfc:	1100006c 	beqz	t0,9d009eb0 <free+0x1d4>
9d009d00:	7c070804 	ins	a3,zero,0x0,0x2
9d009d04:	3c08a000 	lui	t0,0xa000
9d009d08:	2508038c 	addiu	t0,t0,908
9d009d0c:	8d090008 	lw	t1,8(t0)
9d009d10:	10490057 	beq	v0,t1,9d009e70 <free+0x194>
9d009d14:	30c60001 	andi	a2,a2,0x1
9d009d18:	ac470004 	sw	a3,4(v0)
9d009d1c:	14c0000c 	bnez	a2,9d009d50 <free+0x74>
9d009d20:	00004821 	move	t1,zero
9d009d24:	8c86fff8 	lw	a2,-8(a0)
9d009d28:	00a62823 	subu	a1,a1,a2
9d009d2c:	8ca40008 	lw	a0,8(a1)
9d009d30:	00661821 	addu	v1,v1,a2
9d009d34:	3c06a000 	lui	a2,0xa000
9d009d38:	24c60394 	addiu	a2,a2,916
9d009d3c:	50860004 	beql	a0,a2,9d009d50 <free+0x74>
9d009d40:	24090001 	li	t1,1
9d009d44:	8ca6000c 	lw	a2,12(a1)
9d009d48:	ac86000c 	sw	a2,12(a0)
9d009d4c:	acc40008 	sw	a0,8(a2)
9d009d50:	00472021 	addu	a0,v0,a3
9d009d54:	8c840004 	lw	a0,4(a0)
9d009d58:	30840001 	andi	a0,a0,0x1
9d009d5c:	54800008 	bnezl	a0,9d009d80 <free+0xa4>
9d009d60:	34640001 	ori	a0,v1,0x1
9d009d64:	00671821 	addu	v1,v1,a3
9d009d68:	11200026 	beqz	t1,9d009e04 <free+0x128>
9d009d6c:	8c440008 	lw	a0,8(v0)
9d009d70:	8c42000c 	lw	v0,12(v0)
9d009d74:	ac82000c 	sw	v0,12(a0)
9d009d78:	ac440008 	sw	a0,8(v0)
9d009d7c:	34640001 	ori	a0,v1,0x1
9d009d80:	00a31021 	addu	v0,a1,v1
9d009d84:	aca40004 	sw	a0,4(a1)
9d009d88:	15200049 	bnez	t1,9d009eb0 <free+0x1d4>
9d009d8c:	ac430000 	sw	v1,0(v0)
9d009d90:	2c620200 	sltiu	v0,v1,512
9d009d94:	54400028 	bnezl	v0,9d009e38 <free+0x15c>
9d009d98:	000318c2 	srl	v1,v1,0x3
9d009d9c:	00031242 	srl	v0,v1,0x9
9d009da0:	2c440005 	sltiu	a0,v0,5
9d009da4:	1080004c 	beqz	a0,9d009ed8 <free+0x1fc>
9d009da8:	2c440015 	sltiu	a0,v0,21
9d009dac:	00032182 	srl	a0,v1,0x6
9d009db0:	24840038 	addiu	a0,a0,56
9d009db4:	00043040 	sll	a2,a0,0x1
9d009db8:	00063080 	sll	a2,a2,0x2
9d009dbc:	01063021 	addu	a2,t0,a2
9d009dc0:	8cc20008 	lw	v0,8(a2)
9d009dc4:	50460049 	beql	v0,a2,9d009eec <free+0x210>
9d009dc8:	8d030004 	lw	v1,4(t0)
9d009dcc:	8c440004 	lw	a0,4(v0)
9d009dd0:	7c040804 	ins	a0,zero,0x0,0x2
9d009dd4:	0064202b 	sltu	a0,v1,a0
9d009dd8:	50800005 	beqzl	a0,9d009df0 <free+0x114>
9d009ddc:	8c43000c 	lw	v1,12(v0)
9d009de0:	8c420008 	lw	v0,8(v0)
9d009de4:	54c2fffa 	bnel	a2,v0,9d009dd0 <free+0xf4>
9d009de8:	8c440004 	lw	a0,4(v0)
9d009dec:	8c43000c 	lw	v1,12(v0)
9d009df0:	aca3000c 	sw	v1,12(a1)
9d009df4:	aca20008 	sw	v0,8(a1)
9d009df8:	ac650008 	sw	a1,8(v1)
9d009dfc:	03e00008 	jr	ra
9d009e00:	ac45000c 	sw	a1,12(v0)
9d009e04:	3c06a000 	lui	a2,0xa000
9d009e08:	24c60394 	addiu	a2,a2,916
9d009e0c:	5486ffd9 	bnel	a0,a2,9d009d74 <free+0x98>
9d009e10:	8c42000c 	lw	v0,12(v0)
9d009e14:	34660001 	ori	a2,v1,0x1
9d009e18:	00a31021 	addu	v0,a1,v1
9d009e1c:	ad050014 	sw	a1,20(t0)
9d009e20:	ad050010 	sw	a1,16(t0)
9d009e24:	aca4000c 	sw	a0,12(a1)
9d009e28:	aca40008 	sw	a0,8(a1)
9d009e2c:	aca60004 	sw	a2,4(a1)
9d009e30:	03e00008 	jr	ra
9d009e34:	ac430000 	sw	v1,0(v0)
9d009e38:	000310c0 	sll	v0,v1,0x3
9d009e3c:	01021021 	addu	v0,t0,v0
9d009e40:	8d060004 	lw	a2,4(t0)
9d009e44:	8c440008 	lw	a0,8(v0)
9d009e48:	00031883 	sra	v1,v1,0x2
9d009e4c:	24070001 	li	a3,1
9d009e50:	00671804 	sllv	v1,a3,v1
9d009e54:	00661825 	or	v1,v1,a2
9d009e58:	aca2000c 	sw	v0,12(a1)
9d009e5c:	aca40008 	sw	a0,8(a1)
9d009e60:	ad030004 	sw	v1,4(t0)
9d009e64:	ac450008 	sw	a1,8(v0)
9d009e68:	03e00008 	jr	ra
9d009e6c:	ac85000c 	sw	a1,12(a0)
9d009e70:	14c00008 	bnez	a2,9d009e94 <free+0x1b8>
9d009e74:	00e33821 	addu	a3,a3,v1
9d009e78:	8c84fff8 	lw	a0,-8(a0)
9d009e7c:	00a42823 	subu	a1,a1,a0
9d009e80:	8ca2000c 	lw	v0,12(a1)
9d009e84:	8ca30008 	lw	v1,8(a1)
9d009e88:	00e43821 	addu	a3,a3,a0
9d009e8c:	ac62000c 	sw	v0,12(v1)
9d009e90:	ac430008 	sw	v1,8(v0)
9d009e94:	3c02a000 	lui	v0,0xa000
9d009e98:	8c420388 	lw	v0,904(v0)
9d009e9c:	34e30001 	ori	v1,a3,0x1
9d009ea0:	aca30004 	sw	v1,4(a1)
9d009ea4:	00e2382b 	sltu	a3,a3,v0
9d009ea8:	10e00003 	beqz	a3,9d009eb8 <free+0x1dc>
9d009eac:	ad050008 	sw	a1,8(t0)
9d009eb0:	03e00008 	jr	ra
9d009eb4:	00000000 	nop
9d009eb8:	27bdffe8 	addiu	sp,sp,-24
9d009ebc:	afbf0014 	sw	ra,20(sp)
9d009ec0:	3c02a000 	lui	v0,0xa000
9d009ec4:	0f40301f 	jal	9d00c07c <malloc_trim>
9d009ec8:	8c4410a0 	lw	a0,4256(v0)
9d009ecc:	8fbf0014 	lw	ra,20(sp)
9d009ed0:	03e00008 	jr	ra
9d009ed4:	27bd0018 	addiu	sp,sp,24
9d009ed8:	5080000b 	beqzl	a0,9d009f08 <free+0x22c>
9d009edc:	2c440055 	sltiu	a0,v0,85
9d009ee0:	2444005b 	addiu	a0,v0,91
9d009ee4:	0b40276e 	j	9d009db8 <free+0xdc>
9d009ee8:	00043040 	sll	a2,a0,0x1
9d009eec:	00042083 	sra	a0,a0,0x2
9d009ef0:	24060001 	li	a2,1
9d009ef4:	00862004 	sllv	a0,a2,a0
9d009ef8:	00831825 	or	v1,a0,v1
9d009efc:	ad030004 	sw	v1,4(t0)
9d009f00:	0b40277c 	j	9d009df0 <free+0x114>
9d009f04:	00401821 	move	v1,v0
9d009f08:	50800005 	beqzl	a0,9d009f20 <free+0x244>
9d009f0c:	2c440155 	sltiu	a0,v0,341
9d009f10:	00032302 	srl	a0,v1,0xc
9d009f14:	2484006e 	addiu	a0,a0,110
9d009f18:	0b40276e 	j	9d009db8 <free+0xdc>
9d009f1c:	00043040 	sll	a2,a0,0x1
9d009f20:	10800005 	beqz	a0,9d009f38 <free+0x25c>
9d009f24:	2c420555 	sltiu	v0,v0,1365
9d009f28:	000323c2 	srl	a0,v1,0xf
9d009f2c:	24840077 	addiu	a0,a0,119
9d009f30:	0b40276e 	j	9d009db8 <free+0xdc>
9d009f34:	00043040 	sll	a2,a0,0x1
9d009f38:	50400005 	beqzl	v0,9d009f50 <free+0x274>
9d009f3c:	240600fc 	li	a2,252
9d009f40:	00032482 	srl	a0,v1,0x12
9d009f44:	2484007c 	addiu	a0,a0,124
9d009f48:	0b40276e 	j	9d009db8 <free+0xdc>
9d009f4c:	00043040 	sll	a2,a0,0x1
9d009f50:	0b40276e 	j	9d009db8 <free+0xdc>
9d009f54:	2404007e 	li	a0,126

Disassembly of section .text.strtol:

9d009f58 <strtol>:
9d009f58:	80820000 	lb	v0,0(a0)
9d009f5c:	1040008a 	beqz	v0,9d00a188 <strtol+0x230>
9d009f60:	00001821 	move	v1,zero
9d009f64:	3c089d01 	lui	t0,0x9d01
9d009f68:	2508bf79 	addiu	t0,t0,-16519
9d009f6c:	01021821 	addu	v1,t0,v0
9d009f70:	80630000 	lb	v1,0(v1)
9d009f74:	30630088 	andi	v1,v1,0x88
9d009f78:	14600007 	bnez	v1,9d009f98 <strtol+0x40>
9d009f7c:	00803821 	move	a3,a0
9d009f80:	0b40283e 	j	9d00a0f8 <strtol+0x1a0>
9d009f84:	2403002b 	li	v1,43
9d009f88:	80630000 	lb	v1,0(v1)
9d009f8c:	30630088 	andi	v1,v1,0x88
9d009f90:	50600059 	beqzl	v1,9d00a0f8 <strtol+0x1a0>
9d009f94:	2403002b 	li	v1,43
9d009f98:	24e70001 	addiu	a3,a3,1
9d009f9c:	80e20000 	lb	v0,0(a3)
9d009fa0:	1440fff9 	bnez	v0,9d009f88 <strtol+0x30>
9d009fa4:	01021821 	addu	v1,t0,v0
9d009fa8:	00001821 	move	v1,zero
9d009fac:	0000c021 	move	t8,zero
9d009fb0:	14c00042 	bnez	a2,9d00a0bc <strtol+0x164>
9d009fb4:	24020010 	li	v0,16
9d009fb8:	24020030 	li	v0,48
9d009fbc:	10620060 	beq	v1,v0,9d00a140 <strtol+0x1e8>
9d009fc0:	3c0d0ccc 	lui	t5,0xccc
9d009fc4:	35adcccc 	ori	t5,t5,0xcccc
9d009fc8:	00005821 	move	t3,zero
9d009fcc:	2406000a 	li	a2,10
9d009fd0:	24e7ffff 	addiu	a3,a3,-1
9d009fd4:	00005021 	move	t2,zero
9d009fd8:	00001021 	move	v0,zero
9d009fdc:	3c0c9d01 	lui	t4,0x9d01
9d009fe0:	258cbf79 	addiu	t4,t4,-16519
9d009fe4:	240f0061 	li	t7,97
9d009fe8:	240e0041 	li	t6,65
9d009fec:	3c197fff 	lui	t9,0x7fff
9d009ff0:	3739ffff 	ori	t9,t9,0xffff
9d009ff4:	10600019 	beqz	v1,9d00a05c <strtol+0x104>
9d009ff8:	24e70001 	addiu	a3,a3,1
9d009ffc:	006c4021 	addu	t0,v1,t4
9d00a000:	91080000 	lbu	t0,0(t0)
9d00a004:	31090004 	andi	t1,t0,0x4
9d00a008:	11200023 	beqz	t1,9d00a098 <strtol+0x140>
9d00a00c:	31090003 	andi	t1,t0,0x3
9d00a010:	2463ffd0 	addiu	v1,v1,-48
9d00a014:	04600011 	bltz	v1,9d00a05c <strtol+0x104>
9d00a018:	0066402a 	slt	t0,v1,a2
9d00a01c:	1100000f 	beqz	t0,9d00a05c <strtol+0x104>
9d00a020:	01a2402a 	slt	t0,t5,v0
9d00a024:	55000019 	bnezl	t0,9d00a08c <strtol+0x134>
9d00a028:	240a0001 	li	t2,1
9d00a02c:	55400017 	bnezl	t2,9d00a08c <strtol+0x134>
9d00a030:	240a0001 	li	t2,1
9d00a034:	70461002 	mul	v0,v0,a2
9d00a038:	03224023 	subu	t0,t9,v0
9d00a03c:	0103402a 	slt	t0,t0,v1
9d00a040:	55000012 	bnezl	t0,9d00a08c <strtol+0x134>
9d00a044:	240a0001 	li	t2,1
9d00a048:	00431021 	addu	v0,v0,v1
9d00a04c:	80e30001 	lb	v1,1(a3)
9d00a050:	240b0001 	li	t3,1
9d00a054:	1460ffe9 	bnez	v1,9d009ffc <strtol+0xa4>
9d00a058:	24e70001 	addiu	a3,a3,1
9d00a05c:	1300001f 	beqz	t8,9d00a0dc <strtol+0x184>
9d00a060:	00000000 	nop
9d00a064:	11400005 	beqz	t2,9d00a07c <strtol+0x124>
9d00a068:	00021023 	negu	v0,v0
9d00a06c:	24030022 	li	v1,34
9d00a070:	3c02a000 	lui	v0,0xa000
9d00a074:	ac430318 	sw	v1,792(v0)
9d00a078:	3c028000 	lui	v0,0x8000
9d00a07c:	10a0000d 	beqz	a1,9d00a0b4 <strtol+0x15c>
9d00a080:	008b380a 	movz	a3,a0,t3
9d00a084:	03e00008 	jr	ra
9d00a088:	aca70000 	sw	a3,0(a1)
9d00a08c:	80e30001 	lb	v1,1(a3)
9d00a090:	0b402815 	j	9d00a054 <strtol+0xfc>
9d00a094:	240b0001 	li	t3,1
9d00a098:	1120fff0 	beqz	t1,9d00a05c <strtol+0x104>
9d00a09c:	31080001 	andi	t0,t0,0x1
9d00a0a0:	01c04821 	move	t1,t6
9d00a0a4:	01e8480a 	movz	t1,t7,t0
9d00a0a8:	00691823 	subu	v1,v1,t1
9d00a0ac:	0b402805 	j	9d00a014 <strtol+0xbc>
9d00a0b0:	2463000a 	addiu	v1,v1,10
9d00a0b4:	03e00008 	jr	ra
9d00a0b8:	00000000 	nop
9d00a0bc:	10c2001a 	beq	a2,v0,9d00a128 <strtol+0x1d0>
9d00a0c0:	3c0d7fff 	lui	t5,0x7fff
9d00a0c4:	35adffff 	ori	t5,t5,0xffff
9d00a0c8:	01a6001a 	div	zero,t5,a2
9d00a0cc:	00c001f4 	teq	a2,zero,0x7
9d00a0d0:	00006812 	mflo	t5
9d00a0d4:	0b4027f4 	j	9d009fd0 <strtol+0x78>
9d00a0d8:	00005821 	move	t3,zero
9d00a0dc:	1140ffe7 	beqz	t2,9d00a07c <strtol+0x124>
9d00a0e0:	24030022 	li	v1,34
9d00a0e4:	3c02a000 	lui	v0,0xa000
9d00a0e8:	ac430318 	sw	v1,792(v0)
9d00a0ec:	3c027fff 	lui	v0,0x7fff
9d00a0f0:	0b40281f 	j	9d00a07c <strtol+0x124>
9d00a0f4:	3442ffff 	ori	v0,v0,0xffff
9d00a0f8:	54430006 	bnel	v0,v1,9d00a114 <strtol+0x1bc>
9d00a0fc:	2403002d 	li	v1,45
9d00a100:	3842002d 	xori	v0,v0,0x2d
9d00a104:	80e30001 	lb	v1,1(a3)
9d00a108:	2c580001 	sltiu	t8,v0,1
9d00a10c:	0b4027ec 	j	9d009fb0 <strtol+0x58>
9d00a110:	24e70001 	addiu	a3,a3,1
9d00a114:	5043fffb 	beql	v0,v1,9d00a104 <strtol+0x1ac>
9d00a118:	3842002d 	xori	v0,v0,0x2d
9d00a11c:	80e30000 	lb	v1,0(a3)
9d00a120:	0b4027ec 	j	9d009fb0 <strtol+0x58>
9d00a124:	0000c021 	move	t8,zero
9d00a128:	24020030 	li	v0,48
9d00a12c:	10620019 	beq	v1,v0,9d00a194 <strtol+0x23c>
9d00a130:	3c0d07ff 	lui	t5,0x7ff
9d00a134:	35adffff 	ori	t5,t5,0xffff
9d00a138:	0b4027f4 	j	9d009fd0 <strtol+0x78>
9d00a13c:	00005821 	move	t3,zero
9d00a140:	80e30001 	lb	v1,1(a3)
9d00a144:	2402ffdf 	li	v0,-33
9d00a148:	00623024 	and	a2,v1,v0
9d00a14c:	24020058 	li	v0,88
9d00a150:	50c20007 	beql	a2,v0,9d00a170 <strtol+0x218>
9d00a154:	80e30002 	lb	v1,2(a3)
9d00a158:	24e70001 	addiu	a3,a3,1
9d00a15c:	3c0d0fff 	lui	t5,0xfff
9d00a160:	35adffff 	ori	t5,t5,0xffff
9d00a164:	240b0001 	li	t3,1
9d00a168:	0b4027f4 	j	9d009fd0 <strtol+0x78>
9d00a16c:	24060008 	li	a2,8
9d00a170:	3c0d07ff 	lui	t5,0x7ff
9d00a174:	35adffff 	ori	t5,t5,0xffff
9d00a178:	24e70002 	addiu	a3,a3,2
9d00a17c:	240b0001 	li	t3,1
9d00a180:	0b4027f4 	j	9d009fd0 <strtol+0x78>
9d00a184:	24060010 	li	a2,16
9d00a188:	00803821 	move	a3,a0
9d00a18c:	0b4027ec 	j	9d009fb0 <strtol+0x58>
9d00a190:	0000c021 	move	t8,zero
9d00a194:	80e30001 	lb	v1,1(a3)
9d00a198:	2402ffdf 	li	v0,-33
9d00a19c:	00624024 	and	t0,v1,v0
9d00a1a0:	24020058 	li	v0,88
9d00a1a4:	51020006 	beql	t0,v0,9d00a1c0 <strtol+0x268>
9d00a1a8:	80e30002 	lb	v1,2(a3)
9d00a1ac:	24e70001 	addiu	a3,a3,1
9d00a1b0:	3c0d07ff 	lui	t5,0x7ff
9d00a1b4:	35adffff 	ori	t5,t5,0xffff
9d00a1b8:	0b4027f4 	j	9d009fd0 <strtol+0x78>
9d00a1bc:	240b0001 	li	t3,1
9d00a1c0:	3c0d07ff 	lui	t5,0x7ff
9d00a1c4:	35adffff 	ori	t5,t5,0xffff
9d00a1c8:	24e70002 	addiu	a3,a3,2
9d00a1cc:	0b4027f4 	j	9d009fd0 <strtol+0x78>
9d00a1d0:	240b0001 	li	t3,1

Disassembly of section .text.fpsubadd:

9d00a1d4 <__subsf3>:
9d00a1d4:	3c018000 00a12826                       ...<&(..

9d00a1dc <__addsf3>:
9d00a1dc:	00044dc2 312900ff 00055dc2 316b00ff     .M....)1.]....k1
9d00a1ec:	3c078000 00044200 01074025 00055200     ...<.B..%@...R..
9d00a1fc:	01475025 252dffff 2da100fe 10200061     %PG...-%...-a. .
9d00a20c:	00000000                                ....

9d00a210 <Blab1>:
9d00a210:	256dffff 	addiu	t5,t3,-1
9d00a214:	2da100fe 	sltiu	at,t5,254
9d00a218:	10200077 	beqz	at,9d00a3f8 <BspecB>
9d00a21c:	00000000 	nop

9d00a220 <Blab2>:
9d00a220:	012b6023 	subu	t4,t1,t3
9d00a224:	0580000d 	bltz	t4,9d00a25c <i1>
9d00a228:	00000000 	nop
9d00a22c:	29810020 	slti	at,t4,32
9d00a230:	14200003 	bnez	at,9d00a240 <i2>
9d00a234:	00000000 	nop
9d00a238:	10000015 	b	9d00a290 <e1>
9d00a23c:	240a0002 	li	t2,2

9d00a240 <i2>:
9d00a240:	000a3025 	or	a2,zero,t2
9d00a244:	018a5006 	srlv	t2,t2,t4
9d00a248:	018a6804 	sllv	t5,t2,t4
9d00a24c:	11a60010 	beq	t5,a2,9d00a290 <e1>
9d00a250:	00000000 	nop
9d00a254:	1000000e 	b	9d00a290 <e1>
9d00a258:	354a0002 	ori	t2,t2,0x2

9d00a25c <i1>:
9d00a25c:	000b4825 	or	t1,zero,t3
9d00a260:	000c6023 	negu	t4,t4
9d00a264:	29810020 	slti	at,t4,32
9d00a268:	14200003 	bnez	at,9d00a278 <i4>
9d00a26c:	00000000 	nop
9d00a270:	10000007 	b	9d00a290 <e1>
9d00a274:	24080002 	li	t0,2

9d00a278 <i4>:
9d00a278:	00083025 	or	a2,zero,t0
9d00a27c:	01884006 	srlv	t0,t0,t4
9d00a280:	01886804 	sllv	t5,t0,t4
9d00a284:	11a60002 	beq	t5,a2,9d00a290 <e1>
9d00a288:	00000000 	nop
9d00a28c:	35080002 	ori	t0,t0,0x2

9d00a290 <e1>:
9d00a290:	00876024 	and	t4,a0,a3
9d00a294:	01856826 	xor	t5,t4,a1
9d00a298:	05a00010 	bltz	t5,9d00a2dc <Bsub1>
9d00a29c:	00000000 	nop
9d00a2a0:	010a4021 	addu	t0,t0,t2
9d00a2a4:	010a682b 	sltu	t5,t0,t2
9d00a2a8:	11a00017 	beqz	t5,9d00a308 <Bres>
9d00a2ac:	00000000 	nop
9d00a2b0:	310d0001 	andi	t5,t0,0x1
9d00a2b4:	11a00002 	beqz	t5,9d00a2c0 <i7>
9d00a2b8:	00000000 	nop
9d00a2bc:	35080002 	ori	t0,t0,0x2

9d00a2c0 <i7>:
9d00a2c0:	00084042 	srl	t0,t0,0x1
9d00a2c4:	25290001 	addiu	t1,t1,1
9d00a2c8:	240100ff 	li	at,255
9d00a2cc:	1521000e 	bne	t1,at,9d00a308 <Bres>
9d00a2d0:	00000000 	nop
9d00a2d4:	1000000c 	b	9d00a308 <Bres>
9d00a2d8:	24080000 	li	t0,0

9d00a2dc <Bsub1>:
9d00a2dc:	010a682b 	sltu	t5,t0,t2
9d00a2e0:	11a00004 	beqz	t5,9d00a2f4 <i9>
9d00a2e4:	010a4023 	subu	t0,t0,t2
9d00a2e8:	00084023 	negu	t0,t0
9d00a2ec:	10000003 	b	9d00a2fc <e9>
9d00a2f0:	01876026 	xor	t4,t4,a3

9d00a2f4 <i9>:
9d00a2f4:	11000050 	beqz	t0,9d00a438 <Bzer>
9d00a2f8:	00000000 	nop

9d00a2fc <e9>:
9d00a2fc:	71063020 	clz	a2,t0
9d00a300:	01264823 	subu	t1,t1,a2
9d00a304:	00c84004 	sllv	t0,t0,a2

9d00a308 <Bres>:
9d00a308:	1920000e 	blez	t1,9d00a344 <Bund>
9d00a30c:	00000000 	nop

9d00a310 <Blab12>:
9d00a310:	25080080 	addiu	t0,t0,128
9d00a314:	2d0d0080 	sltiu	t5,t0,128
9d00a318:	012d4821 	addu	t1,t1,t5
9d00a31c:	00086a02 	srl	t5,t0,0x8
9d00a320:	31ad0001 	andi	t5,t5,0x1
9d00a324:	010d4023 	subu	t0,t0,t5
9d00a328:	00084040 	sll	t0,t0,0x1
9d00a32c:	00084242 	srl	t0,t0,0x9
9d00a330:	00096dc0 	sll	t5,t1,0x17
9d00a334:	010d4025 	or	t0,t0,t5
9d00a338:	010c1025 	or	v0,t0,t4

9d00a33c <B999>:
9d00a33c:	03e00008 	jr	ra
9d00a340:	00000000 	nop

9d00a344 <Bund>:
9d00a344:	24060001 	li	a2,1
9d00a348:	00c93023 	subu	a2,a2,t1
9d00a34c:	2cc10020 	sltiu	at,a2,32
9d00a350:	10200039 	beqz	at,9d00a438 <Bzer>
9d00a354:	00000000 	nop
9d00a358:	3c018000 	lui	at,0x8000
9d00a35c:	01014025 	or	t0,t0,at
9d00a360:	240d0020 	li	t5,32
9d00a364:	01a66823 	subu	t5,t5,a2
9d00a368:	01a84804 	sllv	t1,t0,t5
9d00a36c:	11200002 	beqz	t1,9d00a378 <i10>
9d00a370:	00c84006 	srlv	t0,t0,a2
9d00a374:	35080001 	ori	t0,t0,0x1

9d00a378 <i10>:
9d00a378:	24090000 	li	t1,0
9d00a37c:	250d0080 	addiu	t5,t0,128
9d00a380:	05a1ffe3 	bgez	t5,9d00a310 <Blab12>
9d00a384:	00000000 	nop
9d00a388:	1000ffe1 	b	9d00a310 <Blab12>
9d00a38c:	24090001 	li	t1,1

9d00a390 <BspecA>:
9d00a390:	1520000e 	bnez	t1,9d00a3cc <i12>
9d00a394:	00000000 	nop
9d00a398:	01084021 	addu	t0,t0,t0
9d00a39c:	11000005 	beqz	t0,9d00a3b4 <i13>
9d00a3a0:	00000000 	nop
9d00a3a4:	710c6020 	clz	t4,t0
9d00a3a8:	012c4823 	subu	t1,t1,t4
9d00a3ac:	1000ff98 	b	9d00a210 <Blab1>
9d00a3b0:	01884004 	sllv	t0,t0,t4

9d00a3b4 <i13>:
9d00a3b4:	240100ff 	li	at,255
9d00a3b8:	1161000f 	beq	t3,at,9d00a3f8 <BspecB>
9d00a3bc:	00000000 	nop
9d00a3c0:	3c018000 	lui	at,0x8000
9d00a3c4:	14a10018 	bne	a1,at,9d00a428 <BretB>
9d00a3c8:	00000000 	nop

9d00a3cc <i12>:
9d00a3cc:	01086821 	addu	t5,t0,t0
9d00a3d0:	15a0001b 	bnez	t5,9d00a440 <Bnan>
9d00a3d4:	00000000 	nop
9d00a3d8:	240100ff 	li	at,255
9d00a3dc:	15610014 	bne	t3,at,9d00a430 <BretA>
9d00a3e0:	00000000 	nop
9d00a3e4:	00856826 	xor	t5,a0,a1
9d00a3e8:	05a00015 	bltz	t5,9d00a440 <Bnan>
9d00a3ec:	00000000 	nop
9d00a3f0:	1000000d 	b	9d00a428 <BretB>
9d00a3f4:	00000000 	nop

9d00a3f8 <BspecB>:
9d00a3f8:	15600008 	bnez	t3,9d00a41c <i15>
9d00a3fc:	00000000 	nop
9d00a400:	014a5021 	addu	t2,t2,t2
9d00a404:	1140000a 	beqz	t2,9d00a430 <BretA>
9d00a408:	00000000 	nop
9d00a40c:	714c6020 	clz	t4,t2
9d00a410:	016c5823 	subu	t3,t3,t4
9d00a414:	1000ff82 	b	9d00a220 <Blab2>
9d00a418:	018a5004 	sllv	t2,t2,t4

9d00a41c <i15>:
9d00a41c:	014a6821 	addu	t5,t2,t2
9d00a420:	15a00007 	bnez	t5,9d00a440 <Bnan>
9d00a424:	00000000 	nop

9d00a428 <BretB>:
9d00a428:	1000ffc4 	b	9d00a33c <B999>
9d00a42c:	00051025 	or	v0,zero,a1

9d00a430 <BretA>:
9d00a430:	1000ffc2 	b	9d00a33c <B999>
9d00a434:	00041025 	or	v0,zero,a0

9d00a438 <Bzer>:
9d00a438:	1000ffc0 	b	9d00a33c <B999>
9d00a43c:	24020000 	li	v0,0

9d00a440 <Bnan>:
9d00a440:	1000ffbe 	b	9d00a33c <B999>
9d00a444:	3c02ffc0 	lui	v0,0xffc0
9d00a448:	00000000 	nop

Disassembly of section .text.libm:

9d00a44c <__mchp_atan2f>:
9d00a44c:	27bdffc8 	addiu	sp,sp,-56
9d00a450:	afbf0000 	sw	ra,0(sp)
9d00a454:	00043dc2 	srl	a3,a0,0x17
9d00a458:	30e700ff 	andi	a3,a3,0xff
9d00a45c:	3c0c8000 	lui	t4,0x8000
9d00a460:	00043200 	sll	a2,a0,0x8
9d00a464:	00cc3025 	or	a2,a2,t4
9d00a468:	008c4024 	and	t0,a0,t4
9d00a46c:	000555c2 	srl	t2,a1,0x17
9d00a470:	314a00ff 	andi	t2,t2,0xff
9d00a474:	00054a00 	sll	t1,a1,0x8
9d00a478:	012c4825 	or	t1,t1,t4
9d00a47c:	24efffff 	addiu	t7,a3,-1
9d00a480:	2de100fe 	sltiu	at,t7,254
9d00a484:	1020005a 	beqz	at,9d00a5f0 <CspecA>
9d00a488:	00000000 	nop

9d00a48c <Clab1>:
9d00a48c:	254fffff 	addiu	t7,t2,-1
9d00a490:	2de100fe 	sltiu	at,t7,254
9d00a494:	10200064 	beqz	at,9d00a628 <CspecB>
9d00a498:	00000000 	nop

9d00a49c <Clab2>:
9d00a49c:	24e7007f 	addiu	a3,a3,127
9d00a4a0:	00ea3823 	subu	a3,a3,t2
9d00a4a4:	00063042 	srl	a2,a2,0x1
9d00a4a8:	00095402 	srl	t2,t1,0x10
9d00a4ac:	014001f4 	teq	t2,zero,0x7
9d00a4b0:	00ca001b 	divu	zero,a2,t2
9d00a4b4:	00006012 	mflo	t4
9d00a4b8:	00003010 	mfhi	a2
9d00a4bc:	312dffff 	andi	t5,t1,0xffff
9d00a4c0:	01ac0019 	multu	t5,t4
9d00a4c4:	00007012 	mflo	t6
9d00a4c8:	00063400 	sll	a2,a2,0x10
9d00a4cc:	00ce782b 	sltu	t7,a2,t6
9d00a4d0:	11e00006 	beqz	t7,9d00a4ec <i20>
9d00a4d4:	00ce3023 	subu	a2,a2,t6

9d00a4d8 <b21>:
9d00a4d8:	258cffff 	addiu	t4,t4,-1
9d00a4dc:	00c93021 	addu	a2,a2,t1
9d00a4e0:	00c9082b 	sltu	at,a2,t1
9d00a4e4:	1020fffc 	beqz	at,9d00a4d8 <b21>
9d00a4e8:	00000000 	nop

9d00a4ec <i20>:
9d00a4ec:	014001f4 	teq	t2,zero,0x7
9d00a4f0:	00ca001b 	divu	zero,a2,t2
9d00a4f4:	00003012 	mflo	a2
9d00a4f8:	000c7c00 	sll	t7,t4,0x10
9d00a4fc:	00cf3021 	addu	a2,a2,t7
9d00a500:	18c00003 	blez	a2,9d00a510 <i22>
9d00a504:	00000000 	nop
9d00a508:	00063040 	sll	a2,a2,0x1
9d00a50c:	24e7ffff 	addiu	a3,a3,-1

9d00a510 <i22>:
9d00a510:	afa40004 	sw	a0,4(sp)
9d00a514:	afa50008 	sw	a1,8(sp)
9d00a518:	afa6000c 	sw	a2,12(sp)
9d00a51c:	afa70010 	sw	a3,16(sp)
9d00a520:	afa80014 	sw	t0,20(sp)
9d00a524:	afac0024 	sw	t4,36(sp)
9d00a528:	afad0028 	sw	t5,40(sp)
9d00a52c:	afae002c 	sw	t6,44(sp)
9d00a530:	00062025 	or	a0,zero,a2
9d00a534:	00072825 	or	a1,zero,a3
9d00a538:	0f4022cd 	jal	9d008b34 <.LFE23>
9d00a53c:	00083025 	or	a2,zero,t0
9d00a540:	00185825 	or	t3,zero,t8
9d00a544:	00035025 	or	t2,zero,v1
9d00a548:	00024825 	or	t1,zero,v0
9d00a54c:	8fae002c 	lw	t6,44(sp)
9d00a550:	8fad0028 	lw	t5,40(sp)
9d00a554:	8fac0024 	lw	t4,36(sp)
9d00a558:	8fa80014 	lw	t0,20(sp)
9d00a55c:	8fa70010 	lw	a3,16(sp)
9d00a560:	8fa6000c 	lw	a2,12(sp)
9d00a564:	8fa50008 	lw	a1,8(sp)
9d00a568:	04a1000f 	bgez	a1,9d00a5a8 <i23>
9d00a56c:	8fa40004 	lw	a0,4(sp)
9d00a570:	240c0080 	li	t4,128
9d00a574:	018a6023 	subu	t4,t4,t2
9d00a578:	240a0080 	li	t2,128
9d00a57c:	2d810020 	sltiu	at,t4,32
9d00a580:	14200002 	bnez	at,9d00a58c <L5>
9d00a584:	00000000 	nop
9d00a588:	34090000 	li	t1,0x0

9d00a58c <L5>:
9d00a58c:	01894806 	srlv	t1,t1,t4
9d00a590:	3c0fc90f 	lui	t7,0xc90f
9d00a594:	35efdaa2 	ori	t7,t7,0xdaa2
9d00a598:	01e94823 	subu	t1,t7,t1
9d00a59c:	712c6020 	clz	t4,t1
9d00a5a0:	014c5023 	subu	t2,t2,t4
9d00a5a4:	01894804 	sllv	t1,t1,t4

9d00a5a8 <i23>:
9d00a5a8:	1d400009 	bgtz	t2,9d00a5d0 <i24>
9d00a5ac:	00000000 	nop
9d00a5b0:	240c0001 	li	t4,1
9d00a5b4:	018a6023 	subu	t4,t4,t2
9d00a5b8:	2d810020 	sltiu	at,t4,32
9d00a5bc:	14200002 	bnez	at,9d00a5c8 <L6>
9d00a5c0:	00000000 	nop
9d00a5c4:	34090000 	li	t1,0x0

9d00a5c8 <L6>:
9d00a5c8:	01894806 	srlv	t1,t1,t4
9d00a5cc:	240a0000 	li	t2,0

9d00a5d0 <i24>:
9d00a5d0:	00093040 	sll	a2,t1,0x1
9d00a5d4:	00063242 	srl	a2,a2,0x9
9d00a5d8:	000a7dc0 	sll	t7,t2,0x17
9d00a5dc:	00cf3025 	or	a2,a2,t7

9d00a5e0 <Cret>:
9d00a5e0:	00c81025 	or	v0,a2,t0

9d00a5e4 <C999>:
9d00a5e4:	8fbf0000 	lw	ra,0(sp)
9d00a5e8:	03e00008 	jr	ra
9d00a5ec:	27bd0038 	addiu	sp,sp,56

9d00a5f0 <CspecA>:
9d00a5f0:	10e00006 	beqz	a3,9d00a60c <i25>
9d00a5f4:	00000000 	nop
9d00a5f8:	00c67821 	addu	t7,a2,a2
9d00a5fc:	15e00022 	bnez	t7,9d00a688 <Cnan>
9d00a600:	00000000 	nop
9d00a604:	1000ffa1 	b	9d00a48c <Clab1>
9d00a608:	24070100 	li	a3,256

9d00a60c <i25>:
9d00a60c:	00c63021 	addu	a2,a2,a2
9d00a610:	10c0ff9e 	beqz	a2,9d00a48c <Clab1>
9d00a614:	00000000 	nop
9d00a618:	70cc6020 	clz	t4,a2
9d00a61c:	00ec3823 	subu	a3,a3,t4
9d00a620:	1000ff9a 	b	9d00a48c <Clab1>
9d00a624:	01863004 	sllv	a2,a2,t4

9d00a628 <CspecB>:
9d00a628:	11400009 	beqz	t2,9d00a650 <i27>
9d00a62c:	00000000 	nop
9d00a630:	01297821 	addu	t7,t1,t1
9d00a634:	15e00014 	bnez	t7,9d00a688 <Cnan>
9d00a638:	00000000 	nop
9d00a63c:	240a0100 	li	t2,256
9d00a640:	10ea0011 	beq	a3,t2,9d00a688 <Cnan>
9d00a644:	00000000 	nop
9d00a648:	1000ff94 	b	9d00a49c <Clab2>
9d00a64c:	00000000 	nop

9d00a650 <i27>:
9d00a650:	01294821 	addu	t1,t1,t1
9d00a654:	15200006 	bnez	t1,9d00a670 <i28>
9d00a658:	00000000 	nop
9d00a65c:	10c0000a 	beqz	a2,9d00a688 <Cnan>
9d00a660:	00000000 	nop
9d00a664:	3c023fc9 	lui	v0,0x3fc9
9d00a668:	1000ffde 	b	9d00a5e4 <C999>
9d00a66c:	34420fda 	ori	v0,v0,0xfda

9d00a670 <i28>:
9d00a670:	1120ff8a 	beqz	t1,9d00a49c <Clab2>
9d00a674:	00000000 	nop
9d00a678:	712c6020 	clz	t4,t1
9d00a67c:	014c5023 	subu	t2,t2,t4
9d00a680:	1000ff86 	b	9d00a49c <Clab2>
9d00a684:	01894804 	sllv	t1,t1,t4

9d00a688 <Cnan>:
9d00a688:	1000ffd6 	b	9d00a5e4 <C999>
9d00a68c:	3c02ffc0 	lui	v0,0xffc0
9d00a690:	00000000 	nop

Disassembly of section .text.fp32div:

9d00a694 <__divsf3>:
9d00a694:	3c0b8000 000445c2 310800ff 000555c2     ...<.E.....1.U..
9d00a6a4:	314a00ff 00043a00 00eb3825 00054a00     ..J1.:..%8...J..
9d00a6b4:	012b4825 00857026 016e5824 250effff     %H+.&p..$Xn....%
9d00a6c4:	2dc100fe 1020003f 00000000              ...-?. .....

9d00a6d0 <Dlab1>:
9d00a6d0:	254effff 	addiu	t6,t2,-1
9d00a6d4:	2dc100fe 	sltiu	at,t6,254
9d00a6d8:	10200053 	beqz	at,9d00a828 <DspecB>
9d00a6dc:	00000000 	nop

9d00a6e0 <Dlab2>:
9d00a6e0:	00e9082b 	sltu	at,a3,t1
9d00a6e4:	14200003 	bnez	at,9d00a6f4 <i27>
9d00a6e8:	00000000 	nop
9d00a6ec:	00073842 	srl	a3,a3,0x1
9d00a6f0:	25080001 	addiu	t0,t0,1

9d00a6f4 <i27>:
9d00a6f4:	00096382 	srl	t4,t1,0xe
9d00a6f8:	018001f4 	teq	t4,zero,0x7
9d00a6fc:	00ec001b 	divu	zero,a3,t4
9d00a700:	00002012 	mflo	a0
9d00a704:	00003010 	mfhi	a2
9d00a708:	312d3fff 	andi	t5,t1,0x3fff
9d00a70c:	01a40019 	multu	t5,a0
9d00a710:	00002812 	mflo	a1
9d00a714:	00063380 	sll	a2,a2,0xe
9d00a718:	00c5702b 	sltu	t6,a2,a1
9d00a71c:	11c00004 	beqz	t6,9d00a730 <i28>
9d00a720:	00c53023 	subu	a2,a2,a1
9d00a724:	2484ffff 	addiu	a0,a0,-1
9d00a728:	00c93021 	addu	a2,a2,t1
9d00a72c:	00c9702b 	sltu	t6,a2,t1

9d00a730 <i28>:
9d00a730:	018001f4 	teq	t4,zero,0x7
9d00a734:	00cc001b 	divu	zero,a2,t4
9d00a738:	00003812 	mflo	a3
9d00a73c:	00003010 	mfhi	a2
9d00a740:	01a70019 	multu	t5,a3
9d00a744:	00002812 	mflo	a1
9d00a748:	00063380 	sll	a2,a2,0xe
9d00a74c:	00c5702b 	sltu	t6,a2,a1
9d00a750:	11c00004 	beqz	t6,9d00a764 <i29>
9d00a754:	00c53023 	subu	a2,a2,a1
9d00a758:	24e7ffff 	addiu	a3,a3,-1
9d00a75c:	00c93021 	addu	a2,a2,t1
9d00a760:	00c9702b 	sltu	t6,a2,t1

9d00a764 <i29>:
9d00a764:	00047380 	sll	t6,a0,0xe
9d00a768:	00ee3821 	addu	a3,a3,t6
9d00a76c:	10c00002 	beqz	a2,9d00a778 <i30>
9d00a770:	00073900 	sll	a3,a3,0x4
9d00a774:	34e70001 	ori	a3,a3,0x1

9d00a778 <i30>:
9d00a778:	240e007e 	li	t6,126
9d00a77c:	01ca7023 	subu	t6,t6,t2
9d00a780:	010e4021 	addu	t0,t0,t6
9d00a784:	250effff 	addiu	t6,t0,-1
9d00a788:	2dc100fe 	sltiu	at,t6,254
9d00a78c:	10200034 	beqz	at,9d00a860 <Doveund>
9d00a790:	00000000 	nop

9d00a794 <Dlab8>:
9d00a794:	24e70080 	addiu	a3,a3,128
9d00a798:	2cee0080 	sltiu	t6,a3,128
9d00a79c:	010e4021 	addu	t0,t0,t6
9d00a7a0:	00077202 	srl	t6,a3,0x8
9d00a7a4:	31ce0001 	andi	t6,t6,0x1
9d00a7a8:	00ee3823 	subu	a3,a3,t6
9d00a7ac:	00073840 	sll	a3,a3,0x1
9d00a7b0:	00073a42 	srl	a3,a3,0x9
9d00a7b4:	000875c0 	sll	t6,t0,0x17
9d00a7b8:	00ee3825 	or	a3,a3,t6
9d00a7bc:	00eb1025 	or	v0,a3,t3

9d00a7c0 <D999>:
9d00a7c0:	03e00008 	jr	ra
9d00a7c4:	00000000 	nop

9d00a7c8 <DspecA>:
9d00a7c8:	15000008 	bnez	t0,9d00a7ec <i31>
9d00a7cc:	00000000 	nop
9d00a7d0:	00e73821 	addu	a3,a3,a3
9d00a7d4:	10e00005 	beqz	a3,9d00a7ec <i31>
9d00a7d8:	00000000 	nop
9d00a7dc:	70ec6020 	clz	t4,a3
9d00a7e0:	010c4023 	subu	t0,t0,t4
9d00a7e4:	1000ffba 	b	9d00a6d0 <Dlab1>
9d00a7e8:	01873804 	sllv	a3,a3,t4

9d00a7ec <i31>:
9d00a7ec:	15480004 	bne	t2,t0,9d00a800 <i33>
9d00a7f0:	00000000 	nop
9d00a7f4:	01297021 	addu	t6,t1,t1
9d00a7f8:	11c0002f 	beqz	t6,9d00a8b8 <Dnan>
9d00a7fc:	00000000 	nop

9d00a800 <i33>:
9d00a800:	240100ff 	li	at,255
9d00a804:	11410008 	beq	t2,at,9d00a828 <DspecB>
9d00a808:	00000000 	nop
9d00a80c:	11000012 	beqz	t0,9d00a858 <Dzer>
9d00a810:	00000000 	nop
9d00a814:	00e77021 	addu	t6,a3,a3
9d00a818:	15c00027 	bnez	t6,9d00a8b8 <Dnan>
9d00a81c:	00000000 	nop
9d00a820:	10000022 	b	9d00a8ac <Dinf>
9d00a824:	00000000 	nop

9d00a828 <DspecB>:
9d00a828:	15400008 	bnez	t2,9d00a84c <i34>
9d00a82c:	00000000 	nop
9d00a830:	01294821 	addu	t1,t1,t1
9d00a834:	1120001d 	beqz	t1,9d00a8ac <Dinf>
9d00a838:	00000000 	nop
9d00a83c:	712c6020 	clz	t4,t1
9d00a840:	014c5023 	subu	t2,t2,t4
9d00a844:	1000ffa6 	b	9d00a6e0 <Dlab2>
9d00a848:	01894804 	sllv	t1,t1,t4

9d00a84c <i34>:
9d00a84c:	01297021 	addu	t6,t1,t1
9d00a850:	15c00019 	bnez	t6,9d00a8b8 <Dnan>
9d00a854:	00000000 	nop

9d00a858 <Dzer>:
9d00a858:	1000ffd9 	b	9d00a7c0 <D999>
9d00a85c:	000b1025 	or	v0,zero,t3

9d00a860 <Doveund>:
9d00a860:	1d000012 	bgtz	t0,9d00a8ac <Dinf>
9d00a864:	00000000 	nop
9d00a868:	240c0001 	li	t4,1
9d00a86c:	01886023 	subu	t4,t4,t0
9d00a870:	2d810020 	sltiu	at,t4,32
9d00a874:	1020fff8 	beqz	at,9d00a858 <Dzer>
9d00a878:	00000000 	nop
9d00a87c:	240e0020 	li	t6,32
9d00a880:	01cc7023 	subu	t6,t6,t4
9d00a884:	01c74004 	sllv	t0,a3,t6
9d00a888:	11000002 	beqz	t0,9d00a894 <i37>
9d00a88c:	01873806 	srlv	a3,a3,t4
9d00a890:	34e70002 	ori	a3,a3,0x2

9d00a894 <i37>:
9d00a894:	24080000 	li	t0,0
9d00a898:	24ee0080 	addiu	t6,a3,128
9d00a89c:	05c1ffbd 	bgez	t6,9d00a794 <Dlab8>
9d00a8a0:	00000000 	nop
9d00a8a4:	1000ffbb 	b	9d00a794 <Dlab8>
9d00a8a8:	24080001 	li	t0,1

9d00a8ac <Dinf>:
9d00a8ac:	3c017f80 	lui	at,0x7f80
9d00a8b0:	1000ffc3 	b	9d00a7c0 <D999>
9d00a8b4:	01611025 	or	v0,t3,at

9d00a8b8 <Dnan>:
9d00a8b8:	1000ffc1 	b	9d00a7c0 <D999>
9d00a8bc:	3c02ffc0 	lui	v0,0xffc0
9d00a8c0:	00000000 	nop

Disassembly of section .text:

9d00a8c4 <NU32_Startup>:

// Perform startup routines:
//  Make NU32_LED1 and NU32_LED2 pins outputs (NU32_USER is by default an input)
//  Initialize the serial port - UART3 (no interrupt) 
//  Enable interrupts
void NU32_Startup() {
9d00a8c4:	27bdfff8 	addiu	sp,sp,-8
9d00a8c8:	afbf0004 	sw	ra,4(sp)
  // disable interrupts
  __builtin_disable_interrupts();
9d00a8cc:	41626000 	di	v0
9d00a8d0:	000000c0 	ehb
  // see Chapter 2 "CPU for Devices with M4K Core" of the PIC32 reference manual
  // most of the other bits have prescribed values
  // microchip does not provide a _CP0_SET_CONFIG macro, so we directly use
  // the compiler built-in command _mtc0
  // to disable cache, use 0xa4210582 
  __builtin_mtc0(_CP0_CONFIG, _CP0_CONFIG_SELECT, 0xa4210583); 
9d00a8d4:	3c02a421 	lui	v0,0xa421
9d00a8d8:	24420583 	addiu	v0,v0,1411
9d00a8dc:	40828000 	mtc0	v0,c0_config
9d00a8e0:	000000c0 	ehb
  
  // set the prefectch cache wait state to 2, as per the
  // electrical characteristics data sheet
  CHECONbits.PFMWS = 0x2;   
9d00a8e4:	3c02bf88 	lui	v0,0xbf88
9d00a8e8:	8c434000 	lw	v1,16384(v0)
9d00a8ec:	24050002 	li	a1,2
9d00a8f0:	7ca31004 	ins	v1,a1,0x0,0x3
9d00a8f4:	ac434000 	sw	v1,16384(v0)

  //enable prefetch for cacheable and noncacheable memory
  CHECONbits.PREFEN = 0x3; 
9d00a8f8:	8c434000 	lw	v1,16384(v0)
9d00a8fc:	24040003 	li	a0,3
9d00a900:	7c832904 	ins	v1,a0,0x4,0x2
9d00a904:	ac434000 	sw	v1,16384(v0)

  // 0 data RAM access wait states
  BMXCONbits.BMXWSDRM = 0x0;
9d00a908:	3c02bf88 	lui	v0,0xbf88
9d00a90c:	8c432000 	lw	v1,8192(v0)
9d00a910:	7c033184 	ins	v1,zero,0x6,0x1
9d00a914:	ac432000 	sw	v1,8192(v0)
  
  // enable multi vector interrupts
  INTCONbits.MVEC = 0x1;
9d00a918:	3c02bf88 	lui	v0,0xbf88
9d00a91c:	8c461000 	lw	a2,4096(v0)
9d00a920:	24030001 	li	v1,1
9d00a924:	7c666304 	ins	a2,v1,0xc,0x1
9d00a928:	ac461000 	sw	a2,4096(v0)

  // disable JTAG to get B10, B11, B12 and B13 back
  DDPCONbits.JTAGEN = 0;
9d00a92c:	3c02bf81 	lui	v0,0xbf81
9d00a930:	9046f200 	lbu	a2,-3584(v0)
9d00a934:	7c0618c4 	ins	a2,zero,0x3,0x1
9d00a938:	a046f200 	sb	a2,-3584(v0)

  TRISFCLR = 0x0003;  // Make F0 and F1 outputs (LED1 and LED2)
9d00a93c:	3c02bf88 	lui	v0,0xbf88
9d00a940:	ac446144 	sw	a0,24900(v0)
  NU32_LED1 = 1;      // LED1 is off
9d00a944:	3c02bf88 	lui	v0,0xbf88
9d00a948:	90446160 	lbu	a0,24928(v0)
9d00a94c:	7c640004 	ins	a0,v1,0x0,0x1
9d00a950:	a0446160 	sb	a0,24928(v0)
  NU32_LED2 = 0;      // LED2 is on
9d00a954:	90446160 	lbu	a0,24928(v0)
9d00a958:	7c040844 	ins	a0,zero,0x1,0x1
9d00a95c:	a0446160 	sb	a0,24928(v0)

  // turn on UART3 without an interrupt
  U3MODEbits.BRGH = 0; // set baud to NU32_DESIRED_BAUD
9d00a960:	3c02bf80 	lui	v0,0xbf80
9d00a964:	94446400 	lhu	a0,25600(v0)
9d00a968:	7c0418c4 	ins	a0,zero,0x3,0x1
9d00a96c:	a4446400 	sh	a0,25600(v0)
  U3BRG = ((NU32_SYS_FREQ / NU32_DESIRED_BAUD) / 16) - 1;
9d00a970:	24060014 	li	a2,20
9d00a974:	3c04bf80 	lui	a0,0xbf80
9d00a978:	ac866440 	sw	a2,25664(a0)

  // 8 bit, no parity bit, and 1 stop bit (8N1 setup)
  U3MODEbits.PDSEL = 0;
9d00a97c:	94446400 	lhu	a0,25600(v0)
9d00a980:	7c041044 	ins	a0,zero,0x1,0x2
9d00a984:	a4446400 	sh	a0,25600(v0)
  U3MODEbits.STSEL = 0;
9d00a988:	94446400 	lhu	a0,25600(v0)
9d00a98c:	7c040004 	ins	a0,zero,0x0,0x1
9d00a990:	a4446400 	sh	a0,25600(v0)

  // configure TX & RX pins as output & input pins
  U3STAbits.UTXEN = 1;
9d00a994:	3c04bf80 	lui	a0,0xbf80
9d00a998:	8c866410 	lw	a2,25616(a0)
9d00a99c:	7c665284 	ins	a2,v1,0xa,0x1
9d00a9a0:	ac866410 	sw	a2,25616(a0)
  U3STAbits.URXEN = 1;
9d00a9a4:	8c866410 	lw	a2,25616(a0)
9d00a9a8:	7c666304 	ins	a2,v1,0xc,0x1
9d00a9ac:	ac866410 	sw	a2,25616(a0)
  // configure hardware flow control using RTS and CTS
  U3MODEbits.UEN = 2;
9d00a9b0:	94446400 	lhu	a0,25600(v0)
9d00a9b4:	7ca44a04 	ins	a0,a1,0x8,0x2
9d00a9b8:	a4446400 	sh	a0,25600(v0)

  // enable the uart
  U3MODEbits.ON = 1;
9d00a9bc:	94446400 	lhu	a0,25600(v0)
9d00a9c0:	7c647bc4 	ins	a0,v1,0xf,0x1
9d00a9c4:	a4446400 	sh	a0,25600(v0)

  __builtin_enable_interrupts();
9d00a9c8:	41626020 	ei	v0
}
9d00a9cc:	8fbf0004 	lw	ra,4(sp)
9d00a9d0:	03e00008 	jr	ra
9d00a9d4:	27bd0008 	addiu	sp,sp,8

9d00a9d8 <NU32_ReadUART3>:
// Read from UART3
// block other functions until you get a '\r' or '\n'
// send the pointer to your char array and the number of elements in the array
void NU32_ReadUART3(char * message, int maxLength) {
  char data = 0;
  int complete = 0, num_bytes = 0;
9d00a9d8:	00003021 	move	a2,zero
  // loop until you get a '\r' or '\n'
  while (!complete) {
    if (U3STAbits.URXDA) { // if data is available
9d00a9dc:	3c03bf80 	lui	v1,0xbf80
      data = U3RXREG;      // read the data
9d00a9e0:	3c08bf80 	lui	t0,0xbf80
      if ((data == '\n') || (data == '\r')) {
9d00a9e4:	2407000a 	li	a3,10
9d00a9e8:	0b402a8a 	j	9d00aa28 <NU32_ReadUART3+0x50>
9d00a9ec:	2409000d 	li	t1,13
void NU32_ReadUART3(char * message, int maxLength) {
  char data = 0;
  int complete = 0, num_bytes = 0;
  // loop until you get a '\r' or '\n'
  while (!complete) {
    if (U3STAbits.URXDA) { // if data is available
9d00a9f0:	8c626410 	lw	v0,25616(v1)
9d00a9f4:	30420001 	andi	v0,v0,0x1
9d00a9f8:	1040fffd 	beqz	v0,9d00a9f0 <NU32_ReadUART3+0x18>
9d00a9fc:	00000000 	nop
      data = U3RXREG;      // read the data
9d00aa00:	8d026430 	lw	v0,25648(t0)
9d00aa04:	7c021420 	seb	v0,v0
      if ((data == '\n') || (data == '\r')) {
9d00aa08:	5047000e 	beql	v0,a3,9d00aa44 <NU32_ReadUART3+0x6c>
9d00aa0c:	00862021 	addu	a0,a0,a2
9d00aa10:	1049000b 	beq	v0,t1,9d00aa40 <NU32_ReadUART3+0x68>
9d00aa14:	00865021 	addu	t2,a0,a2
        complete = 1;
      } else {
        message[num_bytes] = data;
9d00aa18:	a1420000 	sb	v0,0(t2)
        ++num_bytes;
9d00aa1c:	24c60001 	addiu	a2,a2,1
        // roll over if the array is too small
        if (num_bytes >= maxLength) {
9d00aa20:	00c5102a 	slt	v0,a2,a1
          num_bytes = 0;
9d00aa24:	0002300a 	movz	a2,zero,v0
void NU32_ReadUART3(char * message, int maxLength) {
  char data = 0;
  int complete = 0, num_bytes = 0;
  // loop until you get a '\r' or '\n'
  while (!complete) {
    if (U3STAbits.URXDA) { // if data is available
9d00aa28:	8c626410 	lw	v0,25616(v1)
9d00aa2c:	30420001 	andi	v0,v0,0x1
9d00aa30:	1040ffef 	beqz	v0,9d00a9f0 <NU32_ReadUART3+0x18>
9d00aa34:	00000000 	nop
9d00aa38:	0b402a80 	j	9d00aa00 <NU32_ReadUART3+0x28>
9d00aa3c:	00000000 	nop
        }
      }
    }
  }
  // end the string
  message[num_bytes] = '\0';
9d00aa40:	00862021 	addu	a0,a0,a2
9d00aa44:	03e00008 	jr	ra
9d00aa48:	a0800000 	sb	zero,0(a0)

9d00aa4c <NU32_WriteUART3>:
}

// Write a character array using UART3
void NU32_WriteUART3(const char * string) {
  while (*string != '\0') {
9d00aa4c:	80850000 	lb	a1,0(a0)
9d00aa50:	10a0000b 	beqz	a1,9d00aa80 <NU32_WriteUART3+0x34>
9d00aa54:	3c03bf80 	lui	v1,0xbf80
    while (U3STAbits.UTXBF) {
      ; // wait until tx buffer isn't full
    }
    U3TXREG = *string;
9d00aa58:	3c06bf80 	lui	a2,0xbf80
}

// Write a character array using UART3
void NU32_WriteUART3(const char * string) {
  while (*string != '\0') {
    while (U3STAbits.UTXBF) {
9d00aa5c:	8c626410 	lw	v0,25616(v1)
9d00aa60:	30420200 	andi	v0,v0,0x200
9d00aa64:	1440fffd 	bnez	v0,9d00aa5c <NU32_WriteUART3+0x10>
9d00aa68:	00000000 	nop
      ; // wait until tx buffer isn't full
    }
    U3TXREG = *string;
9d00aa6c:	acc56420 	sw	a1,25632(a2)
    ++string;
9d00aa70:	24840001 	addiu	a0,a0,1
  message[num_bytes] = '\0';
}

// Write a character array using UART3
void NU32_WriteUART3(const char * string) {
  while (*string != '\0') {
9d00aa74:	80850000 	lb	a1,0(a0)
9d00aa78:	14a0fff8 	bnez	a1,9d00aa5c <NU32_WriteUART3+0x10>
9d00aa7c:	00000000 	nop
9d00aa80:	03e00008 	jr	ra
9d00aa84:	00000000 	nop

Disassembly of section .text.fp32mul:

9d00aa88 <__mulsf3>:
9d00aa88:	00043dc2 30e700ff 00054dc2 312900ff     .=.....0.M....)1
9d00aa98:	3c0a8000 00043200 00ca3025 00054200     ...<.2..%0...B..
9d00aaa8:	010a4025 00856026 014c5024 24ecffff     %@..&`..$PL....$
9d00aab8:	2d8100fe 10200021 00000000              ...-!. .....

9d00aac4 <Clab1>:
9d00aac4:	252cffff 	addiu	t4,t1,-1
9d00aac8:	2d8100fe 	sltiu	at,t4,254
9d00aacc:	10200036 	beqz	at,9d00aba8 <CspecB>
9d00aad0:	00000000 	nop

9d00aad4 <Clab2>:
9d00aad4:	00c80019 	multu	a2,t0
9d00aad8:	00005812 	mflo	t3
9d00aadc:	11600002 	beqz	t3,9d00aae8 <i17>
9d00aae0:	00003010 	mfhi	a2
9d00aae4:	34c60001 	ori	a2,a2,0x1

9d00aae8 <i17>:
9d00aae8:	04c00003 	bltz	a2,9d00aaf8 <i18>
9d00aaec:	00000000 	nop
9d00aaf0:	00063040 	sll	a2,a2,0x1
9d00aaf4:	24e7ffff 	addiu	a3,a3,-1

9d00aaf8 <i18>:
9d00aaf8:	252cff82 	addiu	t4,t1,-126
9d00aafc:	00ec3821 	addu	a3,a3,t4
9d00ab00:	24ecffff 	addiu	t4,a3,-1
9d00ab04:	2d8100fe 	sltiu	at,t4,254
9d00ab08:	1020003a 	beqz	at,9d00abf4 <Coveund>
9d00ab0c:	00000000 	nop

9d00ab10 <Clab8>:
9d00ab10:	24c60080 	addiu	a2,a2,128
9d00ab14:	2ccc0080 	sltiu	t4,a2,128
9d00ab18:	00ec3821 	addu	a3,a3,t4
9d00ab1c:	00066202 	srl	t4,a2,0x8
9d00ab20:	318c0001 	andi	t4,t4,0x1
9d00ab24:	00cc3023 	subu	a2,a2,t4
9d00ab28:	00063040 	sll	a2,a2,0x1
9d00ab2c:	00063242 	srl	a2,a2,0x9
9d00ab30:	000765c0 	sll	t4,a3,0x17
9d00ab34:	00cc3025 	or	a2,a2,t4
9d00ab38:	00ca1025 	or	v0,a2,t2

9d00ab3c <C999>:
9d00ab3c:	03e00008 	jr	ra
9d00ab40:	00000000 	nop

9d00ab44 <CspecA>:
9d00ab44:	14e0000d 	bnez	a3,9d00ab7c <i19>
9d00ab48:	00000000 	nop
9d00ab4c:	00c63021 	addu	a2,a2,a2
9d00ab50:	10c00005 	beqz	a2,9d00ab68 <i20>
9d00ab54:	00000000 	nop
9d00ab58:	70cb5820 	clz	t3,a2
9d00ab5c:	00eb3823 	subu	a3,a3,t3
9d00ab60:	1000ffd8 	b	9d00aac4 <Clab1>
9d00ab64:	01663004 	sllv	a2,a2,t3

9d00ab68 <i20>:
9d00ab68:	240100ff 	li	at,255
9d00ab6c:	1121001f 	beq	t1,at,9d00abec <Cnan>
9d00ab70:	00000000 	nop
9d00ab74:	10000015 	b	9d00abcc <Czer>
9d00ab78:	00000000 	nop

9d00ab7c <i19>:
9d00ab7c:	00c66021 	addu	t4,a2,a2
9d00ab80:	1580001a 	bnez	t4,9d00abec <Cnan>
9d00ab84:	00000000 	nop
9d00ab88:	15200004 	bnez	t1,9d00ab9c <i21>
9d00ab8c:	00000000 	nop
9d00ab90:	01086021 	addu	t4,t0,t0
9d00ab94:	11800015 	beqz	t4,9d00abec <Cnan>
9d00ab98:	00000000 	nop

9d00ab9c <i21>:
9d00ab9c:	240100ff 	li	at,255
9d00aba0:	1521000f 	bne	t1,at,9d00abe0 <Cinf>
9d00aba4:	00000000 	nop

9d00aba8 <CspecB>:
9d00aba8:	1520000a 	bnez	t1,9d00abd4 <i22>
9d00abac:	00000000 	nop
9d00abb0:	01084021 	addu	t0,t0,t0
9d00abb4:	11000005 	beqz	t0,9d00abcc <Czer>
9d00abb8:	00000000 	nop
9d00abbc:	710b5820 	clz	t3,t0
9d00abc0:	012b4823 	subu	t1,t1,t3
9d00abc4:	1000ffc3 	b	9d00aad4 <Clab2>
9d00abc8:	01684004 	sllv	t0,t0,t3

9d00abcc <Czer>:
9d00abcc:	1000ffdb 	b	9d00ab3c <C999>
9d00abd0:	000a1025 	or	v0,zero,t2

9d00abd4 <i22>:
9d00abd4:	01086021 	addu	t4,t0,t0
9d00abd8:	15800004 	bnez	t4,9d00abec <Cnan>
9d00abdc:	00000000 	nop

9d00abe0 <Cinf>:
9d00abe0:	3c017f80 	lui	at,0x7f80
9d00abe4:	1000ffd5 	b	9d00ab3c <C999>
9d00abe8:	01411025 	or	v0,t2,at

9d00abec <Cnan>:
9d00abec:	1000ffd3 	b	9d00ab3c <C999>
9d00abf0:	3c02ffc0 	lui	v0,0xffc0

9d00abf4 <Coveund>:
9d00abf4:	1ce0fffa 	bgtz	a3,9d00abe0 <Cinf>
9d00abf8:	00000000 	nop
9d00abfc:	240b0001 	li	t3,1
9d00ac00:	01675823 	subu	t3,t3,a3
9d00ac04:	2d610020 	sltiu	at,t3,32
9d00ac08:	1020fff0 	beqz	at,9d00abcc <Czer>
9d00ac0c:	00000000 	nop
9d00ac10:	240c0020 	li	t4,32
9d00ac14:	018b6023 	subu	t4,t4,t3
9d00ac18:	01863804 	sllv	a3,a2,t4
9d00ac1c:	10e00002 	beqz	a3,9d00ac28 <i25>
9d00ac20:	01663006 	srlv	a2,a2,t3
9d00ac24:	34c60002 	ori	a2,a2,0x2

9d00ac28 <i25>:
9d00ac28:	24070000 	li	a3,0
9d00ac2c:	24cc0080 	addiu	t4,a2,128
9d00ac30:	0581ffb7 	bgez	t4,9d00ab10 <Clab8>
9d00ac34:	00000000 	nop
9d00ac38:	1000ffb5 	b	9d00ab10 <Clab8>
9d00ac3c:	24070001 	li	a3,1
9d00ac40:	00000000 	nop

Disassembly of section .text.libm:

9d00ac44 <__mchp_sqrtf>:
9d00ac44:	27bdffe0 	addiu	sp,sp,-32
9d00ac48:	afbf0000 	sw	ra,0(sp)
9d00ac4c:	000445c2 	srl	t0,a0,0x17
9d00ac50:	00043a00 	sll	a3,a0,0x8
9d00ac54:	3c018000 	lui	at,0x8000
9d00ac58:	00e13825 	or	a3,a3,at
9d00ac5c:	250dffff 	addiu	t5,t0,-1
9d00ac60:	2da100fe 	sltiu	at,t5,254
9d00ac64:	10200048 	beqz	at,9d00ad88 <Bspec>
9d00ac68:	00000000 	nop

9d00ac6c <Blab1>:
9d00ac6c:	afa40004 	sw	a0,4(sp)
9d00ac70:	afa70010 	sw	a3,16(sp)
9d00ac74:	afa80014 	sw	t0,20(sp)
9d00ac78:	00072025 	or	a0,zero,a3
9d00ac7c:	0f403120 	jal	9d00c480 <fpexsqrt>
9d00ac80:	00082825 	or	a1,zero,t0
9d00ac84:	00186025 	or	t4,zero,t8
9d00ac88:	00035825 	or	t3,zero,v1
9d00ac8c:	00025025 	or	t2,zero,v0
9d00ac90:	8fa80014 	lw	t0,20(sp)
9d00ac94:	8fa70010 	lw	a3,16(sp)
9d00ac98:	8fa40004 	lw	a0,4(sp)
9d00ac9c:	310d0001 	andi	t5,t0,0x1
9d00aca0:	11a00002 	beqz	t5,9d00acac <i3>
9d00aca4:	00000000 	nop
9d00aca8:	00073842 	srl	a3,a3,0x1

9d00acac <i3>:
9d00acac:	014a0019 	multu	t2,t2
9d00acb0:	00003012 	mflo	a2
9d00acb4:	00002810 	mfhi	a1
9d00acb8:	00a72823 	subu	a1,a1,a3
9d00acbc:	00a66825 	or	t5,a1,a2
9d00acc0:	11a00027 	beqz	t5,9d00ad60 <Bret>
9d00acc4:	00000000 	nop
9d00acc8:	04a00012 	bltz	a1,9d00ad14 <Bloo1>
9d00accc:	00000000 	nop

9d00acd0 <Bloo2>:
9d00acd0:	254affff 	addiu	t2,t2,-1
9d00acd4:	2ccd0001 	sltiu	t5,a2,1
9d00acd8:	24c6ffff 	addiu	a2,a2,-1
9d00acdc:	00ad2823 	subu	a1,a1,t5
9d00ace0:	00ca682b 	sltu	t5,a2,t2
9d00ace4:	00ca3023 	subu	a2,a2,t2
9d00ace8:	00ad2823 	subu	a1,a1,t5
9d00acec:	00ca682b 	sltu	t5,a2,t2
9d00acf0:	00ca3023 	subu	a2,a2,t2
9d00acf4:	00ad2823 	subu	a1,a1,t5
9d00acf8:	04a00019 	bltz	a1,9d00ad60 <Bret>
9d00acfc:	00000000 	nop
9d00ad00:	00a66825 	or	t5,a1,a2
9d00ad04:	15a0fff2 	bnez	t5,9d00acd0 <Bloo2>
9d00ad08:	00000000 	nop
9d00ad0c:	10000014 	b	9d00ad60 <Bret>
9d00ad10:	00000000 	nop

9d00ad14 <Bloo1>:
9d00ad14:	254a0001 	addiu	t2,t2,1
9d00ad18:	2d4d0001 	sltiu	t5,t2,1
9d00ad1c:	15a0000f 	bnez	t5,9d00ad5c <Blab3>
9d00ad20:	00000000 	nop
9d00ad24:	00ca3021 	addu	a2,a2,t2
9d00ad28:	00ca682b 	sltu	t5,a2,t2
9d00ad2c:	00ad2821 	addu	a1,a1,t5
9d00ad30:	00ca3021 	addu	a2,a2,t2
9d00ad34:	00ca682b 	sltu	t5,a2,t2
9d00ad38:	00ad2821 	addu	a1,a1,t5
9d00ad3c:	2ccd0001 	sltiu	t5,a2,1
9d00ad40:	24c6ffff 	addiu	a2,a2,-1
9d00ad44:	00ad2823 	subu	a1,a1,t5
9d00ad48:	04a0fff2 	bltz	a1,9d00ad14 <Bloo1>
9d00ad4c:	00000000 	nop
9d00ad50:	00a66825 	or	t5,a1,a2
9d00ad54:	11a00002 	beqz	t5,9d00ad60 <Bret>
9d00ad58:	00000000 	nop

9d00ad5c <Blab3>:
9d00ad5c:	254affff 	addiu	t2,t2,-1

9d00ad60 <Bret>:
9d00ad60:	254a0080 	addiu	t2,t2,128
9d00ad64:	2d4d0080 	sltiu	t5,t2,128
9d00ad68:	016d5821 	addu	t3,t3,t5
9d00ad6c:	000a1040 	sll	v0,t2,0x1
9d00ad70:	00021242 	srl	v0,v0,0x9
9d00ad74:	000b6dc0 	sll	t5,t3,0x17
9d00ad78:	004d1025 	or	v0,v0,t5

9d00ad7c <B999>:
9d00ad7c:	8fbf0000 	lw	ra,0(sp)
9d00ad80:	03e00008 	jr	ra
9d00ad84:	27bd0020 	addiu	sp,sp,32

9d00ad88 <Bspec>:
9d00ad88:	04810006 	bgez	a0,9d00ada4 <i6>
9d00ad8c:	00000000 	nop
9d00ad90:	00046840 	sll	t5,a0,0x1
9d00ad94:	15a00013 	bnez	t5,9d00ade4 <Bnan>
9d00ad98:	00000000 	nop
9d00ad9c:	1000fff7 	b	9d00ad7c <B999>
9d00ada0:	00041025 	or	v0,zero,a0

9d00ada4 <i6>:
9d00ada4:	1500000a 	bnez	t0,9d00add0 <i7>
9d00ada8:	00000000 	nop
9d00adac:	00e73821 	addu	a3,a3,a3
9d00adb0:	10e00005 	beqz	a3,9d00adc8 <i8>
9d00adb4:	00000000 	nop
9d00adb8:	70e52820 	clz	a1,a3
9d00adbc:	01054023 	subu	t0,t0,a1
9d00adc0:	1000ffaa 	b	9d00ac6c <Blab1>
9d00adc4:	00a73804 	sllv	a3,a3,a1

9d00adc8 <i8>:
9d00adc8:	1000ffec 	b	9d00ad7c <B999>
9d00adcc:	24020000 	li	v0,0

9d00add0 <i7>:
9d00add0:	00e76821 	addu	t5,a3,a3
9d00add4:	15a00003 	bnez	t5,9d00ade4 <Bnan>
9d00add8:	00000000 	nop
9d00addc:	1000ffe7 	b	9d00ad7c <B999>
9d00ade0:	00041025 	or	v0,zero,a0

9d00ade4 <Bnan>:
9d00ade4:	1000ffe5 	b	9d00ad7c <B999>
9d00ade8:	3c02ffc0 	lui	v0,0xffc0
9d00adec:	00000000 	nop

Disassembly of section .text.__ldexp:

9d00adf0 <__ldexp>:
9d00adf0:	27bdffe0 	addiu	sp,sp,-32

9d00adf4 <.LCFI0>:
9d00adf4:	afbf001c 	sw	ra,28(sp)
9d00adf8:	afb20018 	sw	s2,24(sp)
9d00adfc:	afb10014 	sw	s1,20(sp)
9d00ae00:	afb00010 	sw	s0,16(sp)
9d00ae04:	7ca75500 	ext	a3,a1,0x14,0xb
9d00ae08:	24e2ffff 	addiu	v0,a3,-1
9d00ae0c:	7ca89800 	ext	t0,a1,0x0,0x14
9d00ae10:	2c4907fe 	sltiu	t1,v0,2046
9d00ae14:	00c08821 	move	s1,a2
9d00ae18:	000587c2 	srl	s0,a1,0x1f
9d00ae1c:	00801021 	move	v0,a0
9d00ae20:	11200041 	beqz	t1,9d00af28 <.LCFI0+0x134>
9d00ae24:	01001821 	move	v1,t0
9d00ae28:	24e7fc01 	addiu	a3,a3,-1023
9d00ae2c:	3c040010 	lui	a0,0x10
9d00ae30:	01041825 	or	v1,t0,a0
9d00ae34:	00f13821 	addu	a3,a3,s1
9d00ae38:	00022f42 	srl	a1,v0,0x1d
9d00ae3c:	000318c0 	sll	v1,v1,0x3
9d00ae40:	24e403ff 	addiu	a0,a3,1023
9d00ae44:	00a31825 	or	v1,a1,v1
9d00ae48:	18800025 	blez	a0,9d00aee0 <.LCFI0+0xec>
9d00ae4c:	000210c0 	sll	v0,v0,0x3
9d00ae50:	30450007 	andi	a1,v0,0x7
9d00ae54:	14a00015 	bnez	a1,9d00aeac <.LCFI0+0xb8>
9d00ae58:	7c4500c0 	ext	a1,v0,0x3,0x1
9d00ae5c:	00033740 	sll	a2,v1,0x1d
9d00ae60:	000210c2 	srl	v0,v0,0x3
9d00ae64:	288507ff 	slti	a1,a0,2047
9d00ae68:	00c21025 	or	v0,a2,v0
9d00ae6c:	10a00036 	beqz	a1,9d00af48 <.LCFI0+0x154>
9d00ae70:	000318c2 	srl	v1,v1,0x3
9d00ae74:	7c650500 	ext	a1,v1,0x14,0x1
9d00ae78:	50a00002 	beqzl	a1,9d00ae84 <.LCFI0+0x90>
9d00ae7c:	00002021 	move	a0,zero
9d00ae80:	7c639800 	ext	v1,v1,0x0,0x14
9d00ae84:	001082c0 	sll	s0,s0,0xb
9d00ae88:	00902025 	or	a0,a0,s0
9d00ae8c:	00042500 	sll	a0,a0,0x14
9d00ae90:	00831825 	or	v1,a0,v1
9d00ae94:	8fbf001c 	lw	ra,28(sp)
9d00ae98:	8fb20018 	lw	s2,24(sp)
9d00ae9c:	8fb10014 	lw	s1,20(sp)
9d00aea0:	8fb00010 	lw	s0,16(sp)
9d00aea4:	03e00008 	jr	ra
9d00aea8:	27bd0020 	addiu	sp,sp,32
9d00aeac:	24a50003 	addiu	a1,a1,3
9d00aeb0:	00452821 	addu	a1,v0,a1
9d00aeb4:	00a2102b 	sltu	v0,a1,v0
9d00aeb8:	00431821 	addu	v1,v0,v1
9d00aebc:	7c660600 	ext	a2,v1,0x18,0x1
9d00aec0:	10c0ffe6 	beqz	a2,9d00ae5c <.LCFI0+0x68>
9d00aec4:	00a01021 	move	v0,a1
9d00aec8:	00032fc0 	sll	a1,v1,0x1f
9d00aecc:	00021042 	srl	v0,v0,0x1
9d00aed0:	00a21025 	or	v0,a1,v0
9d00aed4:	00031842 	srl	v1,v1,0x1
9d00aed8:	0b402b97 	j	9d00ae5c <.LCFI0+0x68>
9d00aedc:	24840001 	addiu	a0,a0,1
9d00aee0:	2406fc02 	li	a2,-1022
9d00aee4:	00c73023 	subu	a2,a2,a3
9d00aee8:	28c40038 	slti	a0,a2,56
9d00aeec:	5080001b 	beqzl	a0,9d00af5c <.LCFI0+0x168>
9d00aef0:	00001021 	move	v0,zero
9d00aef4:	00062023 	negu	a0,a2
9d00aef8:	30850020 	andi	a1,a0,0x20
9d00aefc:	14a00003 	bnez	a1,9d00af0c <.LCFI0+0x118>
9d00af00:	00828804 	sllv	s1,v0,a0
9d00af04:	00832004 	sllv	a0,v1,a0
9d00af08:	00828825 	or	s1,a0,v0
9d00af0c:	00402021 	move	a0,v0
9d00af10:	0f4036d3 	jal	9d00db4c <__lshrdi3>
9d00af14:	00602821 	move	a1,v1
9d00af18:	0011882b 	sltu	s1,zero,s1
9d00af1c:	02221025 	or	v0,s1,v0
9d00af20:	0b402b94 	j	9d00ae50 <.LCFI0+0x5c>
9d00af24:	24040001 	li	a0,1
9d00af28:	54e00005 	bnezl	a3,9d00af40 <.LCFI0+0x14c>
9d00af2c:	00801021 	move	v0,a0
9d00af30:	01043025 	or	a2,t0,a0
9d00af34:	14c0000c 	bnez	a2,9d00af68 <.LCFI0+0x174>
9d00af38:	00000000 	nop
9d00af3c:	00801021 	move	v0,a0
9d00af40:	0b402ba5 	j	9d00ae94 <.LCFI0+0xa0>
9d00af44:	00a01821 	move	v1,a1
9d00af48:	00101ac0 	sll	v1,s0,0xb
9d00af4c:	346307ff 	ori	v1,v1,0x7ff
9d00af50:	00031d00 	sll	v1,v1,0x14
9d00af54:	0b402ba5 	j	9d00ae94 <.LCFI0+0xa0>
9d00af58:	00001021 	move	v0,zero
9d00af5c:	00001821 	move	v1,zero
9d00af60:	0b402ba1 	j	9d00ae84 <.LCFI0+0x90>
9d00af64:	00002021 	move	a0,zero
9d00af68:	15000003 	bnez	t0,9d00af78 <.LCFI0+0x184>
9d00af6c:	71129020 	clz	s2,t0
9d00af70:	70929020 	clz	s2,a0
9d00af74:	26520020 	addiu	s2,s2,32
9d00af78:	2646fff5 	addiu	a2,s2,-11
9d00af7c:	10c0ffad 	beqz	a2,9d00ae34 <.LCFI0+0x40>
9d00af80:	2407fc02 	li	a3,-1022
9d00af84:	0f4036e3 	jal	9d00db8c <__ashldi3>
9d00af88:	01002821 	move	a1,t0
9d00af8c:	2407fc0d 	li	a3,-1011
9d00af90:	0b402b8d 	j	9d00ae34 <.LCFI0+0x40>
9d00af94:	00f23823 	subu	a3,a3,s2

Disassembly of section .text._sbrk_init:

9d00af98 <_sbrk_init>:
9d00af98:	27bdffd8 	addiu	sp,sp,-40

9d00af9c <.LCFI0>:
9d00af9c:	afbf0024 	sw	ra,36(sp)
9d00afa0:	afb40020 	sw	s4,32(sp)
9d00afa4:	afb3001c 	sw	s3,28(sp)
9d00afa8:	afb20018 	sw	s2,24(sp)
9d00afac:	afb10014 	sw	s1,20(sp)
9d00afb0:	afb00010 	sw	s0,16(sp)
9d00afb4:	3c10a000 	lui	s0,0xa000
9d00afb8:	8e021110 	lw	v0,4368(s0)
9d00afbc:	10400009 	beqz	v0,9d00afe4 <.LCFI0+0x48>
9d00afc0:	3c12a000 	lui	s2,0xa000
9d00afc4:	8fbf0024 	lw	ra,36(sp)
9d00afc8:	8fb40020 	lw	s4,32(sp)
9d00afcc:	8fb3001c 	lw	s3,28(sp)
9d00afd0:	8fb20018 	lw	s2,24(sp)
9d00afd4:	8fb10014 	lw	s1,20(sp)
9d00afd8:	8fb00010 	lw	s0,16(sp)
9d00afdc:	03e00008 	jr	ra
9d00afe0:	27bd0028 	addiu	sp,sp,40
9d00afe4:	8e431118 	lw	v1,4376(s2)
9d00afe8:	5060003d 	beqzl	v1,9d00b0e0 <.LCFI0+0x144>
9d00afec:	3c03a000 	lui	v1,0xa000
9d00aff0:	3c13a000 	lui	s3,0xa000
9d00aff4:	8e621114 	lw	v0,4372(s3)
9d00aff8:	5040003b 	beqzl	v0,9d00b0e8 <.LCFI0+0x14c>
9d00affc:	3c040000 	lui	a0,0x0
9d00b000:	00038f82 	srl	s1,v1,0x1e
9d00b004:	0002a782 	srl	s4,v0,0x1e
9d00b008:	7c65e000 	ext	a1,v1,0x0,0x1d
9d00b00c:	3a310002 	xori	s1,s1,0x2
9d00b010:	7c44e000 	ext	a0,v0,0x0,0x1d
9d00b014:	3a940002 	xori	s4,s4,0x2
9d00b018:	00b1180a 	movz	v1,a1,s1
9d00b01c:	00608821 	move	s1,v1
9d00b020:	0094100a 	movz	v0,a0,s4
9d00b024:	0f403764 	jal	9d00dd90 <_stub_sbd_memlayout>
9d00b028:	0040a021 	move	s4,v0
9d00b02c:	8c430000 	lw	v1,0(v0)
9d00b030:	8c440004 	lw	a0,4(v0)
9d00b034:	0223102b 	sltu	v0,s1,v1
9d00b038:	10400024 	beqz	v0,9d00b0cc <.LCFI0+0x130>
9d00b03c:	00642021 	addu	a0,v1,a0
9d00b040:	3c02a000 	lui	v0,0xa000
9d00b044:	24420384 	addiu	v0,v0,900
9d00b048:	7c42e000 	ext	v0,v0,0x0,0x1d
9d00b04c:	0062102b 	sltu	v0,v1,v0
9d00b050:	1440ffdd 	bnez	v0,9d00afc8 <.LCFI0+0x2c>
9d00b054:	8fbf0024 	lw	ra,36(sp)
9d00b058:	0283102b 	sltu	v0,s4,v1
9d00b05c:	14400005 	bnez	v0,9d00b074 <.LCFI0+0xd8>
9d00b060:	0064102b 	sltu	v0,v1,a0
9d00b064:	0284102b 	sltu	v0,s4,a0
9d00b068:	54400004 	bnezl	v0,9d00b07c <.LCFI0+0xe0>
9d00b06c:	02802021 	move	a0,s4
9d00b070:	0064102b 	sltu	v0,v1,a0
9d00b074:	1040ffd4 	beqz	v0,9d00afc8 <.LCFI0+0x2c>
9d00b078:	8fbf0024 	lw	ra,36(sp)
9d00b07c:	3c02a000 	lui	v0,0xa000
9d00b080:	24420384 	addiu	v0,v0,900
9d00b084:	00021742 	srl	v0,v0,0x1d
9d00b088:	24050005 	li	a1,5
9d00b08c:	1445001b 	bne	v0,a1,9d00b0fc <.LCFI0+0x160>
9d00b090:	24050004 	li	a1,4
9d00b094:	3c02a000 	lui	v0,0xa000
9d00b098:	00621825 	or	v1,v1,v0
9d00b09c:	00822025 	or	a0,a0,v0
9d00b0a0:	ae431118 	sw	v1,4376(s2)
9d00b0a4:	ae641114 	sw	a0,4372(s3)
9d00b0a8:	ae031110 	sw	v1,4368(s0)
9d00b0ac:	8fbf0024 	lw	ra,36(sp)
9d00b0b0:	8fb40020 	lw	s4,32(sp)
9d00b0b4:	8fb3001c 	lw	s3,28(sp)
9d00b0b8:	8fb20018 	lw	s2,24(sp)
9d00b0bc:	8fb10014 	lw	s1,20(sp)
9d00b0c0:	8fb00010 	lw	s0,16(sp)
9d00b0c4:	03e00008 	jr	ra
9d00b0c8:	27bd0028 	addiu	sp,sp,40
9d00b0cc:	0224102b 	sltu	v0,s1,a0
9d00b0d0:	1040ffdc 	beqz	v0,9d00b044 <.LCFI0+0xa8>
9d00b0d4:	3c02a000 	lui	v0,0xa000
9d00b0d8:	0b402c16 	j	9d00b058 <.LCFI0+0xbc>
9d00b0dc:	02201821 	move	v1,s1
9d00b0e0:	0b402bfc 	j	9d00aff0 <.LCFI0+0x54>
9d00b0e4:	24631150 	addiu	v1,v1,4432
9d00b0e8:	24840000 	addiu	a0,a0,0
9d00b0ec:	3c02a000 	lui	v0,0xa000
9d00b0f0:	24421150 	addiu	v0,v0,4432
9d00b0f4:	0b402c00 	j	9d00b000 <.LCFI0+0x64>
9d00b0f8:	00441021 	addu	v0,v0,a0
9d00b0fc:	14450007 	bne	v0,a1,9d00b11c <.LCFI0+0x180>
9d00b100:	3c028000 	lui	v0,0x8000
9d00b104:	00621825 	or	v1,v1,v0
9d00b108:	00821025 	or	v0,a0,v0
9d00b10c:	ae431118 	sw	v1,4376(s2)
9d00b110:	ae621114 	sw	v0,4372(s3)
9d00b114:	0b402c2b 	j	9d00b0ac <.LCFI0+0x110>
9d00b118:	ae031110 	sw	v1,4368(s0)
9d00b11c:	ae441118 	sw	a0,4376(s2)
9d00b120:	00801821 	move	v1,a0
9d00b124:	0b402c2b 	j	9d00b0ac <.LCFI0+0x110>
9d00b128:	ae031110 	sw	v1,4368(s0)

Disassembly of section .text.libm:

9d00b12c <__mchp_ldexp>:
9d00b12c:	00054840 00094d42 252cffff 2d8107fe     @H..BM....,%...-
9d00b13c:	1020000f 00000000                       .. .....

9d00b144 <Clab1>:
9d00b144:	01264821 	addu	t1,t1,a2
9d00b148:	252cffff 	addiu	t4,t1,-1
9d00b14c:	2d8107fe 	sltiu	at,t4,2046
9d00b150:	10200021 	beqz	at,9d00b1d8 <Cspec2>
9d00b154:	00000000 	nop
9d00b158:	3c01800f 	lui	at,0x800f
9d00b15c:	3421ffff 	ori	at,at,0xffff
9d00b160:	00a12824 	and	a1,a1,at
9d00b164:	00096500 	sll	t4,t1,0x14
9d00b168:	00ac2825 	or	a1,a1,t4

9d00b16c <Cret>:
9d00b16c:	00041025 	or	v0,zero,a0
9d00b170:	00051825 	or	v1,zero,a1

9d00b174 <C999>:
9d00b174:	03e00008 	jr	ra
9d00b178:	00000000 	nop

9d00b17c <Cspec>:
9d00b17c:	00056300 	sll	t4,a1,0xc
9d00b180:	01846025 	or	t4,t4,a0
9d00b184:	1180fff9 	beqz	t4,9d00b16c <Cret>
9d00b188:	00000000 	nop
9d00b18c:	11200004 	beqz	t1,9d00b1a0 <i9>
9d00b190:	00000000 	nop
9d00b194:	3c05fff8 	lui	a1,0xfff8
9d00b198:	1000fff4 	b	9d00b16c <Cret>
9d00b19c:	24040000 	li	a0,0

9d00b1a0 <i9>:
9d00b1a0:	25290001 	addiu	t1,t1,1
9d00b1a4:	3c018000 	lui	at,0x8000
9d00b1a8:	00a15024 	and	t2,a1,at

9d00b1ac <b10>:
9d00b1ac:	2529ffff 	addiu	t1,t1,-1
9d00b1b0:	0080602a 	slt	t4,a0,zero
9d00b1b4:	00842021 	addu	a0,a0,a0
9d00b1b8:	00a52821 	addu	a1,a1,a1
9d00b1bc:	00ac2821 	addu	a1,a1,t4
9d00b1c0:	3c010010 	lui	at,0x10
9d00b1c4:	00a1082b 	sltu	at,a1,at
9d00b1c8:	1420fff8 	bnez	at,9d00b1ac <b10>
9d00b1cc:	00000000 	nop
9d00b1d0:	1000ffdc 	b	9d00b144 <Clab1>
9d00b1d4:	00aa2825 	or	a1,a1,t2

9d00b1d8 <Cspec2>:
9d00b1d8:	000542c0 	sll	t0,a1,0xb
9d00b1dc:	00046542 	srl	t4,a0,0x15
9d00b1e0:	010c4025 	or	t0,t0,t4
9d00b1e4:	00043ac0 	sll	a3,a0,0xb
9d00b1e8:	3c018000 	lui	at,0x8000
9d00b1ec:	01014025 	or	t0,t0,at
9d00b1f0:	3c018000 	lui	at,0x8000
9d00b1f4:	19200005 	blez	t1,9d00b20c <i11>
9d00b1f8:	00a12824 	and	a1,a1,at
9d00b1fc:	3c017ff0 	lui	at,0x7ff0
9d00b200:	00a12825 	or	a1,a1,at
9d00b204:	1000ffd9 	b	9d00b16c <Cret>
9d00b208:	24040000 	li	a0,0

9d00b20c <i11>:
9d00b20c:	240a0001 	li	t2,1
9d00b210:	01495023 	subu	t2,t2,t1

9d00b214 <L13>:
9d00b214:	2d410020 	sltiu	at,t2,32
9d00b218:	14200007 	bnez	at,9d00b238 <L14>
9d00b21c:	00000000 	nop
9d00b220:	214affe0 	addi	t2,t2,-32
9d00b224:	0007202b 	sltu	a0,zero,a3
9d00b228:	1008000d 	beq	zero,t0,9d00b260 <L15>
9d00b22c:	01043825 	or	a3,t0,a0
9d00b230:	1000fff8 	b	9d00b214 <L13>
9d00b234:	34080000 	li	t0,0x0

9d00b238 <L14>:
9d00b238:	11400009 	beqz	t2,9d00b260 <L15>
9d00b23c:	00000000 	nop
9d00b240:	000a5822 	neg	t3,t2
9d00b244:	01672004 	sllv	a0,a3,t3
9d00b248:	01685804 	sllv	t3,t0,t3
9d00b24c:	01473806 	srlv	a3,a3,t2
9d00b250:	01484006 	srlv	t0,t0,t2
9d00b254:	10800002 	beqz	a0,9d00b260 <L15>
9d00b258:	01673825 	or	a3,t3,a3
9d00b25c:	34e70002 	ori	a3,a3,0x2

9d00b260 <L15>:
9d00b260:	24e70400 	addiu	a3,a3,1024
9d00b264:	2cec0400 	sltiu	t4,a3,1024
9d00b268:	010c4021 	addu	t0,t0,t4
9d00b26c:	000762c2 	srl	t4,a3,0xb
9d00b270:	318c0001 	andi	t4,t4,0x1
9d00b274:	00ec3823 	subu	a3,a3,t4
9d00b278:	000722c2 	srl	a0,a3,0xb
9d00b27c:	00086540 	sll	t4,t0,0x15
9d00b280:	008c2025 	or	a0,a0,t4
9d00b284:	00086040 	sll	t4,t0,0x1
9d00b288:	000c6302 	srl	t4,t4,0xc
9d00b28c:	1000ffb7 	b	9d00b16c <Cret>
9d00b290:	00ac2825 	or	a1,a1,t4
9d00b294:	00000000 	nop

Disassembly of section .text:

9d00b298 <wait>:
#include "dsp.h"
#include "helpers.h"

void wait(t){ // = 8 cycles + t cycles
  int ii;
  for (ii=0;ii<t;ii++){
9d00b298:	18800004 	blez	a0,9d00b2ac <wait+0x14>
9d00b29c:	00001021 	move	v0,zero
9d00b2a0:	24420001 	addiu	v0,v0,1
9d00b2a4:	1444ffff 	bne	v0,a0,9d00b2a4 <wait+0xc>
9d00b2a8:	24420001 	addiu	v0,v0,1
9d00b2ac:	03e00008 	jr	ra
9d00b2b0:	00000000 	nop

9d00b2b4 <array_insert>:
  }
}

void array_insert(int order, double *array, double elem){
  int i;
  for(i=order;i>0;i--){
9d00b2b4:	18800007 	blez	a0,9d00b2d4 <array_insert+0x20>
9d00b2b8:	00041080 	sll	v0,a0,0x2
9d00b2bc:	00a21021 	addu	v0,a1,v0
    array[i] = array[i-1];
9d00b2c0:	8c43fffc 	lw	v1,-4(v0)
9d00b2c4:	ac430000 	sw	v1,0(v0)
  }
}

void array_insert(int order, double *array, double elem){
  int i;
  for(i=order;i>0;i--){
9d00b2c8:	2484ffff 	addiu	a0,a0,-1
9d00b2cc:	1480fffc 	bnez	a0,9d00b2c0 <array_insert+0xc>
9d00b2d0:	2442fffc 	addiu	v0,v0,-4
    array[i] = array[i-1];
  }
  array[0] = elem;
9d00b2d4:	03e00008 	jr	ra
9d00b2d8:	aca60000 	sw	a2,0(a1)

9d00b2dc <atanr>:
}

/* atanr takes arctan of a value but

*/
double atanr(double y, double x){
9d00b2dc:	27bdffe0 	addiu	sp,sp,-32
9d00b2e0:	afbf001c 	sw	ra,28(sp)
9d00b2e4:	afb10018 	sw	s1,24(sp)
9d00b2e8:	afb00014 	sw	s0,20(sp)
9d00b2ec:	00808821 	move	s1,a0
9d00b2f0:	00a08021 	move	s0,a1
  if (y>=0){
9d00b2f4:	00002021 	move	a0,zero
9d00b2f8:	0f4033f1 	jal	9d00cfc4 <__eqsf2>
9d00b2fc:	02202821 	move	a1,s1
9d00b300:	1c400015 	bgtz	v0,9d00b358 <.LVL14+0x18>
9d00b304:	00002021 	move	a0,zero
    if (x>=0){
9d00b308:	0f4033f1 	jal	9d00cfc4 <__eqsf2>
9d00b30c:	02002821 	move	a1,s0
9d00b310:	1c400007 	bgtz	v0,9d00b330 <.LVL12+0x8>
9d00b314:	02202021 	move	a0,s1
      return atan(y/x);
9d00b318:	0f4029a5 	jal	9d00a694 <__divsf3>
9d00b31c:	02002821 	move	a1,s0
9d00b320:	0f40337b 	jal	9d00cdec <atanf>
9d00b324:	00402021 	move	a0,v0

9d00b328 <.LVL12>:
9d00b328:	0b402ce9 	j	9d00b3a4 <.LVL20+0x14>
9d00b32c:	8fbf001c 	lw	ra,28(sp)
    } else {
      return atan(y/x) + pi;
9d00b330:	0f4029a5 	jal	9d00a694 <__divsf3>
9d00b334:	02002821 	move	a1,s0
9d00b338:	0f40337b 	jal	9d00cdec <atanf>
9d00b33c:	00402021 	move	a0,v0

9d00b340 <.LVL14>:
9d00b340:	00402021 	move	a0,v0
9d00b344:	3c029d01 	lui	v0,0x9d01
9d00b348:	0f402877 	jal	9d00a1dc <__addsf3>
9d00b34c:	8c45de0c 	lw	a1,-8692(v0)
9d00b350:	0b402ce9 	j	9d00b3a4 <.LVL20+0x14>
9d00b354:	8fbf001c 	lw	ra,28(sp)
    }
  } else {
    if (x>=0){
9d00b358:	0f4033f1 	jal	9d00cfc4 <__eqsf2>
9d00b35c:	02002821 	move	a1,s0
9d00b360:	1c400007 	bgtz	v0,9d00b380 <.LVL18+0x8>
9d00b364:	02202021 	move	a0,s1
      return atan(y/x);
9d00b368:	0f4029a5 	jal	9d00a694 <__divsf3>
9d00b36c:	02002821 	move	a1,s0
9d00b370:	0f40337b 	jal	9d00cdec <atanf>
9d00b374:	00402021 	move	a0,v0

9d00b378 <.LVL18>:
9d00b378:	0b402ce9 	j	9d00b3a4 <.LVL20+0x14>
9d00b37c:	8fbf001c 	lw	ra,28(sp)
    } else {
      return atan(y/x) - pi;
9d00b380:	0f4029a5 	jal	9d00a694 <__divsf3>
9d00b384:	02002821 	move	a1,s0
9d00b388:	0f40337b 	jal	9d00cdec <atanf>
9d00b38c:	00402021 	move	a0,v0

9d00b390 <.LVL20>:
9d00b390:	00402021 	move	a0,v0
9d00b394:	3c029d01 	lui	v0,0x9d01
9d00b398:	0f402875 	jal	9d00a1d4 <__subsf3>
9d00b39c:	8c45de0c 	lw	a1,-8692(v0)
    }
  }
  //return atan(y/x) + ((double) (x<0)*((y>=0)-(y<0)))*pi;
}
9d00b3a0:	8fbf001c 	lw	ra,28(sp)
9d00b3a4:	8fb10018 	lw	s1,24(sp)
9d00b3a8:	8fb00014 	lw	s0,20(sp)
9d00b3ac:	03e00008 	jr	ra
9d00b3b0:	27bd0020 	addiu	sp,sp,32

9d00b3b4 <absd>:

double absd(double val){
9d00b3b4:	27bdffe8 	addiu	sp,sp,-24
9d00b3b8:	afbf0014 	sw	ra,20(sp)
9d00b3bc:	afb00010 	sw	s0,16(sp)
9d00b3c0:	00808021 	move	s0,a0
  if (val>=0.0){
9d00b3c4:	00002021 	move	a0,zero
9d00b3c8:	0f4033f1 	jal	9d00cfc4 <__eqsf2>
9d00b3cc:	02002821 	move	a1,s0
9d00b3d0:	18400003 	blez	v0,9d00b3e0 <absd+0x2c>
9d00b3d4:	02001821 	move	v1,s0
    return val;
  } else {
    return -val;
9d00b3d8:	3c038000 	lui	v1,0x8000
9d00b3dc:	02031826 	xor	v1,s0,v1
  }
}
9d00b3e0:	00601021 	move	v0,v1
9d00b3e4:	8fbf0014 	lw	ra,20(sp)
9d00b3e8:	8fb00010 	lw	s0,16(sp)
9d00b3ec:	03e00008 	jr	ra
9d00b3f0:	27bd0018 	addiu	sp,sp,24

Disassembly of section .text.libm:

9d00b3f4 <fmodf>:
9d00b3f4:	00043dc2 30e700ff 000555c2 314a00ff     .=.....0.U....J1
9d00b404:	3c0c8000 00043200 00cc3025 00054a00     ...<.2..%0...J..
9d00b414:	012c4825 008c4024 24edffff 2da100fe     %H,.$@.....$...-
9d00b424:	1020002b 00000000                       +. .....

9d00b42c <Alab1>:
9d00b42c:	254dffff 	addiu	t5,t2,-1
9d00b430:	2da100fe 	sltiu	at,t5,254
9d00b434:	10200030 	beqz	at,9d00b4f8 <AspecB>
9d00b438:	00000000 	nop

9d00b43c <Alab2>:
9d00b43c:	00ea6023 	subu	t4,a3,t2
9d00b440:	05810003 	bgez	t4,9d00b450 <i1>
9d00b444:	00000000 	nop
9d00b448:	10000020 	b	9d00b4cc <A999>
9d00b44c:	00041025 	or	v0,zero,a0

9d00b450 <i1>:
9d00b450:	00063042 	srl	a2,a2,0x1
9d00b454:	00094842 	srl	t1,t1,0x1

9d00b458 <b2>:
9d00b458:	00c9682b 	sltu	t5,a2,t1
9d00b45c:	11a00003 	beqz	t5,9d00b46c <i3>
9d00b460:	00c93023 	subu	a2,a2,t1
9d00b464:	00c93021 	addu	a2,a2,t1
9d00b468:	00c9682b 	sltu	t5,a2,t1

9d00b46c <i3>:
9d00b46c:	00c0682a 	slt	t5,a2,zero
9d00b470:	00c63021 	addu	a2,a2,a2
9d00b474:	258cffff 	addiu	t4,t4,-1
9d00b478:	0581fff7 	bgez	t4,9d00b458 <b2>
9d00b47c:	00000000 	nop
9d00b480:	10c0002b 	beqz	a2,9d00b530 <Azer>
9d00b484:	00000000 	nop
9d00b488:	70cc6020 	clz	t4,a2
9d00b48c:	014c5023 	subu	t2,t2,t4
9d00b490:	1d400009 	bgtz	t2,9d00b4b8 <i4>
9d00b494:	01863004 	sllv	a2,a2,t4
9d00b498:	240c0009 	li	t4,9
9d00b49c:	018a6023 	subu	t4,t4,t2
9d00b4a0:	2d810020 	sltiu	at,t4,32
9d00b4a4:	14200002 	bnez	at,9d00b4b0 <L1>
9d00b4a8:	00000000 	nop
9d00b4ac:	34060000 	li	a2,0x0

9d00b4b0 <L1>:
9d00b4b0:	10000005 	b	9d00b4c8 <Aret>
9d00b4b4:	01863006 	srlv	a2,a2,t4

9d00b4b8 <i4>:
9d00b4b8:	00063040 	sll	a2,a2,0x1
9d00b4bc:	00063242 	srl	a2,a2,0x9
9d00b4c0:	000a6dc0 	sll	t5,t2,0x17
9d00b4c4:	00cd3025 	or	a2,a2,t5

9d00b4c8 <Aret>:
9d00b4c8:	00c81025 	or	v0,a2,t0

9d00b4cc <A999>:
9d00b4cc:	03e00008 	jr	ra
9d00b4d0:	00000000 	nop

9d00b4d4 <AspecA>:
9d00b4d4:	14e00014 	bnez	a3,9d00b528 <Anan>
9d00b4d8:	00000000 	nop
9d00b4dc:	00c63021 	addu	a2,a2,a2
9d00b4e0:	10c0ffd2 	beqz	a2,9d00b42c <Alab1>
9d00b4e4:	00000000 	nop
9d00b4e8:	70cc6020 	clz	t4,a2
9d00b4ec:	00ec3823 	subu	a3,a3,t4
9d00b4f0:	1000ffce 	b	9d00b42c <Alab1>
9d00b4f4:	01863004 	sllv	a2,a2,t4

9d00b4f8 <AspecB>:
9d00b4f8:	15400007 	bnez	t2,9d00b518 <i6>
9d00b4fc:	01294821 	addu	t1,t1,t1
9d00b500:	11200009 	beqz	t1,9d00b528 <Anan>
9d00b504:	00000000 	nop
9d00b508:	712c6020 	clz	t4,t1
9d00b50c:	014c5023 	subu	t2,t2,t4
9d00b510:	1000ffca 	b	9d00b43c <Alab2>
9d00b514:	01894804 	sllv	t1,t1,t4

9d00b518 <i6>:
9d00b518:	15200003 	bnez	t1,9d00b528 <Anan>
9d00b51c:	00000000 	nop
9d00b520:	1000ffea 	b	9d00b4cc <A999>
9d00b524:	00041025 	or	v0,zero,a0

9d00b528 <Anan>:
9d00b528:	1000ffe8 	b	9d00b4cc <A999>
9d00b52c:	3c02ffc0 	lui	v0,0xffc0

9d00b530 <Azer>:
9d00b530:	1000ffe6 	b	9d00b4cc <A999>
9d00b534:	00081025 	or	v0,zero,t0
9d00b538:	00000000 	nop

Disassembly of section .text._outcnvrt:

9d00b53c <_outcnvrt>:
9d00b53c:	27bdffd8 	addiu	sp,sp,-40
9d00b540:	afbf0024 	sw	ra,36(sp)
9d00b544:	afb40020 	sw	s4,32(sp)
9d00b548:	afb3001c 	sw	s3,28(sp)
9d00b54c:	afb20018 	sw	s2,24(sp)
9d00b550:	afb10014 	sw	s1,20(sp)
9d00b554:	afb00010 	sw	s0,16(sp)
9d00b558:	00809821 	move	s3,a0
9d00b55c:	00a0a021 	move	s4,a1
9d00b560:	97a20038 	lhu	v0,56(sp)
9d00b564:	30420008 	andi	v0,v0,0x8
9d00b568:	00c08021 	move	s0,a2
9d00b56c:	10400014 	beqz	v0,9d00b5c0 <_outcnvrt+0x84>
9d00b570:	00e08821 	move	s1,a3
9d00b574:	00a02021 	move	a0,a1
9d00b578:	00c02821 	move	a1,a2
9d00b57c:	0f403537 	jal	9d00d4dc <__sputn>
9d00b580:	02603021 	move	a2,s3
9d00b584:	2403ffff 	li	v1,-1
9d00b588:	10430003 	beq	v0,v1,9d00b598 <_outcnvrt+0x5c>
9d00b58c:	0211902a 	slt	s2,s0,s1
9d00b590:	1640001c 	bnez	s2,9d00b604 <_outcnvrt+0xc8>
9d00b594:	02602021 	move	a0,s3
9d00b598:	02201021 	move	v0,s1
9d00b59c:	0212100a 	movz	v0,s0,s2
9d00b5a0:	8fbf0024 	lw	ra,36(sp)
9d00b5a4:	8fb40020 	lw	s4,32(sp)
9d00b5a8:	8fb3001c 	lw	s3,28(sp)
9d00b5ac:	8fb20018 	lw	s2,24(sp)
9d00b5b0:	8fb10014 	lw	s1,20(sp)
9d00b5b4:	8fb00010 	lw	s0,16(sp)
9d00b5b8:	03e00008 	jr	ra
9d00b5bc:	27bd0028 	addiu	sp,sp,40
9d00b5c0:	00c7902a 	slt	s2,a2,a3
9d00b5c4:	1640001d 	bnez	s2,9d00b63c <_outcnvrt+0x100>
9d00b5c8:	00e62823 	subu	a1,a3,a2
9d00b5cc:	02802021 	move	a0,s4
9d00b5d0:	02002821 	move	a1,s0
9d00b5d4:	0f403537 	jal	9d00d4dc <__sputn>
9d00b5d8:	02603021 	move	a2,s3
9d00b5dc:	02201021 	move	v0,s1
9d00b5e0:	0212100a 	movz	v0,s0,s2
9d00b5e4:	8fbf0024 	lw	ra,36(sp)
9d00b5e8:	8fb40020 	lw	s4,32(sp)
9d00b5ec:	8fb3001c 	lw	s3,28(sp)
9d00b5f0:	8fb20018 	lw	s2,24(sp)
9d00b5f4:	8fb10014 	lw	s1,20(sp)
9d00b5f8:	8fb00010 	lw	s0,16(sp)
9d00b5fc:	03e00008 	jr	ra
9d00b600:	27bd0028 	addiu	sp,sp,40
9d00b604:	02302823 	subu	a1,s1,s0
9d00b608:	3c069d01 	lui	a2,0x9d01
9d00b60c:	0f4033a3 	jal	9d00ce8c <repl>
9d00b610:	24c6d8e0 	addiu	a2,a2,-10016
9d00b614:	02201021 	move	v0,s1
9d00b618:	0212100a 	movz	v0,s0,s2
9d00b61c:	8fbf0024 	lw	ra,36(sp)
9d00b620:	8fb40020 	lw	s4,32(sp)
9d00b624:	8fb3001c 	lw	s3,28(sp)
9d00b628:	8fb20018 	lw	s2,24(sp)
9d00b62c:	8fb10014 	lw	s1,20(sp)
9d00b630:	8fb00010 	lw	s0,16(sp)
9d00b634:	03e00008 	jr	ra
9d00b638:	27bd0028 	addiu	sp,sp,40
9d00b63c:	3c069d01 	lui	a2,0x9d01
9d00b640:	0f4033a3 	jal	9d00ce8c <repl>
9d00b644:	24c6d8e0 	addiu	a2,a2,-10016
9d00b648:	2403ffff 	li	v1,-1
9d00b64c:	1443ffdf 	bne	v0,v1,9d00b5cc <_outcnvrt+0x90>
9d00b650:	02201021 	move	v0,s1
9d00b654:	0212100a 	movz	v0,s0,s2
9d00b658:	8fbf0024 	lw	ra,36(sp)
9d00b65c:	8fb40020 	lw	s4,32(sp)
9d00b660:	8fb3001c 	lw	s3,28(sp)
9d00b664:	8fb20018 	lw	s2,24(sp)
9d00b668:	8fb10014 	lw	s1,20(sp)
9d00b66c:	8fb00010 	lw	s0,16(sp)
9d00b670:	03e00008 	jr	ra
9d00b674:	27bd0028 	addiu	sp,sp,40

Disassembly of section .text.ungetc:

9d00b678 <ungetc>:
9d00b678:	27bdffe0 	addiu	sp,sp,-32
9d00b67c:	afbf001c 	sw	ra,28(sp)
9d00b680:	afb20018 	sw	s2,24(sp)
9d00b684:	afb10014 	sw	s1,20(sp)
9d00b688:	afb00010 	sw	s0,16(sp)
9d00b68c:	2412ffff 	li	s2,-1
9d00b690:	10920028 	beq	a0,s2,9d00b734 <ungetc+0xbc>
9d00b694:	00808821 	move	s1,a0
9d00b698:	00a08021 	move	s0,a1
9d00b69c:	8ca20018 	lw	v0,24(a1)
9d00b6a0:	00a02021 	move	a0,a1
9d00b6a4:	8c420010 	lw	v0,16(v0)
9d00b6a8:	0040f809 	jalr	v0
9d00b6ac:	24050002 	li	a1,2
9d00b6b0:	10400021 	beqz	v0,9d00b738 <ungetc+0xc0>
9d00b6b4:	2402ffff 	li	v0,-1
9d00b6b8:	8e020000 	lw	v0,0(s0)
9d00b6bc:	10520037 	beq	v0,s2,9d00b79c <ungetc+0x124>
9d00b6c0:	00000000 	nop
9d00b6c4:	8e02000c 	lw	v0,12(s0)
9d00b6c8:	50400017 	beqzl	v0,9d00b728 <ungetc+0xb0>
9d00b6cc:	8e030004 	lw	v1,4(s0)
9d00b6d0:	8e020004 	lw	v0,4(s0)
9d00b6d4:	8e030008 	lw	v1,8(s0)
9d00b6d8:	0062182b 	sltu	v1,v1,v0
9d00b6dc:	1060001c 	beqz	v1,9d00b750 <ungetc+0xd8>
9d00b6e0:	8e030000 	lw	v1,0(s0)
9d00b6e4:	2442ffff 	addiu	v0,v0,-1
9d00b6e8:	ae020004 	sw	v0,4(s0)
9d00b6ec:	24630001 	addiu	v1,v1,1
9d00b6f0:	ae030000 	sw	v1,0(s0)
9d00b6f4:	90430000 	lbu	v1,0(v0)
9d00b6f8:	54710001 	bnel	v1,s1,9d00b700 <ungetc+0x88>
9d00b6fc:	a0510000 	sb	s1,0(v0)
9d00b700:	96030010 	lhu	v1,16(s0)
9d00b704:	02201021 	move	v0,s1
9d00b708:	7c032944 	ins	v1,zero,0x5,0x1
9d00b70c:	a6030010 	sh	v1,16(s0)
9d00b710:	8fbf001c 	lw	ra,28(sp)
9d00b714:	8fb20018 	lw	s2,24(sp)
9d00b718:	8fb10014 	lw	s1,20(sp)
9d00b71c:	8fb00010 	lw	s0,16(sp)
9d00b720:	03e00008 	jr	ra
9d00b724:	27bd0020 	addiu	sp,sp,32
9d00b728:	2402ffff 	li	v0,-1
9d00b72c:	50620011 	beql	v1,v0,9d00b774 <ungetc+0xfc>
9d00b730:	96030010 	lhu	v1,16(s0)
9d00b734:	2402ffff 	li	v0,-1
9d00b738:	8fbf001c 	lw	ra,28(sp)
9d00b73c:	8fb20018 	lw	s2,24(sp)
9d00b740:	8fb10014 	lw	s1,20(sp)
9d00b744:	8fb00010 	lw	s0,16(sp)
9d00b748:	03e00008 	jr	ra
9d00b74c:	27bd0020 	addiu	sp,sp,32
9d00b750:	5060ffe7 	beqzl	v1,9d00b6f0 <ungetc+0x78>
9d00b754:	24630001 	addiu	v1,v1,1
9d00b758:	02201021 	move	v0,s1
9d00b75c:	8fbf001c 	lw	ra,28(sp)
9d00b760:	8fb20018 	lw	s2,24(sp)
9d00b764:	8fb10014 	lw	s1,20(sp)
9d00b768:	8fb00010 	lw	s0,16(sp)
9d00b76c:	03e00008 	jr	ra
9d00b770:	27bd0020 	addiu	sp,sp,32
9d00b774:	ae110004 	sw	s1,4(s0)
9d00b778:	02201021 	move	v0,s1
9d00b77c:	7c032944 	ins	v1,zero,0x5,0x1
9d00b780:	a6030010 	sh	v1,16(s0)
9d00b784:	8fbf001c 	lw	ra,28(sp)
9d00b788:	8fb20018 	lw	s2,24(sp)
9d00b78c:	8fb10014 	lw	s1,20(sp)
9d00b790:	8fb00010 	lw	s0,16(sp)
9d00b794:	03e00008 	jr	ra
9d00b798:	27bd0020 	addiu	sp,sp,32
9d00b79c:	0f403418 	jal	9d00d060 <_i_init>
9d00b7a0:	02002021 	move	a0,s0
9d00b7a4:	0b402db2 	j	9d00b6c8 <ungetc+0x50>
9d00b7a8:	8e02000c 	lw	v0,12(s0)

Disassembly of section .text:

9d00b7ac <rfilter>:
#include "dsp.h"

double rfilter(int order, double *b, double *a, double *s, double *sf){
9d00b7ac:	27bdffd8 	addiu	sp,sp,-40
9d00b7b0:	afbf0024 	sw	ra,36(sp)
9d00b7b4:	afb30020 	sw	s3,32(sp)
9d00b7b8:	afb2001c 	sw	s2,28(sp)
9d00b7bc:	afb10018 	sw	s1,24(sp)
9d00b7c0:	afb00014 	sw	s0,20(sp)
9d00b7c4:	00a08821 	move	s1,a1
9d00b7c8:	00c09021 	move	s2,a2
  switch (order){
9d00b7cc:	24020001 	li	v0,1
9d00b7d0:	10820006 	beq	a0,v0,9d00b7ec <rfilter+0x40>
9d00b7d4:	00e08021 	move	s0,a3
9d00b7d8:	24020002 	li	v0,2
9d00b7dc:	50820017 	beql	a0,v0,9d00b83c <rfilter+0x90>
9d00b7e0:	8ca40000 	lw	a0,0(a1)
    // case 5:
    //   return (b[0]*s[0] + b[1]*s[1] + b[2]*s[2] + b[3]*s[3] + b[4]*s[4] + b[5]*s[5] - a[1]*sf[0] - a[2]*sf[1] - a[3]*sf[2] - a[4]*sf[3] - a[5]*sf[4]);
    // break;
    return 0.0;
  }
}
9d00b7e4:	0b402e31 	j	9d00b8c4 <rfilter+0x118>
9d00b7e8:	8fbf0024 	lw	ra,36(sp)
#include "dsp.h"

double rfilter(int order, double *b, double *a, double *s, double *sf){
  switch (order){
    case 1:
      return (b[0]*s[0] + b[1]*s[1] - a[1]*sf[0]);
9d00b7ec:	8ca40000 	lw	a0,0(a1)
9d00b7f0:	0f402aa2 	jal	9d00aa88 <.LFE9>
9d00b7f4:	8ce50000 	lw	a1,0(a3)
9d00b7f8:	00409821 	move	s3,v0
9d00b7fc:	8e240004 	lw	a0,4(s1)
9d00b800:	0f402aa2 	jal	9d00aa88 <.LFE9>
9d00b804:	8e050004 	lw	a1,4(s0)
9d00b808:	02602021 	move	a0,s3
9d00b80c:	0f402877 	jal	9d00a1dc <__addsf3>
9d00b810:	00402821 	move	a1,v0
9d00b814:	00408021 	move	s0,v0
9d00b818:	8e440004 	lw	a0,4(s2)
9d00b81c:	8fa20038 	lw	v0,56(sp)
9d00b820:	0f402aa2 	jal	9d00aa88 <.LFE9>
9d00b824:	8c450000 	lw	a1,0(v0)
9d00b828:	02002021 	move	a0,s0
9d00b82c:	0f402875 	jal	9d00a1d4 <__subsf3>
9d00b830:	00402821 	move	a1,v0
9d00b834:	0b402e31 	j	9d00b8c4 <rfilter+0x118>
9d00b838:	8fbf0024 	lw	ra,36(sp)
    break;
    case 2:
      return (b[0]*s[0] + b[1]*s[1] + b[2]*s[2] - a[1]*sf[0] - a[2]*sf[1]);
9d00b83c:	0f402aa2 	jal	9d00aa88 <.LFE9>
9d00b840:	8ce50000 	lw	a1,0(a3)
9d00b844:	00409821 	move	s3,v0
9d00b848:	8e240004 	lw	a0,4(s1)
9d00b84c:	0f402aa2 	jal	9d00aa88 <.LFE9>
9d00b850:	8e050004 	lw	a1,4(s0)
9d00b854:	02602021 	move	a0,s3
9d00b858:	0f402877 	jal	9d00a1dc <__addsf3>
9d00b85c:	00402821 	move	a1,v0
9d00b860:	00409821 	move	s3,v0
9d00b864:	8e240008 	lw	a0,8(s1)
9d00b868:	0f402aa2 	jal	9d00aa88 <.LFE9>
9d00b86c:	8e050008 	lw	a1,8(s0)
9d00b870:	02602021 	move	a0,s3
9d00b874:	0f402877 	jal	9d00a1dc <__addsf3>
9d00b878:	00402821 	move	a1,v0
9d00b87c:	00408021 	move	s0,v0
9d00b880:	8e440004 	lw	a0,4(s2)
9d00b884:	8fa20038 	lw	v0,56(sp)
9d00b888:	0f402aa2 	jal	9d00aa88 <.LFE9>
9d00b88c:	8c450000 	lw	a1,0(v0)
9d00b890:	02002021 	move	a0,s0
9d00b894:	0f402875 	jal	9d00a1d4 <__subsf3>
9d00b898:	00402821 	move	a1,v0
9d00b89c:	00408021 	move	s0,v0
9d00b8a0:	8e440008 	lw	a0,8(s2)
9d00b8a4:	8fa20038 	lw	v0,56(sp)
9d00b8a8:	0f402aa2 	jal	9d00aa88 <.LFE9>
9d00b8ac:	8c450004 	lw	a1,4(v0)
9d00b8b0:	02002021 	move	a0,s0
9d00b8b4:	0f402875 	jal	9d00a1d4 <__subsf3>
9d00b8b8:	00402821 	move	a1,v0
9d00b8bc:	0b402e31 	j	9d00b8c4 <rfilter+0x118>
9d00b8c0:	8fbf0024 	lw	ra,36(sp)
    // case 5:
    //   return (b[0]*s[0] + b[1]*s[1] + b[2]*s[2] + b[3]*s[3] + b[4]*s[4] + b[5]*s[5] - a[1]*sf[0] - a[2]*sf[1] - a[3]*sf[2] - a[4]*sf[3] - a[5]*sf[4]);
    // break;
    return 0.0;
  }
}
9d00b8c4:	8fb30020 	lw	s3,32(sp)
9d00b8c8:	8fb2001c 	lw	s2,28(sp)
9d00b8cc:	8fb10018 	lw	s1,24(sp)
9d00b8d0:	8fb00014 	lw	s0,20(sp)
9d00b8d4:	03e00008 	jr	ra
9d00b8d8:	27bd0028 	addiu	sp,sp,40

Disassembly of section .text.dpcmp:

9d00b8dc <__eqdf2>:
9d00b8dc:	2409fffe 00055040 00075840 01645825     ...$@P..@X..%Xd.
9d00b8ec:	01665825 014b5025 15400003 00000000     %Xf.%PK...@.....
9d00b8fc:	1000003c 24020000                       <......$

9d00b904 <i56>:
9d00b904:	10800002 	beqz	a0,9d00b910 <i57>
9d00b908:	00054040 	sll	t0,a1,0x1
9d00b90c:	25080001 	addiu	t0,t0,1

9d00b910 <i57>:
9d00b910:	3c01ffe0 	lui	at,0xffe0
9d00b914:	34210001 	ori	at,at,0x1
9d00b918:	0101082b 	sltu	at,t0,at
9d00b91c:	10200037 	beqz	at,9d00b9fc <Lnan>
9d00b920:	00000000 	nop
9d00b924:	10c00002 	beqz	a2,9d00b930 <i58>
9d00b928:	00074040 	sll	t0,a3,0x1
9d00b92c:	25080001 	addiu	t0,t0,1

9d00b930 <i58>:
9d00b930:	3c01ffe0 	lui	at,0xffe0
9d00b934:	34210001 	ori	at,at,0x1
9d00b938:	0101082b 	sltu	at,t0,at
9d00b93c:	1020002f 	beqz	at,9d00b9fc <Lnan>
9d00b940:	00000000 	nop
9d00b944:	04a10016 	bgez	a1,9d00b9a0 <i59>
9d00b948:	00000000 	nop
9d00b94c:	04e00003 	bltz	a3,9d00b95c <i60>
9d00b950:	00000000 	nop
9d00b954:	10000026 	b	9d00b9f0 <L999>
9d00b958:	2402ffff 	li	v0,-1

9d00b95c <i60>:
9d00b95c:	0086502b 	sltu	t2,a0,a2
9d00b960:	00862023 	subu	a0,a0,a2
9d00b964:	00aa582b 	sltu	t3,a1,t2
9d00b968:	00aa2823 	subu	a1,a1,t2
9d00b96c:	00a7502b 	sltu	t2,a1,a3
9d00b970:	014b5025 	or	t2,t2,t3
9d00b974:	11400003 	beqz	t2,9d00b984 <i61>
9d00b978:	00a72823 	subu	a1,a1,a3
9d00b97c:	1000001c 	b	9d00b9f0 <L999>
9d00b980:	24020001 	li	v0,1

9d00b984 <i61>:
9d00b984:	00a45025 	or	t2,a1,a0
9d00b988:	11400003 	beqz	t2,9d00b998 <i62>
9d00b98c:	00000000 	nop
9d00b990:	10000017 	b	9d00b9f0 <L999>
9d00b994:	2402ffff 	li	v0,-1

9d00b998 <i62>:
9d00b998:	10000015 	b	9d00b9f0 <L999>
9d00b99c:	24020000 	li	v0,0

9d00b9a0 <i59>:
9d00b9a0:	04e10003 	bgez	a3,9d00b9b0 <i63>
9d00b9a4:	00000000 	nop
9d00b9a8:	10000011 	b	9d00b9f0 <L999>
9d00b9ac:	24020001 	li	v0,1

9d00b9b0 <i63>:
9d00b9b0:	0086502b 	sltu	t2,a0,a2
9d00b9b4:	00862023 	subu	a0,a0,a2
9d00b9b8:	00aa582b 	sltu	t3,a1,t2
9d00b9bc:	00aa2823 	subu	a1,a1,t2
9d00b9c0:	00a7502b 	sltu	t2,a1,a3
9d00b9c4:	014b5025 	or	t2,t2,t3
9d00b9c8:	11400003 	beqz	t2,9d00b9d8 <i64>
9d00b9cc:	00a72823 	subu	a1,a1,a3
9d00b9d0:	10000007 	b	9d00b9f0 <L999>
9d00b9d4:	2402ffff 	li	v0,-1

9d00b9d8 <i64>:
9d00b9d8:	00a45025 	or	t2,a1,a0
9d00b9dc:	11400003 	beqz	t2,9d00b9ec <i65>
9d00b9e0:	00000000 	nop
9d00b9e4:	10000002 	b	9d00b9f0 <L999>
9d00b9e8:	24020001 	li	v0,1

9d00b9ec <i65>:
9d00b9ec:	24020000 	li	v0,0

9d00b9f0 <L999>:
9d00b9f0:	03e00008 	jr	ra
9d00b9f4:	00000000 	nop
9d00b9f8:	00000000 	nop

9d00b9fc <Lnan>:
9d00b9fc:	1000fffc 	b	9d00b9f0 <L999>
9d00ba00:	00091025 	or	v0,zero,t1
9d00ba04:	00000000 	nop

Disassembly of section .text.logbl:

9d00ba08 <logbl>:
9d00ba08:	27bdffe0 	addiu	sp,sp,-32

9d00ba0c <.LCFI4>:
9d00ba0c:	afbf001c 	sw	ra,28(sp)
9d00ba10:	afb20018 	sw	s2,24(sp)
9d00ba14:	afb10014 	sw	s1,20(sp)
9d00ba18:	afb00010 	sw	s0,16(sp)
9d00ba1c:	afa40020 	sw	a0,32(sp)
9d00ba20:	afa50024 	sw	a1,36(sp)
9d00ba24:	87b00026 	lh	s0,38(sp)
9d00ba28:	32027ff0 	andi	v0,s0,0x7ff0
9d00ba2c:	24037ff0 	li	v1,32752
9d00ba30:	50430021 	beql	v0,v1,9d00bab8 <.LCFI4+0xac>
9d00ba34:	00809021 	move	s2,a0
9d00ba38:	14400012 	bnez	v0,9d00ba84 <.LCFI4+0x78>
9d00ba3c:	00003021 	move	a2,zero
9d00ba40:	0f402e37 	jal	9d00b8dc <.LFE0>
9d00ba44:	00003821 	move	a3,zero
9d00ba48:	1440002e 	bnez	v0,9d00bb04 <.LCFI4+0xf8>
9d00ba4c:	3c029d01 	lui	v0,0x9d01
9d00ba50:	24030021 	li	v1,33
9d00ba54:	3c02a000 	lui	v0,0xa000
9d00ba58:	ac430318 	sw	v1,792(v0)
9d00ba5c:	00002021 	move	a0,zero
9d00ba60:	3c05ffc0 	lui	a1,0xffc0
9d00ba64:	00801021 	move	v0,a0
9d00ba68:	00a01821 	move	v1,a1
9d00ba6c:	8fbf001c 	lw	ra,28(sp)
9d00ba70:	8fb20018 	lw	s2,24(sp)
9d00ba74:	8fb10014 	lw	s1,20(sp)
9d00ba78:	8fb00010 	lw	s0,16(sp)
9d00ba7c:	03e00008 	jr	ra
9d00ba80:	27bd0020 	addiu	sp,sp,32
9d00ba84:	00022103 	sra	a0,v0,0x4
9d00ba88:	0f4034e1 	jal	9d00d384 <__floatsidf>
9d00ba8c:	2484fc01 	addiu	a0,a0,-1023
9d00ba90:	00402021 	move	a0,v0
9d00ba94:	00602821 	move	a1,v1
9d00ba98:	00801021 	move	v0,a0
9d00ba9c:	00a01821 	move	v1,a1
9d00baa0:	8fbf001c 	lw	ra,28(sp)
9d00baa4:	8fb20018 	lw	s2,24(sp)
9d00baa8:	8fb10014 	lw	s1,20(sp)
9d00baac:	8fb00010 	lw	s0,16(sp)
9d00bab0:	03e00008 	jr	ra
9d00bab4:	27bd0020 	addiu	sp,sp,32
9d00bab8:	00a08821 	move	s1,a1
9d00babc:	00803021 	move	a2,a0
9d00bac0:	0f402e37 	jal	9d00b8dc <.LFE0>
9d00bac4:	00a03821 	move	a3,a1
9d00bac8:	02402021 	move	a0,s2
9d00bacc:	1440ffe5 	bnez	v0,9d00ba64 <.LCFI4+0x58>
9d00bad0:	02202821 	move	a1,s1
9d00bad4:	32107fff 	andi	s0,s0,0x7fff
9d00bad8:	a7b00026 	sh	s0,38(sp)
9d00badc:	8fa40020 	lw	a0,32(sp)
9d00bae0:	8fa50024 	lw	a1,36(sp)
9d00bae4:	00801021 	move	v0,a0
9d00bae8:	00a01821 	move	v1,a1
9d00baec:	8fbf001c 	lw	ra,28(sp)
9d00baf0:	8fb20018 	lw	s2,24(sp)
9d00baf4:	8fb10014 	lw	s1,20(sp)
9d00baf8:	8fb00010 	lw	s0,16(sp)
9d00bafc:	03e00008 	jr	ra
9d00bb00:	27bd0020 	addiu	sp,sp,32
9d00bb04:	8c44df20 	lw	a0,-8416(v0)
9d00bb08:	8c45df24 	lw	a1,-8412(v0)
9d00bb0c:	00801021 	move	v0,a0
9d00bb10:	00a01821 	move	v1,a1
9d00bb14:	8fbf001c 	lw	ra,28(sp)
9d00bb18:	8fb20018 	lw	s2,24(sp)
9d00bb1c:	8fb10014 	lw	s1,20(sp)
9d00bb20:	8fb00010 	lw	s0,16(sp)
9d00bb24:	03e00008 	jr	ra
9d00bb28:	27bd0020 	addiu	sp,sp,32

Disassembly of section .text.libm:

9d00bb2c <fpsin>:
9d00bb2c:	27bdfff0 	addiu	sp,sp,-16
9d00bb30:	afbf0000 	sw	ra,0(sp)
9d00bb34:	0f402f9b 	jal	9d00be6c <fpreduct>
9d00bb38:	afa40004 	sw	a0,4(sp)
9d00bb3c:	00185025 	or	t2,zero,t8
9d00bb40:	00034825 	or	t1,zero,v1
9d00bb44:	00024025 	or	t0,zero,v0
9d00bb48:	05210003 	bgez	t1,9d00bb58 <fpsin+0x2c>
9d00bb4c:	8fa40004 	lw	a0,4(sp)
9d00bb50:	10000039 	b	9d00bc38 <fpsin+0x10c>
9d00bb54:	00081025 	or	v0,zero,t0
9d00bb58:	000a6740 	sll	t4,t2,0x1d
9d00bb5c:	008c2026 	xor	a0,a0,t4
9d00bb60:	3c018000 	lui	at,0x8000
9d00bb64:	00812024 	and	a0,a0,at
9d00bb68:	01080019 	multu	t0,t0
9d00bb6c:	00003810 	mfhi	a3
9d00bb70:	2405007e 	li	a1,126
9d00bb74:	00a92823 	subu	a1,a1,t1
9d00bb78:	00052840 	sll	a1,a1,0x1
9d00bb7c:	2ca10020 	sltiu	at,a1,32
9d00bb80:	14200002 	bnez	at,9d00bb8c <fpsin+0x60>
9d00bb84:	00000000 	nop
9d00bb88:	34070000 	li	a3,0x0
9d00bb8c:	00a73806 	srlv	a3,a3,a1
9d00bb90:	254cffff 	addiu	t4,t2,-1
9d00bb94:	318c0002 	andi	t4,t4,0x2
9d00bb98:	11800013 	beqz	t4,9d00bbe8 <fpsin+0xbc>
9d00bb9c:	00000000 	nop
9d00bba0:	3c0ba000 	lui	t3,0xa000
9d00bba4:	256b10d4 	addiu	t3,t3,4308
9d00bba8:	8d650000 	lw	a1,0(t3)
9d00bbac:	256b0004 	addiu	t3,t3,4
9d00bbb0:	00e50019 	multu	a3,a1
9d00bbb4:	00002810 	mfhi	a1
9d00bbb8:	8d660000 	lw	a2,0(t3)
9d00bbbc:	256b0004 	addiu	t3,t3,4
9d00bbc0:	04c1fffb 	bgez	a2,9d00bbb0 <fpsin+0x84>
9d00bbc4:	00c52823 	subu	a1,a2,a1
9d00bbc8:	18a00003 	blez	a1,9d00bbd8 <fpsin+0xac>
9d00bbcc:	00000000 	nop
9d00bbd0:	00052840 	sll	a1,a1,0x1
9d00bbd4:	2529ffff 	addiu	t1,t1,-1
9d00bbd8:	25290001 	addiu	t1,t1,1
9d00bbdc:	01050019 	multu	t0,a1
9d00bbe0:	1000000c 	b	9d00bc14 <fpsin+0xe8>
9d00bbe4:	00004010 	mfhi	t0
9d00bbe8:	3c0ba000 	lui	t3,0xa000
9d00bbec:	256b10e4 	addiu	t3,t3,4324
9d00bbf0:	8d680000 	lw	t0,0(t3)
9d00bbf4:	256b0004 	addiu	t3,t3,4
9d00bbf8:	00e80019 	multu	a3,t0
9d00bbfc:	00004010 	mfhi	t0
9d00bc00:	8d660000 	lw	a2,0(t3)
9d00bc04:	256b0004 	addiu	t3,t3,4
9d00bc08:	04c1fffb 	bgez	a2,9d00bbf8 <fpsin+0xcc>
9d00bc0c:	00c84023 	subu	t0,a2,t0
9d00bc10:	2409007f 	li	t1,127
9d00bc14:	19000003 	blez	t0,9d00bc24 <fpsin+0xf8>
9d00bc18:	00000000 	nop
9d00bc1c:	00084040 	sll	t0,t0,0x1
9d00bc20:	2529ffff 	addiu	t1,t1,-1
9d00bc24:	00084040 	sll	t0,t0,0x1
9d00bc28:	00084242 	srl	t0,t0,0x9
9d00bc2c:	000965c0 	sll	t4,t1,0x17
9d00bc30:	010c4025 	or	t0,t0,t4
9d00bc34:	01041025 	or	v0,t0,a0
9d00bc38:	8fbf0000 	lw	ra,0(sp)
9d00bc3c:	03e00008 	jr	ra
9d00bc40:	27bd0010 	addiu	sp,sp,16
9d00bc44:	00000000 	nop

9d00bc48 <cosf>:
9d00bc48:	27bdfff0 	addiu	sp,sp,-16
9d00bc4c:	afbf0000 	sw	ra,0(sp)
9d00bc50:	0f402f9b 	jal	9d00be6c <fpreduct>
9d00bc54:	afa40004 	sw	a0,4(sp)
9d00bc58:	00185025 	or	t2,zero,t8
9d00bc5c:	00034825 	or	t1,zero,v1
9d00bc60:	00024025 	or	t0,zero,v0
9d00bc64:	05210003 	bgez	t1,9d00bc74 <cosf+0x2c>
9d00bc68:	8fa40004 	lw	a0,4(sp)
9d00bc6c:	10000038 	b	9d00bd50 <cosf+0x108>
9d00bc70:	00081025 	or	v0,zero,t0
9d00bc74:	25440002 	addiu	a0,t2,2
9d00bc78:	00042082 	srl	a0,a0,0x2
9d00bc7c:	000427c0 	sll	a0,a0,0x1f
9d00bc80:	01080019 	multu	t0,t0
9d00bc84:	00003810 	mfhi	a3
9d00bc88:	2405007e 	li	a1,126
9d00bc8c:	00a92823 	subu	a1,a1,t1
9d00bc90:	00052840 	sll	a1,a1,0x1
9d00bc94:	2ca10020 	sltiu	at,a1,32
9d00bc98:	14200002 	bnez	at,9d00bca4 <cosf+0x5c>
9d00bc9c:	00000000 	nop
9d00bca0:	34070000 	li	a3,0x0
9d00bca4:	00a73806 	srlv	a3,a3,a1
9d00bca8:	254cffff 	addiu	t4,t2,-1
9d00bcac:	318c0002 	andi	t4,t4,0x2
9d00bcb0:	1180000d 	beqz	t4,9d00bce8 <cosf+0xa0>
9d00bcb4:	00000000 	nop
9d00bcb8:	3c0ba000 	lui	t3,0xa000
9d00bcbc:	256b10e4 	addiu	t3,t3,4324
9d00bcc0:	8d680000 	lw	t0,0(t3)
9d00bcc4:	256b0004 	addiu	t3,t3,4
9d00bcc8:	00e80019 	multu	a3,t0
9d00bccc:	00004010 	mfhi	t0
9d00bcd0:	8d660000 	lw	a2,0(t3)
9d00bcd4:	256b0004 	addiu	t3,t3,4
9d00bcd8:	04c1fffb 	bgez	a2,9d00bcc8 <cosf+0x80>
9d00bcdc:	00c84023 	subu	t0,a2,t0
9d00bce0:	10000012 	b	9d00bd2c <cosf+0xe4>
9d00bce4:	2409007f 	li	t1,127
9d00bce8:	3c0ba000 	lui	t3,0xa000
9d00bcec:	256b10d4 	addiu	t3,t3,4308
9d00bcf0:	8d650000 	lw	a1,0(t3)
9d00bcf4:	256b0004 	addiu	t3,t3,4
9d00bcf8:	00e50019 	multu	a3,a1
9d00bcfc:	00002810 	mfhi	a1
9d00bd00:	8d660000 	lw	a2,0(t3)
9d00bd04:	256b0004 	addiu	t3,t3,4
9d00bd08:	04c1fffb 	bgez	a2,9d00bcf8 <cosf+0xb0>
9d00bd0c:	00c52823 	subu	a1,a2,a1
9d00bd10:	18a00003 	blez	a1,9d00bd20 <cosf+0xd8>
9d00bd14:	00000000 	nop
9d00bd18:	00052840 	sll	a1,a1,0x1
9d00bd1c:	2529ffff 	addiu	t1,t1,-1
9d00bd20:	25290001 	addiu	t1,t1,1
9d00bd24:	01050019 	multu	t0,a1
9d00bd28:	00004010 	mfhi	t0
9d00bd2c:	19000003 	blez	t0,9d00bd3c <cosf+0xf4>
9d00bd30:	00000000 	nop
9d00bd34:	00084040 	sll	t0,t0,0x1
9d00bd38:	2529ffff 	addiu	t1,t1,-1
9d00bd3c:	00084040 	sll	t0,t0,0x1
9d00bd40:	00084242 	srl	t0,t0,0x9
9d00bd44:	000965c0 	sll	t4,t1,0x17
9d00bd48:	010c4025 	or	t0,t0,t4
9d00bd4c:	01041025 	or	v0,t0,a0
9d00bd50:	8fbf0000 	lw	ra,0(sp)
9d00bd54:	03e00008 	jr	ra
9d00bd58:	27bd0010 	addiu	sp,sp,16
9d00bd5c:	00000000 	nop

Disassembly of section .text.putget.2780:

9d00bd60 <putget.2780>:
9d00bd60:	27bdffe0 	addiu	sp,sp,-32
9d00bd64:	afbf001c 	sw	ra,28(sp)
9d00bd68:	afb10018 	sw	s1,24(sp)
9d00bd6c:	afb00014 	sw	s0,20(sp)
9d00bd70:	01e08021 	move	s0,t7
9d00bd74:	8de50014 	lw	a1,20(t7)
9d00bd78:	8de20010 	lw	v0,16(t7)
9d00bd7c:	10a20019 	beq	a1,v0,9d00bde4 <putget.2780+0x84>
9d00bd80:	00808821 	move	s1,a0
9d00bd84:	8de20008 	lw	v0,8(t7)
9d00bd88:	24a30001 	addiu	v1,a1,1
9d00bd8c:	00452821 	addu	a1,v0,a1
9d00bd90:	ae030014 	sw	v1,20(s0)
9d00bd94:	1220000d 	beqz	s1,9d00bdcc <putget.2780+0x6c>
9d00bd98:	a0b10000 	sb	s1,0(a1)
9d00bd9c:	8e020004 	lw	v0,4(s0)
9d00bda0:	1040000a 	beqz	v0,9d00bdcc <putget.2780+0x6c>
9d00bda4:	2411ffff 	li	s1,-1
9d00bda8:	0f40359f 	jal	9d00d67c <.LFE0>
9d00bdac:	8e040000 	lw	a0,0(s0)
9d00bdb0:	00408821 	move	s1,v0
9d00bdb4:	2402ffff 	li	v0,-1
9d00bdb8:	12220005 	beq	s1,v0,9d00bdd0 <putget.2780+0x70>
9d00bdbc:	02201021 	move	v0,s1
9d00bdc0:	8e020004 	lw	v0,4(s0)
9d00bdc4:	2442ffff 	addiu	v0,v0,-1
9d00bdc8:	ae020004 	sw	v0,4(s0)
9d00bdcc:	02201021 	move	v0,s1
9d00bdd0:	8fbf001c 	lw	ra,28(sp)
9d00bdd4:	8fb10018 	lw	s1,24(sp)
9d00bdd8:	8fb00014 	lw	s0,20(sp)
9d00bddc:	03e00008 	jr	ra
9d00bde0:	27bd0020 	addiu	sp,sp,32
9d00bde4:	8de4000c 	lw	a0,12(t7)
9d00bde8:	24a50080 	addiu	a1,a1,128
9d00bdec:	10800007 	beqz	a0,9d00be0c <putget.2780+0xac>
9d00bdf0:	ade50010 	sw	a1,16(t7)
9d00bdf4:	0f4015ad 	jal	9d0056b4 <realloc>
9d00bdf8:	00000000 	nop
9d00bdfc:	ae02000c 	sw	v0,12(s0)
9d00be00:	8e050014 	lw	a1,20(s0)
9d00be04:	0b402f62 	j	9d00bd88 <putget.2780+0x28>
9d00be08:	ae020008 	sw	v0,8(s0)
9d00be0c:	0f40100e 	jal	9d004038 <malloc>
9d00be10:	00a02021 	move	a0,a1
9d00be14:	8e030008 	lw	v1,8(s0)
9d00be18:	ae02000c 	sw	v0,12(s0)
9d00be1c:	24680080 	addiu	t0,v1,128
9d00be20:	88670003 	lwl	a3,3(v1)
9d00be24:	88660007 	lwl	a2,7(v1)
9d00be28:	8865000b 	lwl	a1,11(v1)
9d00be2c:	8864000f 	lwl	a0,15(v1)
9d00be30:	98670000 	lwr	a3,0(v1)
9d00be34:	98660004 	lwr	a2,4(v1)
9d00be38:	98650008 	lwr	a1,8(v1)
9d00be3c:	9864000c 	lwr	a0,12(v1)
9d00be40:	24630010 	addiu	v1,v1,16
9d00be44:	ac470000 	sw	a3,0(v0)
9d00be48:	ac460004 	sw	a2,4(v0)
9d00be4c:	ac450008 	sw	a1,8(v0)
9d00be50:	ac44000c 	sw	a0,12(v0)
9d00be54:	1468fff2 	bne	v1,t0,9d00be20 <putget.2780+0xc0>
9d00be58:	24420010 	addiu	v0,v0,16
9d00be5c:	8e02000c 	lw	v0,12(s0)
9d00be60:	8e050014 	lw	a1,20(s0)
9d00be64:	0b402f62 	j	9d00bd88 <putget.2780+0x28>
9d00be68:	ae020008 	sw	v0,8(s0)

Disassembly of section .text.libm:

9d00be6c <fpreduct>:
9d00be6c:	000435c2 30c600ff 00042a00 3c018000     .5.....0.*.....<
9d00be7c:	00a12825 24070000 24c8ff82 05000032     %(.....$...$2...
9d00be8c:	00000000 29010020 10200034 00000000     .... ..)4. .....
9d00be9c:	00052882 24090000 3c0b10b4 356b611a     .(.....$...<.ak5
9d00beac:	3c0a6487 354aed51                       .d.<Q.J5

9d00beb4 <b1>:
9d00beb4:	00073840 	sll	a3,a3,0x1
9d00beb8:	24e70001 	addiu	a3,a3,1
9d00bebc:	0120602a 	slt	t4,t1,zero
9d00bec0:	01294821 	addu	t1,t1,t1
9d00bec4:	00a52821 	addu	a1,a1,a1
9d00bec8:	00ac2821 	addu	a1,a1,t4
9d00becc:	012b602b 	sltu	t4,t1,t3
9d00bed0:	012b4823 	subu	t1,t1,t3
9d00bed4:	00ac682b 	sltu	t5,a1,t4
9d00bed8:	00ac2823 	subu	a1,a1,t4
9d00bedc:	00aa602b 	sltu	t4,a1,t2
9d00bee0:	018d6025 	or	t4,t4,t5
9d00bee4:	11800006 	beqz	t4,9d00bf00 <i2>
9d00bee8:	00aa2823 	subu	a1,a1,t2
9d00beec:	24e7ffff 	addiu	a3,a3,-1
9d00bef0:	012b4821 	addu	t1,t1,t3
9d00bef4:	012b602b 	sltu	t4,t1,t3
9d00bef8:	00aa2821 	addu	a1,a1,t2
9d00befc:	00ac2821 	addu	a1,a1,t4

9d00bf00 <i2>:
9d00bf00:	2508ffff 	addiu	t0,t0,-1
9d00bf04:	0501ffeb 	bgez	t0,9d00beb4 <b1>
9d00bf08:	00000000 	nop
9d00bf0c:	30ec0001 	andi	t4,a3,0x1
9d00bf10:	11800007 	beqz	t4,9d00bf30 <i3>
9d00bf14:	00000000 	nop
9d00bf18:	0169602b 	sltu	t4,t3,t1
9d00bf1c:	01695823 	subu	t3,t3,t1
9d00bf20:	014c5023 	subu	t2,t2,t4
9d00bf24:	01455023 	subu	t2,t2,a1
9d00bf28:	000b4825 	or	t1,zero,t3
9d00bf2c:	000a2825 	or	a1,zero,t2

9d00bf30 <i3>:
9d00bf30:	2406007f 	li	a2,127

9d00bf34 <b4>:
9d00bf34:	04a00007 	bltz	a1,9d00bf54 <Aret>
9d00bf38:	00000000 	nop
9d00bf3c:	0120602a 	slt	t4,t1,zero
9d00bf40:	01294821 	addu	t1,t1,t1
9d00bf44:	00a52821 	addu	a1,a1,a1
9d00bf48:	00ac2821 	addu	a1,a1,t4
9d00bf4c:	1000fff9 	b	9d00bf34 <b4>
9d00bf50:	24c6ffff 	addiu	a2,a2,-1

9d00bf54 <Aret>:
9d00bf54:	00051025 	or	v0,zero,a1
9d00bf58:	00061825 	or	v1,zero,a2
9d00bf5c:	0007c025 	or	t8,zero,a3

9d00bf60 <A999>:
9d00bf60:	03e00008 	jr	ra
9d00bf64:	00000000 	nop

9d00bf68 <Anan>:
9d00bf68:	2406ffff 	li	a2,-1
9d00bf6c:	1000fff9 	b	9d00bf54 <Aret>
9d00bf70:	3c05ffc0 	lui	a1,0xffc0
9d00bf74:	00000000 	nop

Disassembly of section .rodata:

9d00bf78 <_ctype>:
9d00bf78:	20202000 20202020 28282020 20282828     .         ((((( 
9d00bf88:	20202020 20202020 20202020 20202020                     
9d00bf98:	10108020 10101010 10101010 10101010      ...............
9d00bfa8:	04040410 04040404 10040404 10101010     ................
9d00bfb8:	41411010 41414141 01010101 01010101     ..AAAAAA........
9d00bfc8:	01010101 01010101 01010101 10101010     ................
9d00bfd8:	42421010 42424242 02020202 02020202     ..BBBBBB........
9d00bfe8:	02020202 02020202 02020202 10101010     ................
9d00bff8:	00000020 00000000 00000000 00000000      ...............
	...

Disassembly of section .text.malloc_trim:

9d00c07c <malloc_trim>:
9d00c07c:	27bdffe0 	addiu	sp,sp,-32
9d00c080:	afbf001c 	sw	ra,28(sp)
9d00c084:	afb20018 	sw	s2,24(sp)
9d00c088:	afb10014 	sw	s1,20(sp)
9d00c08c:	afb00010 	sw	s0,16(sp)
9d00c090:	0f403865 	jal	9d00e194 <getpagesize>
9d00c094:	00809021 	move	s2,a0
9d00c098:	3c10a000 	lui	s0,0xa000
9d00c09c:	2610038c 	addiu	s0,s0,908
9d00c0a0:	8e030008 	lw	v1,8(s0)
9d00c0a4:	8c710004 	lw	s1,4(v1)
9d00c0a8:	7c110804 	ins	s1,zero,0x0,0x2
9d00c0ac:	02322023 	subu	a0,s1,s2
9d00c0b0:	2484ffef 	addiu	a0,a0,-17
9d00c0b4:	00822021 	addu	a0,a0,v0
9d00c0b8:	0082001b 	divu	zero,a0,v0
9d00c0bc:	004001f4 	teq	v0,zero,0x7
9d00c0c0:	00009012 	mflo	s2
9d00c0c4:	2652ffff 	addiu	s2,s2,-1
9d00c0c8:	72429002 	mul	s2,s2,v0
9d00c0cc:	0242102a 	slt	v0,s2,v0
9d00c0d0:	10400008 	beqz	v0,9d00c0f4 <malloc_trim+0x78>
9d00c0d4:	00000000 	nop
9d00c0d8:	00001021 	move	v0,zero
9d00c0dc:	8fbf001c 	lw	ra,28(sp)
9d00c0e0:	8fb20018 	lw	s2,24(sp)
9d00c0e4:	8fb10014 	lw	s1,20(sp)
9d00c0e8:	8fb00010 	lw	s0,16(sp)
9d00c0ec:	03e00008 	jr	ra
9d00c0f0:	27bd0020 	addiu	sp,sp,32
9d00c0f4:	0f403643 	jal	9d00d90c <sbrk>
9d00c0f8:	00002021 	move	a0,zero
9d00c0fc:	8e030008 	lw	v1,8(s0)
9d00c100:	00711821 	addu	v1,v1,s1
9d00c104:	1443fff5 	bne	v0,v1,9d00c0dc <malloc_trim+0x60>
9d00c108:	00001021 	move	v0,zero
9d00c10c:	0f403643 	jal	9d00d90c <sbrk>
9d00c110:	00122023 	negu	a0,s2
9d00c114:	2403ffff 	li	v1,-1
9d00c118:	1043000a 	beq	v0,v1,9d00c144 <malloc_trim+0xc8>
9d00c11c:	3c02a000 	lui	v0,0xa000
9d00c120:	8c441070 	lw	a0,4208(v0)
9d00c124:	8e030008 	lw	v1,8(s0)
9d00c128:	02328823 	subu	s1,s1,s2
9d00c12c:	36310001 	ori	s1,s1,0x1
9d00c130:	00929023 	subu	s2,a0,s2
9d00c134:	ac710004 	sw	s1,4(v1)
9d00c138:	ac521070 	sw	s2,4208(v0)
9d00c13c:	0b403037 	j	9d00c0dc <malloc_trim+0x60>
9d00c140:	24020001 	li	v0,1
9d00c144:	0f403643 	jal	9d00d90c <sbrk>
9d00c148:	00002021 	move	a0,zero
9d00c14c:	8e030008 	lw	v1,8(s0)
9d00c150:	00432023 	subu	a0,v0,v1
9d00c154:	28850010 	slti	a1,a0,16
9d00c158:	54a0ffe0 	bnezl	a1,9d00c0dc <malloc_trim+0x60>
9d00c15c:	00001021 	move	v0,zero
9d00c160:	3c05a000 	lui	a1,0xa000
9d00c164:	8ca50384 	lw	a1,900(a1)
9d00c168:	34840001 	ori	a0,a0,0x1
9d00c16c:	00451023 	subu	v0,v0,a1
9d00c170:	3c05a000 	lui	a1,0xa000
9d00c174:	aca21070 	sw	v0,4208(a1)
9d00c178:	0b403036 	j	9d00c0d8 <malloc_trim+0x5c>
9d00c17c:	ac640004 	sw	a0,4(v1)

Disassembly of section .text.__ldexpf:

9d00c180 <__ldexpf>:
9d00c180:	7c863dc0 	ext	a2,a0,0x17,0x8
9d00c184:	24c8ffff 	addiu	t0,a2,-1
9d00c188:	2d0800fe 	sltiu	t0,t0,254
9d00c18c:	00044fc2 	srl	t1,a0,0x1f
9d00c190:	1100002b 	beqz	t0,9d00c240 <__ldexpf+0xc0>
9d00c194:	7c87b000 	ext	a3,a0,0x0,0x17
9d00c198:	24c6ff81 	addiu	a2,a2,-127
9d00c19c:	3c020080 	lui	v0,0x80
9d00c1a0:	00e21025 	or	v0,a3,v0
9d00c1a4:	00c53021 	addu	a2,a2,a1
9d00c1a8:	24c3007f 	addiu	v1,a2,127
9d00c1ac:	18600018 	blez	v1,9d00c210 <__ldexpf+0x90>
9d00c1b0:	000210c0 	sll	v0,v0,0x3
9d00c1b4:	30440007 	andi	a0,v0,0x7
9d00c1b8:	1480000d 	bnez	a0,9d00c1f0 <__ldexpf+0x70>
9d00c1bc:	7c4400c0 	ext	a0,v0,0x3,0x1
9d00c1c0:	286400ff 	slti	a0,v1,255
9d00c1c4:	10800024 	beqz	a0,9d00c258 <__ldexpf+0xd8>
9d00c1c8:	000210c2 	srl	v0,v0,0x3
9d00c1cc:	7c4405c0 	ext	a0,v0,0x17,0x1
9d00c1d0:	50800002 	beqzl	a0,9d00c1dc <__ldexpf+0x5c>
9d00c1d4:	00001821 	move	v1,zero
9d00c1d8:	7c42b000 	ext	v0,v0,0x0,0x17
9d00c1dc:	00094a00 	sll	t1,t1,0x8
9d00c1e0:	00691825 	or	v1,v1,t1
9d00c1e4:	00031dc0 	sll	v1,v1,0x17
9d00c1e8:	03e00008 	jr	ra
9d00c1ec:	00621025 	or	v0,v1,v0
9d00c1f0:	24420003 	addiu	v0,v0,3
9d00c1f4:	00441021 	addu	v0,v0,a0
9d00c1f8:	000226c2 	srl	a0,v0,0x1b
9d00c1fc:	1080fff1 	beqz	a0,9d00c1c4 <__ldexpf+0x44>
9d00c200:	286400ff 	slti	a0,v1,255
9d00c204:	00021042 	srl	v0,v0,0x1
9d00c208:	0b403070 	j	9d00c1c0 <__ldexpf+0x40>
9d00c20c:	24630001 	addiu	v1,v1,1
9d00c210:	2403ff82 	li	v1,-126
9d00c214:	00661823 	subu	v1,v1,a2
9d00c218:	2864001b 	slti	a0,v1,27
9d00c21c:	50800012 	beqzl	a0,9d00c268 <__ldexpf+0xe8>
9d00c220:	00001021 	move	v0,zero
9d00c224:	24c4009e 	addiu	a0,a2,158
9d00c228:	00822004 	sllv	a0,v0,a0
9d00c22c:	00621006 	srlv	v0,v0,v1
9d00c230:	0004182b 	sltu	v1,zero,a0
9d00c234:	00621025 	or	v0,v1,v0
9d00c238:	0b40306d 	j	9d00c1b4 <__ldexpf+0x34>
9d00c23c:	24030001 	li	v1,1
9d00c240:	14c00003 	bnez	a2,9d00c250 <__ldexpf+0xd0>
9d00c244:	00000000 	nop
9d00c248:	14e00009 	bnez	a3,9d00c270 <__ldexpf+0xf0>
9d00c24c:	70e31820 	clz	v1,a3
9d00c250:	03e00008 	jr	ra
9d00c254:	00801021 	move	v0,a0
9d00c258:	00091200 	sll	v0,t1,0x8
9d00c25c:	344200ff 	ori	v0,v0,0xff
9d00c260:	03e00008 	jr	ra
9d00c264:	000215c0 	sll	v0,v0,0x17
9d00c268:	0b403077 	j	9d00c1dc <__ldexpf+0x5c>
9d00c26c:	00001821 	move	v1,zero
9d00c270:	2462fff8 	addiu	v0,v1,-8
9d00c274:	00471004 	sllv	v0,a3,v0
9d00c278:	2406ff8a 	li	a2,-118
9d00c27c:	0b403069 	j	9d00c1a4 <__ldexpf+0x24>
9d00c280:	00c33023 	subu	a2,a2,v1

Disassembly of section .text.dptofp:

9d00c284 <__truncdfsf2>:
9d00c284:	00053ac0 00045d42 00eb3825 000432c0     .:..B]..%8...2..
9d00c294:	3c018000 00e13825 3c018000 00a14824     ...<%8.....<$H..
9d00c2a4:	00054040 00084542 2508fc80 250bffff     @@..BE.....%...%
9d00c2b4:	2d6100fe 10200012 00000000              ..a-.. .....

9d00c2c0 <Hlab1>:
9d00c2c0:	10c00002 	beqz	a2,9d00c2cc <i45>
9d00c2c4:	00000000 	nop
9d00c2c8:	34e70001 	ori	a3,a3,0x1

9d00c2cc <i45>:
9d00c2cc:	24e70080 	addiu	a3,a3,128
9d00c2d0:	2ceb0080 	sltiu	t3,a3,128
9d00c2d4:	010b4021 	addu	t0,t0,t3
9d00c2d8:	00075a02 	srl	t3,a3,0x8
9d00c2dc:	316b0001 	andi	t3,t3,0x1
9d00c2e0:	00eb3823 	subu	a3,a3,t3
9d00c2e4:	00073840 	sll	a3,a3,0x1
9d00c2e8:	00073a42 	srl	a3,a3,0x9
9d00c2ec:	00085dc0 	sll	t3,t0,0x17
9d00c2f0:	00eb3825 	or	a3,a3,t3
9d00c2f4:	00e91025 	or	v0,a3,t1

9d00c2f8 <H999>:
9d00c2f8:	03e00008 	jr	ra
9d00c2fc:	00000000 	nop
9d00c300:	00000000 	nop

9d00c304 <Hspec>:
9d00c304:	2401047f 	li	at,1151
9d00c308:	15010007 	bne	t0,at,9d00c328 <i46>
9d00c30c:	00000000 	nop
9d00c310:	00075840 	sll	t3,a3,0x1
9d00c314:	01665825 	or	t3,t3,a2
9d00c318:	11600003 	beqz	t3,9d00c328 <i46>
9d00c31c:	00000000 	nop
9d00c320:	1000fff5 	b	9d00c2f8 <H999>
9d00c324:	3c02ffc0 	lui	v0,0xffc0

9d00c328 <i46>:
9d00c328:	290100ff 	slti	at,t0,255
9d00c32c:	14200004 	bnez	at,9d00c340 <i48>
9d00c330:	00000000 	nop
9d00c334:	3c017f80 	lui	at,0x7f80
9d00c338:	1000ffef 	b	9d00c2f8 <H999>
9d00c33c:	01211025 	or	v0,t1,at

9d00c340 <i48>:
9d00c340:	240a0001 	li	t2,1
9d00c344:	01485023 	subu	t2,t2,t0
9d00c348:	2d410020 	sltiu	at,t2,32
9d00c34c:	14200003 	bnez	at,9d00c35c <i49>
9d00c350:	00000000 	nop
9d00c354:	1000ffe8 	b	9d00c2f8 <H999>
9d00c358:	00091025 	or	v0,zero,t1

9d00c35c <i49>:
9d00c35c:	240c0020 	li	t4,32
9d00c360:	018a6023 	subu	t4,t4,t2
9d00c364:	01875804 	sllv	t3,a3,t4
9d00c368:	00cb3025 	or	a2,a2,t3
9d00c36c:	01473806 	srlv	a3,a3,t2
9d00c370:	24080000 	li	t0,0
9d00c374:	3c018000 	lui	at,0x8000
9d00c378:	1000ffd1 	b	9d00c2c0 <Hlab1>
9d00c37c:	00e13825 	or	a3,a3,at
9d00c380:	00000000 	nop

Disassembly of section .text._flsbuf_simple:

9d00c384 <_flsbuf_simple>:
9d00c384:	27bdffd8 	addiu	sp,sp,-40
9d00c388:	afbf0024 	sw	ra,36(sp)
9d00c38c:	afb10020 	sw	s1,32(sp)
9d00c390:	afb0001c 	sw	s0,28(sp)
9d00c394:	00a08021 	move	s0,a1
9d00c398:	8ca2000c 	lw	v0,12(a1)
9d00c39c:	1040002d 	beqz	v0,9d00c454 <_flsbuf_simple+0xd0>
9d00c3a0:	00808821 	move	s1,a0
9d00c3a4:	8ca20000 	lw	v0,0(a1)
9d00c3a8:	24420001 	addiu	v0,v0,1
9d00c3ac:	2403ffff 	li	v1,-1
9d00c3b0:	1043001e 	beq	v0,v1,9d00c42c <_flsbuf_simple+0xa8>
9d00c3b4:	aca20000 	sw	v0,0(a1)
9d00c3b8:	0f403463 	jal	9d00d18c <_fflush_simple>
9d00c3bc:	02002021 	move	a0,s0
9d00c3c0:	8e040000 	lw	a0,0(s0)
9d00c3c4:	8e020004 	lw	v0,4(s0)
9d00c3c8:	2484ffff 	addiu	a0,a0,-1
9d00c3cc:	24430001 	addiu	v1,v0,1
9d00c3d0:	ae040000 	sw	a0,0(s0)
9d00c3d4:	ae030004 	sw	v1,4(s0)
9d00c3d8:	a0510000 	sb	s1,0(v0)
9d00c3dc:	2402000a 	li	v0,10
9d00c3e0:	52220007 	beql	s1,v0,9d00c400 <_flsbuf_simple+0x7c>
9d00c3e4:	96020010 	lhu	v0,16(s0)
9d00c3e8:	02201021 	move	v0,s1
9d00c3ec:	8fbf0024 	lw	ra,36(sp)
9d00c3f0:	8fb10020 	lw	s1,32(sp)
9d00c3f4:	8fb0001c 	lw	s0,28(sp)
9d00c3f8:	03e00008 	jr	ra
9d00c3fc:	27bd0028 	addiu	sp,sp,40
9d00c400:	30420008 	andi	v0,v0,0x8
9d00c404:	1040fff9 	beqz	v0,9d00c3ec <_flsbuf_simple+0x68>
9d00c408:	02201021 	move	v0,s1
9d00c40c:	0f403463 	jal	9d00d18c <_fflush_simple>
9d00c410:	02002021 	move	a0,s0
9d00c414:	02201021 	move	v0,s1
9d00c418:	8fbf0024 	lw	ra,36(sp)
9d00c41c:	8fb10020 	lw	s1,32(sp)
9d00c420:	8fb0001c 	lw	s0,28(sp)
9d00c424:	03e00008 	jr	ra
9d00c428:	27bd0028 	addiu	sp,sp,40
9d00c42c:	8ca20008 	lw	v0,8(a1)
9d00c430:	1440ffe1 	bnez	v0,9d00c3b8 <_flsbuf_simple+0x34>
9d00c434:	00000000 	nop
9d00c438:	94a20010 	lhu	v0,16(a1)
9d00c43c:	aca00004 	sw	zero,4(a1)
9d00c440:	aca0000c 	sw	zero,12(a1)
9d00c444:	34420010 	ori	v0,v0,0x10
9d00c448:	aca00000 	sw	zero,0(a1)
9d00c44c:	0b4030ee 	j	9d00c3b8 <_flsbuf_simple+0x34>
9d00c450:	a4a20010 	sh	v0,16(a1)
9d00c454:	27a40010 	addiu	a0,sp,16
9d00c458:	24050001 	li	a1,1
9d00c45c:	0f403657 	jal	9d00d95c <.LFE4>
9d00c460:	a3b10010 	sb	s1,16(sp)
9d00c464:	ae000000 	sw	zero,0(s0)
9d00c468:	02201021 	move	v0,s1
9d00c46c:	8fbf0024 	lw	ra,36(sp)
9d00c470:	8fb10020 	lw	s1,32(sp)
9d00c474:	8fb0001c 	lw	s0,28(sp)
9d00c478:	03e00008 	jr	ra
9d00c47c:	27bd0028 	addiu	sp,sp,40

Disassembly of section .text.libm.fpexsqrt:

9d00c480 <fpexsqrt>:
9d00c480:	1080003a 00000000 30ad0001 11a0000b     :..........0....
9d00c490:	00000000 3c0967f2 35291800 00890019     .....g.<..)5....
9d00c4a0:	00004810 3c014d13 34214800 01214821     .H...M.<.H!4!H!.
9d00c4b0:	00042042 10000007 24a50001              B .........$

9d00c4bc <i1>:
9d00c4bc:	3c099300 	lui	t1,0x9300
9d00c4c0:	00890019 	multu	a0,t1
9d00c4c4:	00004810 	mfhi	t1
9d00c4c8:	3c016cff 	lui	at,0x6cff
9d00c4cc:	3421fc00 	ori	at,at,0xfc00
9d00c4d0:	01214821 	addu	t1,t1,at

9d00c4d4 <e1>:
9d00c4d4:	00053843 	sra	a3,a1,0x1
9d00c4d8:	24e7003f 	addiu	a3,a3,63
9d00c4dc:	00094bc2 	srl	t1,t1,0xf
9d00c4e0:	012001f4 	teq	t1,zero,0x7
9d00c4e4:	0089001b 	divu	zero,a0,t1
9d00c4e8:	00005012 	mflo	t2
9d00c4ec:	00094b80 	sll	t1,t1,0xe
9d00c4f0:	000a5400 	sll	t2,t2,0x10
9d00c4f4:	012a4821 	addu	t1,t1,t2
9d00c4f8:	012a682b 	sltu	t5,t1,t2
9d00c4fc:	012d4823 	subu	t1,t1,t5
9d00c500:	3c0a8000 	lui	t2,0x8000
9d00c504:	00095c02 	srl	t3,t1,0x10
9d00c508:	016001f4 	teq	t3,zero,0x7
9d00c50c:	014b001b 	divu	zero,t2,t3
9d00c510:	00005012 	mflo	t2
9d00c514:	000a5400 	sll	t2,t2,0x10
9d00c518:	15400002 	bnez	t2,9d00c524 <i2>
9d00c51c:	00000000 	nop
9d00c520:	240affff 	li	t2,-1

9d00c524 <i2>:
9d00c524:	012a0019 	multu	t1,t2
9d00c528:	00005810 	mfhi	t3
9d00c52c:	000b5823 	negu	t3,t3
9d00c530:	014b0019 	multu	t2,t3
9d00c534:	00005010 	mfhi	t2
9d00c538:	01440019 	multu	t2,a0
9d00c53c:	00005010 	mfhi	t2
9d00c540:	000a5040 	sll	t2,t2,0x1
9d00c544:	00094842 	srl	t1,t1,0x1
9d00c548:	012a4821 	addu	t1,t1,t2
9d00c54c:	012a682b 	sltu	t5,t1,t2
9d00c550:	012d4823 	subu	t1,t1,t5
9d00c554:	00093025 	or	a2,zero,t1

9d00c558 <Aret>:
9d00c558:	00061025 	or	v0,zero,a2
9d00c55c:	00071825 	or	v1,zero,a3
9d00c560:	0008c025 	or	t8,zero,t0

9d00c564 <A999>:
9d00c564:	03e00008 	jr	ra
9d00c568:	00000000 	nop

9d00c56c <Azer>:
9d00c56c:	24070000 	li	a3,0
9d00c570:	1000fff9 	b	9d00c558 <Aret>
9d00c574:	00073025 	or	a2,zero,a3
9d00c578:	00000000 	nop

Disassembly of section .text.strchr:

9d00c57c <strchr>:
9d00c57c:	30820003 	andi	v0,a0,0x3
9d00c580:	14400034 	bnez	v0,9d00c654 <strchr+0xd8>
9d00c584:	30a600ff 	andi	a2,a1,0xff
9d00c588:	30a500ff 	andi	a1,a1,0xff
9d00c58c:	00054a00 	sll	t1,a1,0x8
9d00c590:	8c820000 	lw	v0,0(a0)
9d00c594:	01252825 	or	a1,t1,a1
9d00c598:	00054c00 	sll	t1,a1,0x10
9d00c59c:	01254825 	or	t1,t1,a1
9d00c5a0:	01221826 	xor	v1,t1,v0
9d00c5a4:	3c05fefe 	lui	a1,0xfefe
9d00c5a8:	34a5feff 	ori	a1,a1,0xfeff
9d00c5ac:	00034027 	nor	t0,zero,v1
9d00c5b0:	00651821 	addu	v1,v1,a1
9d00c5b4:	00023827 	nor	a3,zero,v0
9d00c5b8:	00451021 	addu	v0,v0,a1
9d00c5bc:	01031824 	and	v1,t0,v1
9d00c5c0:	00e21024 	and	v0,a3,v0
9d00c5c4:	00621025 	or	v0,v1,v0
9d00c5c8:	3c0a8080 	lui	t2,0x8080
9d00c5cc:	354a8080 	ori	t2,t2,0x8080
9d00c5d0:	004a1024 	and	v0,v0,t2
9d00c5d4:	54400020 	bnezl	v0,9d00c658 <strchr+0xdc>
9d00c5d8:	90820000 	lbu	v0,0(a0)
9d00c5dc:	24840004 	addiu	a0,a0,4
9d00c5e0:	8c820000 	lw	v0,0(a0)
9d00c5e4:	01221826 	xor	v1,t1,v0
9d00c5e8:	00034027 	nor	t0,zero,v1
9d00c5ec:	00651821 	addu	v1,v1,a1
9d00c5f0:	00023827 	nor	a3,zero,v0
9d00c5f4:	00451021 	addu	v0,v0,a1
9d00c5f8:	01031824 	and	v1,t0,v1
9d00c5fc:	00e21024 	and	v0,a3,v0
9d00c600:	00621025 	or	v0,v1,v0
9d00c604:	004a1024 	and	v0,v0,t2
9d00c608:	54400013 	bnezl	v0,9d00c658 <strchr+0xdc>
9d00c60c:	90820000 	lbu	v0,0(a0)
9d00c610:	24840004 	addiu	a0,a0,4
9d00c614:	8c820000 	lw	v0,0(a0)
9d00c618:	01221826 	xor	v1,t1,v0
9d00c61c:	00034027 	nor	t0,zero,v1
9d00c620:	00651821 	addu	v1,v1,a1
9d00c624:	00023827 	nor	a3,zero,v0
9d00c628:	00451021 	addu	v0,v0,a1
9d00c62c:	01031824 	and	v1,t0,v1
9d00c630:	00e21024 	and	v0,a3,v0
9d00c634:	00621025 	or	v0,v1,v0
9d00c638:	004a1024 	and	v0,v0,t2
9d00c63c:	5040ffe8 	beqzl	v0,9d00c5e0 <strchr+0x64>
9d00c640:	24840004 	addiu	a0,a0,4
9d00c644:	0b403196 	j	9d00c658 <strchr+0xdc>
9d00c648:	90820000 	lbu	v0,0(a0)
9d00c64c:	10400006 	beqz	v0,9d00c668 <strchr+0xec>
9d00c650:	24840001 	addiu	a0,a0,1
9d00c654:	90820000 	lbu	v0,0(a0)
9d00c658:	1446fffc 	bne	v0,a2,9d00c64c <strchr+0xd0>
9d00c65c:	00000000 	nop
9d00c660:	03e00008 	jr	ra
9d00c664:	00801021 	move	v0,a0
9d00c668:	03e00008 	jr	ra
9d00c66c:	00001021 	move	v0,zero

Disassembly of section .text._mon_getc:

9d00c670 <_mon_getc>:
9d00c670:	27bdffe8 	addiu	sp,sp,-24

9d00c674 <.LCFI0>:
9d00c674:	afbf0014 	sw	ra,20(sp)
9d00c678:	3c02a000 	lui	v0,0xa000
9d00c67c:	8c420084 	lw	v0,132(v0)
9d00c680:	1440000a 	bnez	v0,9d00c6ac <.LCFI0+0x38>
9d00c684:	24030002 	li	v1,2
9d00c688:	3c020000 	lui	v0,0x0
9d00c68c:	24420000 	addiu	v0,v0,0
9d00c690:	10400029 	beqz	v0,9d00c738 <.LCFI0+0xc4>
9d00c694:	3c020000 	lui	v0,0x0
9d00c698:	0c000000 	jal	90000000 <_bmxdudba_address+0x8ffe0000>
9d00c69c:	00000000 	nop
9d00c6a0:	8fbf0014 	lw	ra,20(sp)
9d00c6a4:	03e00008 	jr	ra
9d00c6a8:	27bd0018 	addiu	sp,sp,24
9d00c6ac:	1043001c 	beq	v0,v1,9d00c720 <.LCFI0+0xac>
9d00c6b0:	3c02bf80 	lui	v0,0xbf80
9d00c6b4:	3c02bf80 	lui	v0,0xbf80
9d00c6b8:	8c426000 	lw	v0,24576(v0)
9d00c6bc:	3c05bf80 	lui	a1,0xbf80
9d00c6c0:	24a56030 	addiu	a1,a1,24624
9d00c6c4:	3c04bf80 	lui	a0,0xbf80
9d00c6c8:	24846010 	addiu	a0,a0,24592
9d00c6cc:	30428000 	andi	v0,v0,0x8000
9d00c6d0:	14400003 	bnez	v0,9d00c6e0 <.LCFI0+0x6c>
9d00c6d4:	34038000 	li	v1,0x8000
9d00c6d8:	3c02bf80 	lui	v0,0xbf80
9d00c6dc:	ac436008 	sw	v1,24584(v0)
9d00c6e0:	8c820000 	lw	v0,0(a0)
9d00c6e4:	30420001 	andi	v0,v0,0x1
9d00c6e8:	14400009 	bnez	v0,9d00c710 <.LCFI0+0x9c>
9d00c6ec:	240200a0 	li	v0,160
9d00c6f0:	0b4031c0 	j	9d00c700 <.LCFI0+0x8c>
9d00c6f4:	00000000 	nop
9d00c6f8:	10400005 	beqz	v0,9d00c710 <.LCFI0+0x9c>
9d00c6fc:	00000000 	nop
9d00c700:	8c830000 	lw	v1,0(a0)
9d00c704:	30630001 	andi	v1,v1,0x1
9d00c708:	1060fffb 	beqz	v1,9d00c6f8 <.LCFI0+0x84>
9d00c70c:	2442ffff 	addiu	v0,v0,-1
9d00c710:	8ca20000 	lw	v0,0(a1)
9d00c714:	8fbf0014 	lw	ra,20(sp)
9d00c718:	03e00008 	jr	ra
9d00c71c:	27bd0018 	addiu	sp,sp,24
9d00c720:	8c426800 	lw	v0,26624(v0)
9d00c724:	3c05bf80 	lui	a1,0xbf80
9d00c728:	24a56830 	addiu	a1,a1,26672
9d00c72c:	3c04bf80 	lui	a0,0xbf80
9d00c730:	0b4031b3 	j	9d00c6cc <.LCFI0+0x58>
9d00c734:	24846810 	addiu	a0,a0,26640
9d00c738:	24420000 	addiu	v0,v0,0
9d00c73c:	5040ffde 	beqzl	v0,9d00c6b8 <.LCFI0+0x44>
9d00c740:	3c02bf80 	lui	v0,0xbf80
9d00c744:	0c000000 	jal	90000000 <_bmxdudba_address+0x8ffe0000>
9d00c748:	00000000 	nop
9d00c74c:	0b4031a9 	j	9d00c6a4 <.LCFI0+0x30>
9d00c750:	8fbf0014 	lw	ra,20(sp)

Disassembly of section .text.general_exception:

9d00c754 <_general_exception_context>:
9d00c754:	27bdffa8 	addiu	sp,sp,-88
9d00c758:	afa10004 	sw	at,4(sp)
9d00c75c:	afa20008 	sw	v0,8(sp)
9d00c760:	afa3000c 	sw	v1,12(sp)
9d00c764:	afa40010 	sw	a0,16(sp)
9d00c768:	afa50014 	sw	a1,20(sp)
9d00c76c:	afa60018 	sw	a2,24(sp)
9d00c770:	afa7001c 	sw	a3,28(sp)
9d00c774:	afa80020 	sw	t0,32(sp)
9d00c778:	afa90024 	sw	t1,36(sp)
9d00c77c:	afaa0028 	sw	t2,40(sp)
9d00c780:	afab002c 	sw	t3,44(sp)
9d00c784:	afac0030 	sw	t4,48(sp)
9d00c788:	afad0034 	sw	t5,52(sp)
9d00c78c:	afae0038 	sw	t6,56(sp)
9d00c790:	afaf003c 	sw	t7,60(sp)
9d00c794:	afb80040 	sw	t8,64(sp)
9d00c798:	afb90044 	sw	t9,68(sp)
9d00c79c:	afbf0048 	sw	ra,72(sp)
9d00c7a0:	00004012 	mflo	t0
9d00c7a4:	afa8004c 	sw	t0,76(sp)
9d00c7a8:	00004010 	mfhi	t0
9d00c7ac:	afa80050 	sw	t0,80(sp)
9d00c7b0:	3c1a9d01 	lui	k0,0x9d01
9d00c7b4:	275ad9f0 	addiu	k0,k0,-9744
9d00c7b8:	00000000 	nop
9d00c7bc:	40046800 	mfc0	a0,c0_cause
9d00c7c0:	40056000 	mfc0	a1,c0_status
9d00c7c4:	0340f809 	jalr	k0
9d00c7c8:	00000000 	nop
9d00c7cc:	8fa80050 	lw	t0,80(sp)
9d00c7d0:	01000011 	mthi	t0
9d00c7d4:	8fa8004c 	lw	t0,76(sp)
9d00c7d8:	01000013 	mtlo	t0
9d00c7dc:	8fa10004 	lw	at,4(sp)
9d00c7e0:	8fa20008 	lw	v0,8(sp)
9d00c7e4:	8fa3000c 	lw	v1,12(sp)
9d00c7e8:	8fa40010 	lw	a0,16(sp)
9d00c7ec:	8fa50014 	lw	a1,20(sp)
9d00c7f0:	8fa60018 	lw	a2,24(sp)
9d00c7f4:	8fa7001c 	lw	a3,28(sp)
9d00c7f8:	8fa80020 	lw	t0,32(sp)
9d00c7fc:	8fa90024 	lw	t1,36(sp)
9d00c800:	8faa0028 	lw	t2,40(sp)
9d00c804:	8fab002c 	lw	t3,44(sp)
9d00c808:	8fac0030 	lw	t4,48(sp)
9d00c80c:	8fad0034 	lw	t5,52(sp)
9d00c810:	8fae0038 	lw	t6,56(sp)
9d00c814:	8faf003c 	lw	t7,60(sp)
9d00c818:	8fb80040 	lw	t8,64(sp)
9d00c81c:	8fb90044 	lw	t9,68(sp)
9d00c820:	8fbf0048 	lw	ra,72(sp)
9d00c824:	27bd0058 	addiu	sp,sp,88
9d00c828:	000000c0 	ehb
9d00c82c:	42000018 	eret

Disassembly of section .text.libm:

9d00c830 <fpmodf>:
9d00c830:	00043dc2 30e700ff 3c088000 00043200     .=.....0...<.2..
9d00c840:	00c83025 01044024 240100ff 10e10028     %0..$@.....$(...
9d00c850:	00000000 00064825 00075025 00085825     ....%H..%P..%X..
9d00c860:	240c009e 01876023 19800006 00000000     ...$#`..........
9d00c870:	29810020 1020001c 00000000 01894806      ..).. ......H..
9d00c880:	01894804                                .H..

9d00c884 <Dlab3>:
9d00c884:	00096040 	sll	t4,t1,0x1
9d00c888:	000c6242 	srl	t4,t4,0x9
9d00c88c:	000a6dc0 	sll	t5,t2,0x17
9d00c890:	018d6025 	or	t4,t4,t5
9d00c894:	018b6825 	or	t5,t4,t3
9d00c898:	acad0000 	sw	t5,0(a1)
9d00c89c:	00ea6023 	subu	t4,a3,t2
9d00c8a0:	2d810020 	sltiu	at,t4,32
9d00c8a4:	14200002 	bnez	at,9d00c8b0 <L2>
9d00c8a8:	00000000 	nop
9d00c8ac:	34090000 	li	t1,0x0

9d00c8b0 <L2>:
9d00c8b0:	01894806 	srlv	t1,t1,t4
9d00c8b4:	00c93023 	subu	a2,a2,t1
9d00c8b8:	10c00008 	beqz	a2,9d00c8dc <Dret2>
9d00c8bc:	00000000 	nop
9d00c8c0:	70cc6020 	clz	t4,a2
9d00c8c4:	00ec3823 	subu	a3,a3,t4
9d00c8c8:	01863004 	sllv	a2,a2,t4

9d00c8cc <Dret>:
9d00c8cc:	00063040 	sll	a2,a2,0x1
9d00c8d0:	00063242 	srl	a2,a2,0x9
9d00c8d4:	00076dc0 	sll	t5,a3,0x17
9d00c8d8:	00cd3025 	or	a2,a2,t5

9d00c8dc <Dret2>:
9d00c8dc:	00c81025 	or	v0,a2,t0

9d00c8e0 <D999>:
9d00c8e0:	03e00008 	jr	ra
9d00c8e4:	00000000 	nop

9d00c8e8 <Dzer>:
9d00c8e8:	1000fff8 	b	9d00c8cc <Dret>
9d00c8ec:	aca80000 	sw	t0,0(a1)

9d00c8f0 <Dinfnan>:
9d00c8f0:	3c04ffc0 	lui	a0,0xffc0
9d00c8f4:	aca40000 	sw	a0,0(a1)
9d00c8f8:	1000fff9 	b	9d00c8e0 <D999>
9d00c8fc:	00041025 	or	v0,zero,a0
9d00c900:	00000000 	nop

Disassembly of section .text._mon_putc:

9d00c904 <_mon_putc>:
9d00c904:	27bdffe8 	addiu	sp,sp,-24

9d00c908 <.LCFI0>:
9d00c908:	afbf0014 	sw	ra,20(sp)
9d00c90c:	3c02a000 	lui	v0,0xa000
9d00c910:	8c420084 	lw	v0,132(v0)
9d00c914:	1440000a 	bnez	v0,9d00c940 <.LCFI0+0x38>
9d00c918:	00802821 	move	a1,a0
9d00c91c:	3c020000 	lui	v0,0x0
9d00c920:	24420000 	addiu	v0,v0,0
9d00c924:	10400025 	beqz	v0,9d00c9bc <.LCFI0+0xb4>
9d00c928:	3c020000 	lui	v0,0x0
9d00c92c:	0c000000 	jal	90000000 <_bmxdudba_address+0x8ffe0000>
9d00c930:	00000000 	nop
9d00c934:	8fbf0014 	lw	ra,20(sp)
9d00c938:	03e00008 	jr	ra
9d00c93c:	27bd0018 	addiu	sp,sp,24
9d00c940:	24030001 	li	v1,1
9d00c944:	10430015 	beq	v0,v1,9d00c99c <.LCFI0+0x94>
9d00c948:	3c04bf80 	lui	a0,0xbf80
9d00c94c:	3c04bf80 	lui	a0,0xbf80
9d00c950:	24846820 	addiu	a0,a0,26656
9d00c954:	3c02bf80 	lui	v0,0xbf80
9d00c958:	24426818 	addiu	v0,v0,26648
9d00c95c:	3c06bf80 	lui	a2,0xbf80
9d00c960:	24c66808 	addiu	a2,a2,26632
9d00c964:	3c03bf80 	lui	v1,0xbf80
9d00c968:	24636810 	addiu	v1,v1,26640
9d00c96c:	34078000 	li	a3,0x8000
9d00c970:	acc70000 	sw	a3,0(a2)
9d00c974:	24060400 	li	a2,1024
9d00c978:	ac460000 	sw	a2,0(v0)
9d00c97c:	8c620000 	lw	v0,0(v1)
9d00c980:	30420100 	andi	v0,v0,0x100
9d00c984:	1040fffd 	beqz	v0,9d00c97c <.LCFI0+0x74>
9d00c988:	00000000 	nop
9d00c98c:	ac850000 	sw	a1,0(a0)
9d00c990:	8fbf0014 	lw	ra,20(sp)
9d00c994:	03e00008 	jr	ra
9d00c998:	27bd0018 	addiu	sp,sp,24
9d00c99c:	24846020 	addiu	a0,a0,24608
9d00c9a0:	3c02bf80 	lui	v0,0xbf80
9d00c9a4:	24426018 	addiu	v0,v0,24600
9d00c9a8:	3c06bf80 	lui	a2,0xbf80
9d00c9ac:	24c66008 	addiu	a2,a2,24584
9d00c9b0:	3c03bf80 	lui	v1,0xbf80
9d00c9b4:	0b40325b 	j	9d00c96c <.LCFI0+0x64>
9d00c9b8:	24636010 	addiu	v1,v1,24592
9d00c9bc:	24420000 	addiu	v0,v0,0
9d00c9c0:	5040ffe3 	beqzl	v0,9d00c950 <.LCFI0+0x48>
9d00c9c4:	3c04bf80 	lui	a0,0xbf80
9d00c9c8:	0c000000 	jal	90000000 <_bmxdudba_address+0x8ffe0000>
9d00c9cc:	00000000 	nop
9d00c9d0:	0b40324e 	j	9d00c938 <.LCFI0+0x30>
9d00c9d4:	8fbf0014 	lw	ra,20(sp)

Disassembly of section .text._sbrk:

9d00c9d8 <_sbrk>:
9d00c9d8:	27bdffe0 	addiu	sp,sp,-32

9d00c9dc <.LCFI2>:
9d00c9dc:	afbf001c 	sw	ra,28(sp)
9d00c9e0:	afb00018 	sw	s0,24(sp)
9d00c9e4:	3c10a000 	lui	s0,0xa000
9d00c9e8:	8e021110 	lw	v0,4368(s0)
9d00c9ec:	10400010 	beqz	v0,9d00ca30 <.LCFI2+0x54>
9d00c9f0:	00000000 	nop
9d00c9f4:	1880001b 	blez	a0,9d00ca64 <.LCFI2+0x88>
9d00c9f8:	00441821 	addu	v1,v0,a0
9d00c9fc:	0062202b 	sltu	a0,v1,v0
9d00ca00:	54800011 	bnezl	a0,9d00ca48 <.LCFI2+0x6c>
9d00ca04:	2403000c 	li	v1,12
9d00ca08:	3c04a000 	lui	a0,0xa000
9d00ca0c:	8c841114 	lw	a0,4372(a0)
9d00ca10:	0083202b 	sltu	a0,a0,v1
9d00ca14:	5480000c 	bnezl	a0,9d00ca48 <.LCFI2+0x6c>
9d00ca18:	2403000c 	li	v1,12
9d00ca1c:	ae031110 	sw	v1,4368(s0)
9d00ca20:	8fbf001c 	lw	ra,28(sp)
9d00ca24:	8fb00018 	lw	s0,24(sp)
9d00ca28:	03e00008 	jr	ra
9d00ca2c:	27bd0020 	addiu	sp,sp,32
9d00ca30:	0f402be6 	jal	9d00af98 <.LFE23>
9d00ca34:	afa40010 	sw	a0,16(sp)
9d00ca38:	8e021110 	lw	v0,4368(s0)
9d00ca3c:	1440ffed 	bnez	v0,9d00c9f4 <.LCFI2+0x18>
9d00ca40:	8fa40010 	lw	a0,16(sp)
9d00ca44:	2403000c 	li	v1,12
9d00ca48:	3c02a000 	lui	v0,0xa000
9d00ca4c:	ac430318 	sw	v1,792(v0)
9d00ca50:	2402ffff 	li	v0,-1
9d00ca54:	8fbf001c 	lw	ra,28(sp)
9d00ca58:	8fb00018 	lw	s0,24(sp)
9d00ca5c:	03e00008 	jr	ra
9d00ca60:	27bd0020 	addiu	sp,sp,32
9d00ca64:	0043202b 	sltu	a0,v0,v1
9d00ca68:	14800005 	bnez	a0,9d00ca80 <.LCFI2+0xa4>
9d00ca6c:	3c04a000 	lui	a0,0xa000
9d00ca70:	8c841118 	lw	a0,4376(a0)
9d00ca74:	0064202b 	sltu	a0,v1,a0
9d00ca78:	5080ffe9 	beqzl	a0,9d00ca20 <.LCFI2+0x44>
9d00ca7c:	ae031110 	sw	v1,4368(s0)
9d00ca80:	24030016 	li	v1,22
9d00ca84:	3c02a000 	lui	v0,0xa000
9d00ca88:	ac430318 	sw	v1,792(v0)
9d00ca8c:	2402ffff 	li	v0,-1
9d00ca90:	8fbf001c 	lw	ra,28(sp)
9d00ca94:	8fb00018 	lw	s0,24(sp)
9d00ca98:	03e00008 	jr	ra
9d00ca9c:	27bd0020 	addiu	sp,sp,32

Disassembly of section .rodata:

9d00caa0 <.LC0>:
9d00caa0:	0d0a7325 	jal	9429cc94 <_bmxdudba_address+0x9427cc94>
9d00caa4:	00000000 	nop

9d00caa8 <.LC1>:
9d00caa8:	4e4e4f43 	c3	0x4e4f43
9d00caac:	45544345 	bc1any4f	$fcc5,9d01d7c4 <.LFE0+0xf618>
9d00cab0:	00000044 	0x44
9d00cab4:	00006325 	0x6325
9d00cab8:	0a0d6325 	j	98358c94 <_bmxdudba_address+0x98338c94>
9d00cabc:	00000000 	nop

9d00cac0 <.LC4>:
9d00cac0:	00666c25 	0x666c25

9d00cac4 <.LC5>:
9d00cac4:	00006425 	0x6425

9d00cac8 <.LC8>:
9d00cac8:	25097325 	addiu	t1,t0,29477
9d00cacc:	2509666c 	addiu	t1,t0,26220
9d00cad0:	6c250973 	0x6c250973
9d00cad4:	000a0d66 	0xa0d66

9d00cad8 <.LC9>:
9d00cad8:	00706d61 	0x706d61

9d00cadc <.LC10>:
9d00cadc:	71657266 	0x71657266
9d00cae0:	636e6575 	0x636e6575
9d00cae4:	00000079 	0x79

9d00cae8 <.LC11>:
9d00cae8:	09666c25 	j	9599b094 <_bmxdudba_address+0x9597b094>
9d00caec:	0a666c25 	j	9999b094 <_bmxdudba_address+0x9997b094>
9d00caf0:	0000000d 	break

9d00caf4 <.LC12>:
9d00caf4:	0d0a6425 	jal	94299094 <_bmxdudba_address+0x94279094>
9d00caf8:	00000000 	nop
9d00cafc:	736f6c63 	0x736f6c63
9d00cb00:	6c206465 	0x6c206465
9d00cb04:	20706f6f 	addi	s0,v1,28527
9d00cb08:	6e727574 	0x6e727574
9d00cb0c:	6f206465 	0x6f206465
9d00cb10:	000d0a6e 	0xd0a6e
9d00cb14:	736f6c63 	0x736f6c63
9d00cb18:	6c206465 	0x6c206465
9d00cb1c:	20706f6f 	addi	s0,v1,28527
9d00cb20:	6e727574 	0x6e727574
9d00cb24:	6f206465 	0x6f206465
9d00cb28:	0d0a6666 	jal	94299998 <_bmxdudba_address+0x94279998>
9d00cb2c:	00000000 	nop

9d00cb30 <.LC15>:
9d00cb30:	09666c25 	j	9599b094 <_bmxdudba_address+0x9597b094>
9d00cb34:	09666c25 	j	9599b094 <_bmxdudba_address+0x9597b094>
9d00cb38:	09666c25 	j	9599b094 <_bmxdudba_address+0x9597b094>
9d00cb3c:	0a666c25 	j	9999b094 <_bmxdudba_address+0x9997b094>
9d00cb40:	0000000d 	break
9d00cb44:	38d1b717 	xori	s1,a2,0xb717
9d00cb48:	3f800000 	0x3f800000

Disassembly of section .text.fputc:

9d00cb4c <fputc>:
9d00cb4c:	27bdffe0 	addiu	sp,sp,-32
9d00cb50:	afbf001c 	sw	ra,28(sp)
9d00cb54:	afb10018 	sw	s1,24(sp)
9d00cb58:	afb00014 	sw	s0,20(sp)
9d00cb5c:	00a08021 	move	s0,a1
9d00cb60:	8ca20018 	lw	v0,24(a1)
9d00cb64:	00808821 	move	s1,a0
9d00cb68:	24050001 	li	a1,1
9d00cb6c:	8c420010 	lw	v0,16(v0)
9d00cb70:	0040f809 	jalr	v0
9d00cb74:	02002021 	move	a0,s0
9d00cb78:	1040000e 	beqz	v0,9d00cbb4 <fputc+0x68>
9d00cb7c:	2402ffff 	li	v0,-1
9d00cb80:	8e020000 	lw	v0,0(s0)
9d00cb84:	2442ffff 	addiu	v0,v0,-1
9d00cb88:	04400011 	bltz	v0,9d00cbd0 <fputc+0x84>
9d00cb8c:	ae020000 	sw	v0,0(s0)
9d00cb90:	96020010 	lhu	v0,16(s0)
9d00cb94:	30420008 	andi	v0,v0,0x8
9d00cb98:	1440000b 	bnez	v0,9d00cbc8 <fputc+0x7c>
9d00cb9c:	2402000a 	li	v0,10
9d00cba0:	8e030004 	lw	v1,4(s0)
9d00cba4:	02201021 	move	v0,s1
9d00cba8:	24640001 	addiu	a0,v1,1
9d00cbac:	ae040004 	sw	a0,4(s0)
9d00cbb0:	a0710000 	sb	s1,0(v1)
9d00cbb4:	8fbf001c 	lw	ra,28(sp)
9d00cbb8:	8fb10018 	lw	s1,24(sp)
9d00cbbc:	8fb00014 	lw	s0,20(sp)
9d00cbc0:	03e00008 	jr	ra
9d00cbc4:	27bd0020 	addiu	sp,sp,32
9d00cbc8:	5622fff6 	bnel	s1,v0,9d00cba4 <fputc+0x58>
9d00cbcc:	8e030004 	lw	v1,4(s0)
9d00cbd0:	8e020018 	lw	v0,24(s0)
9d00cbd4:	02202021 	move	a0,s1
9d00cbd8:	8c420004 	lw	v0,4(v0)
9d00cbdc:	0040f809 	jalr	v0
9d00cbe0:	02002821 	move	a1,s0
9d00cbe4:	8fbf001c 	lw	ra,28(sp)
9d00cbe8:	8fb10018 	lw	s1,24(sp)
9d00cbec:	8fb00014 	lw	s0,20(sp)
9d00cbf0:	03e00008 	jr	ra
9d00cbf4:	27bd0020 	addiu	sp,sp,32

Disassembly of section .text.fptodp:

9d00cbf8 <__extendsfdf2>:
9d00cbf8:	00043dc2 30e700ff 3c018000 00813024     .=.....0...<$0..
9d00cc08:	24e9ffff 2d2100fe 1020000d 00000000     ...$..!-.. .....

9d00cc18 <Glab1>:
9d00cc18:	24e70380 	addiu	a3,a3,896
9d00cc1c:	00044a40 	sll	t1,a0,0x9
9d00cc20:	00094b02 	srl	t1,t1,0xc
9d00cc24:	00c93025 	or	a2,a2,t1
9d00cc28:	00042f40 	sll	a1,a0,0x1d

9d00cc2c <Gret>:
9d00cc2c:	00074d00 	sll	t1,a3,0x14
9d00cc30:	00c93025 	or	a2,a2,t1
9d00cc34:	00051025 	or	v0,zero,a1
9d00cc38:	00061825 	or	v1,zero,a2

9d00cc3c <G999>:
9d00cc3c:	03e00008 	jr	ra
9d00cc40:	00000000 	nop
9d00cc44:	00000000 	nop

9d00cc48 <Gspec>:
9d00cc48:	24050000 	li	a1,0
9d00cc4c:	00842021 	addu	a0,a0,a0
9d00cc50:	1080fff6 	beqz	a0,9d00cc2c <Gret>
9d00cc54:	00000000 	nop
9d00cc58:	14e00009 	bnez	a3,9d00cc80 <i42>
9d00cc5c:	00000000 	nop

9d00cc60 <b43>:
9d00cc60:	24e7ffff 	addiu	a3,a3,-1
9d00cc64:	00842021 	addu	a0,a0,a0
9d00cc68:	3c010080 	lui	at,0x80
9d00cc6c:	0081082b 	sltu	at,a0,at
9d00cc70:	1420fffb 	bnez	at,9d00cc60 <b43>
9d00cc74:	00000000 	nop
9d00cc78:	1000ffe7 	b	9d00cc18 <Glab1>
9d00cc7c:	00000000 	nop

9d00cc80 <i42>:
9d00cc80:	240707ff 	li	a3,2047
9d00cc84:	3c01ff00 	lui	at,0xff00
9d00cc88:	34210001 	ori	at,at,0x1
9d00cc8c:	0081082b 	sltu	at,a0,at
9d00cc90:	1420ffe6 	bnez	at,9d00cc2c <Gret>
9d00cc94:	00000000 	nop
9d00cc98:	1000ffe4 	b	9d00cc2c <Gret>
9d00cc9c:	3c06fff8 	lui	a2,0xfff8
9d00cca0:	00000000 	nop

Disassembly of section .text._fullexit:

9d00cca4 <_fullexit>:
9d00cca4:	27bdffe0 	addiu	sp,sp,-32
9d00cca8:	afbf001c 	sw	ra,28(sp)
9d00ccac:	afb20018 	sw	s2,24(sp)
9d00ccb0:	afb10014 	sw	s1,20(sp)
9d00ccb4:	afb00010 	sw	s0,16(sp)
9d00ccb8:	3c10a000 	lui	s0,0xa000
9d00ccbc:	3c11a000 	lui	s1,0xa000
9d00ccc0:	00809021 	move	s2,a0
9d00ccc4:	0f40383f 	jal	9d00e0fc <_weak_pthread_mutex_lock>
9d00ccc8:	2604111c 	addiu	a0,s0,4380
9d00cccc:	8e220080 	lw	v0,128(s1)
9d00ccd0:	2604111c 	addiu	a0,s0,4380
9d00ccd4:	24030001 	li	v1,1
9d00ccd8:	0f403843 	jal	9d00e10c <_weak_pthread_mutex_unlock>
9d00ccdc:	ac430038 	sw	v1,56(v0)
9d00cce0:	8e220080 	lw	v0,128(s1)
9d00cce4:	8c500010 	lw	s0,16(v0)
9d00cce8:	5600000a 	bnezl	s0,9d00cd14 <_fullexit+0x70>
9d00ccec:	8e020004 	lw	v0,4(s0)
9d00ccf0:	0b40334c 	j	9d00cd30 <_fullexit+0x8c>
9d00ccf4:	8c420034 	lw	v0,52(v0)
9d00ccf8:	00031880 	sll	v1,v1,0x2
9d00ccfc:	02031821 	addu	v1,s0,v1
9d00cd00:	8c630000 	lw	v1,0(v1)
9d00cd04:	2442ffff 	addiu	v0,v0,-1
9d00cd08:	0060f809 	jalr	v1
9d00cd0c:	ae020004 	sw	v0,4(s0)
9d00cd10:	8e020004 	lw	v0,4(s0)
9d00cd14:	1c40fff8 	bgtz	v0,9d00ccf8 <_fullexit+0x54>
9d00cd18:	24430001 	addiu	v1,v0,1
9d00cd1c:	8e100000 	lw	s0,0(s0)
9d00cd20:	5600fffc 	bnezl	s0,9d00cd14 <_fullexit+0x70>
9d00cd24:	8e020004 	lw	v0,4(s0)
9d00cd28:	8e220080 	lw	v0,128(s1)
9d00cd2c:	8c420034 	lw	v0,52(v0)
9d00cd30:	10400003 	beqz	v0,9d00cd40 <_fullexit+0x9c>
9d00cd34:	00000000 	nop
9d00cd38:	0040f809 	jalr	v0
9d00cd3c:	00000000 	nop
9d00cd40:	0f403867 	jal	9d00e19c <.LFE0>
9d00cd44:	02402021 	move	a0,s2

Disassembly of section .text._o_init:

9d00cd48 <_o_init>:
9d00cd48:	27bdffe8 	addiu	sp,sp,-24
9d00cd4c:	afbf0014 	sw	ra,20(sp)
9d00cd50:	afb00010 	sw	s0,16(sp)
9d00cd54:	00808021 	move	s0,a0
9d00cd58:	3c02a000 	lui	v0,0xa000
9d00cd5c:	8c430080 	lw	v1,128(v0)
9d00cd60:	8c820008 	lw	v0,8(a0)
9d00cd64:	3c059d01 	lui	a1,0x9d01
9d00cd68:	24a5dd34 	addiu	a1,a1,-8908
9d00cd6c:	1040001b 	beqz	v0,9d00cddc <_o_init+0x94>
9d00cd70:	ac650034 	sw	a1,52(v1)
9d00cd74:	8e03000c 	lw	v1,12(s0)
9d00cd78:	50600004 	beqzl	v1,9d00cd8c <_o_init+0x44>
9d00cd7c:	96020010 	lhu	v0,16(s0)
9d00cd80:	8e020008 	lw	v0,8(s0)
9d00cd84:	ae020004 	sw	v0,4(s0)
9d00cd88:	96020010 	lhu	v0,16(s0)
9d00cd8c:	ae030000 	sw	v1,0(s0)
9d00cd90:	34430002 	ori	v1,v0,0x2
9d00cd94:	30441000 	andi	a0,v0,0x1000
9d00cd98:	10800006 	beqz	a0,9d00cdb4 <_o_init+0x6c>
9d00cd9c:	a6030010 	sh	v1,16(s0)
9d00cda0:	30420008 	andi	v0,v0,0x8
9d00cda4:	14400007 	bnez	v0,9d00cdc4 <_o_init+0x7c>
9d00cda8:	00000000 	nop
9d00cdac:	7c036304 	ins	v1,zero,0xc,0x1
9d00cdb0:	a6030010 	sh	v1,16(s0)
9d00cdb4:	8fbf0014 	lw	ra,20(sp)
9d00cdb8:	8fb00010 	lw	s0,16(sp)
9d00cdbc:	03e00008 	jr	ra
9d00cdc0:	27bd0018 	addiu	sp,sp,24
9d00cdc4:	0f403869 	jal	9d00e1a4 <.LFE0>
9d00cdc8:	86040012 	lh	a0,18(s0)
9d00cdcc:	1440fff7 	bnez	v0,9d00cdac <_o_init+0x64>
9d00cdd0:	96030010 	lhu	v1,16(s0)
9d00cdd4:	0b40336b 	j	9d00cdac <_o_init+0x64>
9d00cdd8:	3063fff7 	andi	v1,v1,0xfff7
9d00cddc:	0f40356b 	jal	9d00d5ac <_bufalloc>
9d00cde0:	00000000 	nop
9d00cde4:	0b40335e 	j	9d00cd78 <_o_init+0x30>
9d00cde8:	8e03000c 	lw	v1,12(s0)

Disassembly of section .text.fpatan:

9d00cdec <atanf>:
9d00cdec:	27bdffe8 	addiu	sp,sp,-24
9d00cdf0:	afbf0000 	sw	ra,0(sp)
9d00cdf4:	000435c2 	srl	a2,a0,0x17
9d00cdf8:	30c600ff 	andi	a2,a2,0xff
9d00cdfc:	3c078000 	lui	a3,0x8000
9d00ce00:	00042a00 	sll	a1,a0,0x8
9d00ce04:	00a72825 	or	a1,a1,a3
9d00ce08:	00e43824 	and	a3,a3,a0
9d00ce0c:	240100ff 	li	at,255
9d00ce10:	14c10004 	bne	a2,at,9d00ce24 <i19>
9d00ce14:	00000000 	nop
9d00ce18:	00055840 	sll	t3,a1,0x1
9d00ce1c:	15600018 	bnez	t3,9d00ce80 <Bnan>
9d00ce20:	00000000 	nop

9d00ce24 <i19>:
9d00ce24:	afa40004 	sw	a0,4(sp)
9d00ce28:	afa50008 	sw	a1,8(sp)
9d00ce2c:	afa6000c 	sw	a2,12(sp)
9d00ce30:	afa70010 	sw	a3,16(sp)
9d00ce34:	00052025 	or	a0,zero,a1
9d00ce38:	00062825 	or	a1,zero,a2
9d00ce3c:	0f4022cd 	jal	9d008b34 <.LFE23>
9d00ce40:	00073025 	or	a2,zero,a3
9d00ce44:	00185025 	or	t2,zero,t8
9d00ce48:	00034825 	or	t1,zero,v1
9d00ce4c:	00024025 	or	t0,zero,v0
9d00ce50:	8fa70010 	lw	a3,16(sp)
9d00ce54:	8fa6000c 	lw	a2,12(sp)
9d00ce58:	8fa50008 	lw	a1,8(sp)
9d00ce5c:	8fa40004 	lw	a0,4(sp)
9d00ce60:	00082840 	sll	a1,t0,0x1
9d00ce64:	00052a42 	srl	a1,a1,0x9
9d00ce68:	00095dc0 	sll	t3,t1,0x17
9d00ce6c:	00ab2825 	or	a1,a1,t3
9d00ce70:	00a71025 	or	v0,a1,a3

9d00ce74 <B999>:
9d00ce74:	8fbf0000 	lw	ra,0(sp)
9d00ce78:	03e00008 	jr	ra
9d00ce7c:	27bd0018 	addiu	sp,sp,24

9d00ce80 <Bnan>:
9d00ce80:	1000fffc 	b	9d00ce74 <B999>
9d00ce84:	3c02ffc0 	lui	v0,0xffc0
9d00ce88:	00000000 	nop

Disassembly of section .text.repl:

9d00ce8c <repl>:
9d00ce8c:	27bdffd8 	addiu	sp,sp,-40
9d00ce90:	afbf0024 	sw	ra,36(sp)
9d00ce94:	afb40020 	sw	s4,32(sp)
9d00ce98:	afb3001c 	sw	s3,28(sp)
9d00ce9c:	afb20018 	sw	s2,24(sp)
9d00cea0:	afb10014 	sw	s1,20(sp)
9d00cea4:	afb00010 	sw	s0,16(sp)
9d00cea8:	00a08021 	move	s0,a1
9d00ceac:	0080a021 	move	s4,a0
9d00ceb0:	00c09821 	move	s3,a2
9d00ceb4:	24120020 	li	s2,32
9d00ceb8:	2411ffff 	li	s1,-1
9d00cebc:	12000011 	beqz	s0,9d00cf04 <repl+0x78>
9d00cec0:	2e020021 	sltiu	v0,s0,33
9d00cec4:	02401821 	move	v1,s2
9d00cec8:	0202180b 	movn	v1,s0,v0
9d00cecc:	02602021 	move	a0,s3
9d00ced0:	00602821 	move	a1,v1
9d00ced4:	02803021 	move	a2,s4
9d00ced8:	0f403537 	jal	9d00d4dc <__sputn>
9d00cedc:	02038023 	subu	s0,s0,v1
9d00cee0:	1451fff6 	bne	v0,s1,9d00cebc <repl+0x30>
9d00cee4:	8fbf0024 	lw	ra,36(sp)
9d00cee8:	8fb40020 	lw	s4,32(sp)
9d00ceec:	8fb3001c 	lw	s3,28(sp)
9d00cef0:	8fb20018 	lw	s2,24(sp)
9d00cef4:	8fb10014 	lw	s1,20(sp)
9d00cef8:	8fb00010 	lw	s0,16(sp)
9d00cefc:	03e00008 	jr	ra
9d00cf00:	27bd0028 	addiu	sp,sp,40
9d00cf04:	00001021 	move	v0,zero
9d00cf08:	8fbf0024 	lw	ra,36(sp)
9d00cf0c:	8fb40020 	lw	s4,32(sp)
9d00cf10:	8fb3001c 	lw	s3,28(sp)
9d00cf14:	8fb20018 	lw	s2,24(sp)
9d00cf18:	8fb10014 	lw	s1,20(sp)
9d00cf1c:	8fb00010 	lw	s0,16(sp)
9d00cf20:	03e00008 	jr	ra
9d00cf24:	27bd0028 	addiu	sp,sp,40

Disassembly of section .text._eat_white:

9d00cf28 <_eat_white>:
9d00cf28:	27bdffe0 	addiu	sp,sp,-32
9d00cf2c:	afbf001c 	sw	ra,28(sp)
9d00cf30:	afb20018 	sw	s2,24(sp)
9d00cf34:	afb10014 	sw	s1,20(sp)
9d00cf38:	afb00010 	sw	s0,16(sp)
9d00cf3c:	00808021 	move	s0,a0
9d00cf40:	2411ffff 	li	s1,-1
9d00cf44:	3c129d01 	lui	s2,0x9d01
9d00cf48:	0b4033d8 	j	9d00cf60 <_eat_white+0x38>
9d00cf4c:	2652bf79 	addiu	s2,s2,-16519
9d00cf50:	80630000 	lb	v1,0(v1)
9d00cf54:	30630088 	andi	v1,v1,0x88
9d00cf58:	50600010 	beqzl	v1,9d00cf9c <_eat_white+0x74>
9d00cf5c:	8e030010 	lw	v1,16(s0)
9d00cf60:	0f40359f 	jal	9d00d67c <.LFE0>
9d00cf64:	02002021 	move	a0,s0
9d00cf68:	1451fff9 	bne	v0,s1,9d00cf50 <_eat_white+0x28>
9d00cf6c:	00521821 	addu	v1,v0,s2
9d00cf70:	8e030010 	lw	v1,16(s0)
9d00cf74:	ae110004 	sw	s1,4(s0)
9d00cf78:	2402ffff 	li	v0,-1
9d00cf7c:	2463ffff 	addiu	v1,v1,-1
9d00cf80:	ae030010 	sw	v1,16(s0)
9d00cf84:	8fbf001c 	lw	ra,28(sp)
9d00cf88:	8fb20018 	lw	s2,24(sp)
9d00cf8c:	8fb10014 	lw	s1,20(sp)
9d00cf90:	8fb00010 	lw	s0,16(sp)
9d00cf94:	03e00008 	jr	ra
9d00cf98:	27bd0020 	addiu	sp,sp,32
9d00cf9c:	ae020004 	sw	v0,4(s0)
9d00cfa0:	00001021 	move	v0,zero
9d00cfa4:	2463ffff 	addiu	v1,v1,-1
9d00cfa8:	ae030010 	sw	v1,16(s0)
9d00cfac:	8fbf001c 	lw	ra,28(sp)
9d00cfb0:	8fb20018 	lw	s2,24(sp)
9d00cfb4:	8fb10014 	lw	s1,20(sp)
9d00cfb8:	8fb00010 	lw	s0,16(sp)
9d00cfbc:	03e00008 	jr	ra
9d00cfc0:	27bd0020 	addiu	sp,sp,32

Disassembly of section .text.fpcmp:

9d00cfc4 <__eqsf2>:
9d00cfc4:	2408fffe 00043040 00053840 00c74825     ...$@0..@8..%H..
9d00cfd4:	1120001b 00000000 3c01ff00 34210001     .. ........<..!4
9d00cfe4:	00c1082b 1020001a 00000000 3c01ff00     +..... ........<
9d00cff4:	34210001 00e1082b 10200015 00000000     ..!4+..... .....
9d00d004:	04810002 00063042 00063023              ....B0..#0..

9d00d010 <i48>:
9d00d010:	04a10002 	bgez	a1,9d00d01c <i49>
9d00d014:	00073842 	srl	a3,a3,0x1
9d00d018:	00073823 	negu	a3,a3

9d00d01c <i49>:
9d00d01c:	00c7082a 	slt	at,a2,a3
9d00d020:	10200003 	beqz	at,9d00d030 <i50>
9d00d024:	00000000 	nop
9d00d028:	10000007 	b	9d00d048 <J999>
9d00d02c:	2402ffff 	li	v0,-1

9d00d030 <i50>:
9d00d030:	00e6082a 	slt	at,a3,a2
9d00d034:	10200003 	beqz	at,9d00d044 <Jequ>
9d00d038:	00000000 	nop
9d00d03c:	10000002 	b	9d00d048 <J999>
9d00d040:	24020001 	li	v0,1

9d00d044 <Jequ>:
9d00d044:	24020000 	li	v0,0

9d00d048 <J999>:
9d00d048:	03e00008 	jr	ra
9d00d04c:	00000000 	nop
9d00d050:	00000000 	nop

9d00d054 <Jnan>:
9d00d054:	1000fffc 	b	9d00d048 <J999>
9d00d058:	00081025 	or	v0,zero,t0
9d00d05c:	00000000 	nop

Disassembly of section .text._i_init:

9d00d060 <_i_init>:
9d00d060:	27bdffe8 	addiu	sp,sp,-24
9d00d064:	afbf0014 	sw	ra,20(sp)
9d00d068:	afb00010 	sw	s0,16(sp)
9d00d06c:	8c820008 	lw	v0,8(a0)
9d00d070:	1040001d 	beqz	v0,9d00d0e8 <_i_init+0x88>
9d00d074:	00808021 	move	s0,a0
9d00d078:	8e02000c 	lw	v0,12(s0)
9d00d07c:	54400012 	bnezl	v0,9d00d0c8 <_i_init+0x68>
9d00d080:	8e020008 	lw	v0,8(s0)
9d00d084:	2402ffff 	li	v0,-1
9d00d088:	ae020004 	sw	v0,4(s0)
9d00d08c:	96020010 	lhu	v0,16(s0)
9d00d090:	ae000000 	sw	zero,0(s0)
9d00d094:	34430001 	ori	v1,v0,0x1
9d00d098:	30441000 	andi	a0,v0,0x1000
9d00d09c:	10800006 	beqz	a0,9d00d0b8 <_i_init+0x58>
9d00d0a0:	a6030010 	sh	v1,16(s0)
9d00d0a4:	30420008 	andi	v0,v0,0x8
9d00d0a8:	14400009 	bnez	v0,9d00d0d0 <_i_init+0x70>
9d00d0ac:	00000000 	nop
9d00d0b0:	7c036304 	ins	v1,zero,0xc,0x1
9d00d0b4:	a6030010 	sh	v1,16(s0)
9d00d0b8:	8fbf0014 	lw	ra,20(sp)
9d00d0bc:	8fb00010 	lw	s0,16(sp)
9d00d0c0:	03e00008 	jr	ra
9d00d0c4:	27bd0018 	addiu	sp,sp,24
9d00d0c8:	0b403423 	j	9d00d08c <_i_init+0x2c>
9d00d0cc:	ae020004 	sw	v0,4(s0)
9d00d0d0:	0f403869 	jal	9d00e1a4 <.LFE0>
9d00d0d4:	86040012 	lh	a0,18(s0)
9d00d0d8:	1440fff5 	bnez	v0,9d00d0b0 <_i_init+0x50>
9d00d0dc:	96030010 	lhu	v1,16(s0)
9d00d0e0:	0b40342c 	j	9d00d0b0 <_i_init+0x50>
9d00d0e4:	3063fff7 	andi	v1,v1,0xfff7
9d00d0e8:	0f40356b 	jal	9d00d5ac <_bufalloc>
9d00d0ec:	00000000 	nop
9d00d0f0:	0b40341f 	j	9d00d07c <_i_init+0x1c>
9d00d0f4:	8e02000c 	lw	v0,12(s0)

Disassembly of section .text.strlen:

9d00d0f8 <strlen>:
9d00d0f8:	30830003 	andi	v1,a0,0x3
9d00d0fc:	1460001e 	bnez	v1,9d00d178 <strlen+0x80>
9d00d100:	00801021 	move	v0,a0
9d00d104:	8c820000 	lw	v0,0(a0)
9d00d108:	3c07fefe 	lui	a3,0xfefe
9d00d10c:	34e7feff 	ori	a3,a3,0xfeff
9d00d110:	00471821 	addu	v1,v0,a3
9d00d114:	00021027 	nor	v0,zero,v0
9d00d118:	3c068080 	lui	a2,0x8080
9d00d11c:	34c68080 	ori	a2,a2,0x8080
9d00d120:	00621824 	and	v1,v1,v0
9d00d124:	00661824 	and	v1,v1,a2
9d00d128:	14600013 	bnez	v1,9d00d178 <strlen+0x80>
9d00d12c:	00801021 	move	v0,a0
9d00d130:	24420004 	addiu	v0,v0,4
9d00d134:	8c430000 	lw	v1,0(v0)
9d00d138:	00672821 	addu	a1,v1,a3
9d00d13c:	00031827 	nor	v1,zero,v1
9d00d140:	00a31824 	and	v1,a1,v1
9d00d144:	00661824 	and	v1,v1,a2
9d00d148:	5460000c 	bnezl	v1,9d00d17c <strlen+0x84>
9d00d14c:	80430000 	lb	v1,0(v0)
9d00d150:	24420004 	addiu	v0,v0,4
9d00d154:	8c430000 	lw	v1,0(v0)
9d00d158:	00672821 	addu	a1,v1,a3
9d00d15c:	00031827 	nor	v1,zero,v1
9d00d160:	00a31824 	and	v1,a1,v1
9d00d164:	00661824 	and	v1,v1,a2
9d00d168:	5060fff2 	beqzl	v1,9d00d134 <strlen+0x3c>
9d00d16c:	24420004 	addiu	v0,v0,4
9d00d170:	0b40345f 	j	9d00d17c <strlen+0x84>
9d00d174:	80430000 	lb	v1,0(v0)
9d00d178:	80430000 	lb	v1,0(v0)
9d00d17c:	5460fffe 	bnezl	v1,9d00d178 <strlen+0x80>
9d00d180:	24420001 	addiu	v0,v0,1
9d00d184:	03e00008 	jr	ra
9d00d188:	00441023 	subu	v0,v0,a0

Disassembly of section .text._fflush_simple:

9d00d18c <_fflush_simple>:
9d00d18c:	27bdffe8 	addiu	sp,sp,-24
9d00d190:	afbf0014 	sw	ra,20(sp)
9d00d194:	afb00010 	sw	s0,16(sp)
9d00d198:	94820010 	lhu	v0,16(a0)
9d00d19c:	30420002 	andi	v0,v0,0x2
9d00d1a0:	10400013 	beqz	v0,9d00d1f0 <_fflush_simple+0x64>
9d00d1a4:	00808021 	move	s0,a0
9d00d1a8:	8c850000 	lw	a1,0(a0)
9d00d1ac:	04a0000c 	bltz	a1,9d00d1e0 <_fflush_simple+0x54>
9d00d1b0:	00001021 	move	v0,zero
9d00d1b4:	8c82000c 	lw	v0,12(a0)
9d00d1b8:	50a20006 	beql	a1,v0,9d00d1d4 <_fflush_simple+0x48>
9d00d1bc:	8e030008 	lw	v1,8(s0)
9d00d1c0:	8c840008 	lw	a0,8(a0)
9d00d1c4:	0f403657 	jal	9d00d95c <.LFE4>
9d00d1c8:	00452823 	subu	a1,v0,a1
9d00d1cc:	8e02000c 	lw	v0,12(s0)
9d00d1d0:	8e030008 	lw	v1,8(s0)
9d00d1d4:	ae020000 	sw	v0,0(s0)
9d00d1d8:	ae030004 	sw	v1,4(s0)
9d00d1dc:	00001021 	move	v0,zero
9d00d1e0:	8fbf0014 	lw	ra,20(sp)
9d00d1e4:	8fb00010 	lw	s0,16(sp)
9d00d1e8:	03e00008 	jr	ra
9d00d1ec:	27bd0018 	addiu	sp,sp,24
9d00d1f0:	2402ffff 	li	v0,-1
9d00d1f4:	ac820004 	sw	v0,4(a0)
9d00d1f8:	00001021 	move	v0,zero
9d00d1fc:	8fbf0014 	lw	ra,20(sp)
9d00d200:	8fb00010 	lw	s0,16(sp)
9d00d204:	03e00008 	jr	ra
9d00d208:	27bd0018 	addiu	sp,sp,24

Disassembly of section .text._fwrite_simple:

9d00d20c <_fwrite_simple>:
9d00d20c:	27bdffd8 	addiu	sp,sp,-40
9d00d210:	afbf0024 	sw	ra,36(sp)
9d00d214:	afb10020 	sw	s1,32(sp)
9d00d218:	afb0001c 	sw	s0,28(sp)
9d00d21c:	70c58002 	mul	s0,a2,a1
9d00d220:	12000007 	beqz	s0,9d00d240 <_fwrite_simple+0x34>
9d00d224:	00001021 	move	v0,zero
9d00d228:	94e30010 	lhu	v1,16(a3)
9d00d22c:	30630001 	andi	v1,v1,0x1
9d00d230:	10600008 	beqz	v1,9d00d254 <_fwrite_simple+0x48>
9d00d234:	3c03a000 	lui	v1,0xa000
9d00d238:	24040009 	li	a0,9
9d00d23c:	ac640318 	sw	a0,792(v1)
9d00d240:	8fbf0024 	lw	ra,36(sp)
9d00d244:	8fb10020 	lw	s1,32(sp)
9d00d248:	8fb0001c 	lw	s0,28(sp)
9d00d24c:	03e00008 	jr	ra
9d00d250:	27bd0028 	addiu	sp,sp,40
9d00d254:	00808821 	move	s1,a0
9d00d258:	00e02021 	move	a0,a3
9d00d25c:	0f403463 	jal	9d00d18c <_fflush_simple>
9d00d260:	afa60010 	sw	a2,16(sp)
9d00d264:	02202021 	move	a0,s1
9d00d268:	0f403657 	jal	9d00d95c <.LFE4>
9d00d26c:	02002821 	move	a1,s0
9d00d270:	8fa60010 	lw	a2,16(sp)
9d00d274:	00c01021 	move	v0,a2
9d00d278:	8fbf0024 	lw	ra,36(sp)
9d00d27c:	8fb10020 	lw	s1,32(sp)
9d00d280:	8fb0001c 	lw	s0,28(sp)
9d00d284:	03e00008 	jr	ra
9d00d288:	27bd0028 	addiu	sp,sp,40

Disassembly of section .text.fptoli:

9d00d28c <__fixsfsi>:
9d00d28c:	00042a00 3c018000 00a12825 00043dc2     .*.....<%(...=..
9d00d29c:	30e700ff 2406009e 00c73023 18c0000d     ...0...$#0......
9d00d2ac:	00000000 28c10020 14200003 00000000     .... ..(.. .....
9d00d2bc:	10000005 24020000                       .......$

9d00d2c4 <i42>:
9d00d2c4:	04810002 	bgez	a0,9d00d2d0 <i43>
9d00d2c8:	00c52806 	srlv	a1,a1,a2
9d00d2cc:	00052823 	negu	a1,a1

9d00d2d0 <i43>:
9d00d2d0:	00051025 	or	v0,zero,a1

9d00d2d4 <G999>:
9d00d2d4:	03e00008 	jr	ra
9d00d2d8:	00000000 	nop
9d00d2dc:	00000000 	nop

9d00d2e0 <Gspec>:
9d00d2e0:	3c017f80 	lui	at,0x7f80
9d00d2e4:	34210001 	ori	at,at,0x1
9d00d2e8:	0081082b 	sltu	at,a0,at
9d00d2ec:	14200003 	bnez	at,9d00d2fc <i44>
9d00d2f0:	00000000 	nop
9d00d2f4:	1000fff7 	b	9d00d2d4 <G999>
9d00d2f8:	3c028000 	lui	v0,0x8000

9d00d2fc <i44>:
9d00d2fc:	3c027fff 	lui	v0,0x7fff
9d00d300:	1000fff4 	b	9d00d2d4 <G999>
9d00d304:	3442ffff 	ori	v0,v0,0xffff
9d00d308:	00000000 	nop

Disassembly of section .text.fgetc:

9d00d30c <fgetc>:
9d00d30c:	27bdffe8 	addiu	sp,sp,-24
9d00d310:	afbf0014 	sw	ra,20(sp)
9d00d314:	afb00010 	sw	s0,16(sp)
9d00d318:	00808021 	move	s0,a0
9d00d31c:	8c820018 	lw	v0,24(a0)
9d00d320:	8c420010 	lw	v0,16(v0)
9d00d324:	0040f809 	jalr	v0
9d00d328:	24050002 	li	a1,2
9d00d32c:	10400009 	beqz	v0,9d00d354 <fgetc+0x48>
9d00d330:	2402ffff 	li	v0,-1
9d00d334:	8e020000 	lw	v0,0(s0)
9d00d338:	2442ffff 	addiu	v0,v0,-1
9d00d33c:	04400009 	bltz	v0,9d00d364 <fgetc+0x58>
9d00d340:	ae020000 	sw	v0,0(s0)
9d00d344:	8e020004 	lw	v0,4(s0)
9d00d348:	24430001 	addiu	v1,v0,1
9d00d34c:	ae030004 	sw	v1,4(s0)
9d00d350:	90420000 	lbu	v0,0(v0)
9d00d354:	8fbf0014 	lw	ra,20(sp)
9d00d358:	8fb00010 	lw	s0,16(sp)
9d00d35c:	03e00008 	jr	ra
9d00d360:	27bd0018 	addiu	sp,sp,24
9d00d364:	8e020018 	lw	v0,24(s0)
9d00d368:	8c420000 	lw	v0,0(v0)
9d00d36c:	0040f809 	jalr	v0
9d00d370:	02002021 	move	a0,s0
9d00d374:	8fbf0014 	lw	ra,20(sp)
9d00d378:	8fb00010 	lw	s0,16(sp)
9d00d37c:	03e00008 	jr	ra
9d00d380:	27bd0018 	addiu	sp,sp,24

Disassembly of section .text.litodp:

9d00d384 <__floatsidf>:
9d00d384:	24050000 00054825 00053825 00043025     ...$%H..%8..%0..
9d00d394:	10c0000c 00000000 04c10006 00000000     ................
9d00d3a4:	3c098000 0005502b 00052823 00063023     ...<+P..#(..#0..
9d00d3b4:	00ca3023                                #0..

9d00d3b8 <i40>:
9d00d3b8:	2407041e 	li	a3,1054
9d00d3bc:	70c84020 	clz	t0,a2
9d00d3c0:	00e83823 	subu	a3,a3,t0
9d00d3c4:	01063004 	sllv	a2,a2,t0

9d00d3c8 <i39>:
9d00d3c8:	000542c2 	srl	t0,a1,0xb
9d00d3cc:	00065540 	sll	t2,a2,0x15
9d00d3d0:	010a4025 	or	t0,t0,t2
9d00d3d4:	00065040 	sll	t2,a2,0x1
9d00d3d8:	000a5302 	srl	t2,t2,0xc
9d00d3dc:	012a4825 	or	t1,t1,t2
9d00d3e0:	00075500 	sll	t2,a3,0x14
9d00d3e4:	012a4825 	or	t1,t1,t2
9d00d3e8:	00081025 	or	v0,zero,t0
9d00d3ec:	00091825 	or	v1,zero,t1

9d00d3f0 <E999>:
9d00d3f0:	03e00008 	jr	ra
9d00d3f4:	00000000 	nop
9d00d3f8:	00000000 	nop

Disassembly of section .text._sscanf_cdfFnopuxX:

9d00d3fc <_sscanf_cdfFnopuxX>:
9d00d3fc:	27bdffc0 	addiu	sp,sp,-64
9d00d400:	afbf003c 	sw	ra,60(sp)
9d00d404:	afb00038 	sw	s0,56(sp)
9d00d408:	00808021 	move	s0,a0
9d00d40c:	afa60048 	sw	a2,72(sp)
9d00d410:	afa7004c 	sw	a3,76(sp)
9d00d414:	2402ffff 	li	v0,-1
9d00d418:	a7a20022 	sh	v0,34(sp)
9d00d41c:	24020081 	li	v0,129
9d00d420:	a7a20020 	sh	v0,32(sp)
9d00d424:	0f40343e 	jal	9d00d0f8 <strlen>
9d00d428:	afa50030 	sw	a1,48(sp)
9d00d42c:	27a30048 	addiu	v1,sp,72
9d00d430:	27a40010 	addiu	a0,sp,16
9d00d434:	8fa50030 	lw	a1,48(sp)
9d00d438:	00603021 	move	a2,v1
9d00d43c:	afa20010 	sw	v0,16(sp)
9d00d440:	afa2001c 	sw	v0,28(sp)
9d00d444:	afb00018 	sw	s0,24(sp)
9d00d448:	afb00014 	sw	s0,20(sp)
9d00d44c:	3c029d01 	lui	v0,0x9d01
9d00d450:	2442e070 	addiu	v0,v0,-8080
9d00d454:	afa20028 	sw	v0,40(sp)
9d00d458:	0f400780 	jal	9d001e00 <do_scan>
9d00d45c:	afa3002c 	sw	v1,44(sp)
9d00d460:	8fbf003c 	lw	ra,60(sp)
9d00d464:	8fb00038 	lw	s0,56(sp)
9d00d468:	03e00008 	jr	ra
9d00d46c:	27bd0040 	addiu	sp,sp,64

Disassembly of section .text._sprintf_cdfFnopsuxX:

9d00d470 <_sprintf_cdfFnopsuxX>:
9d00d470:	27bdffc8 	addiu	sp,sp,-56
9d00d474:	afbf0034 	sw	ra,52(sp)
9d00d478:	27a20040 	addiu	v0,sp,64
9d00d47c:	00801821 	move	v1,a0
9d00d480:	afa60040 	sw	a2,64(sp)
9d00d484:	27a40010 	addiu	a0,sp,16
9d00d488:	00403021 	move	a2,v0
9d00d48c:	afa70044 	sw	a3,68(sp)
9d00d490:	2407ffff 	li	a3,-1
9d00d494:	a7a70022 	sh	a3,34(sp)
9d00d498:	24070082 	li	a3,130
9d00d49c:	a7a70020 	sh	a3,32(sp)
9d00d4a0:	3c077fff 	lui	a3,0x7fff
9d00d4a4:	34e7fffe 	ori	a3,a3,0xfffe
9d00d4a8:	afa70010 	sw	a3,16(sp)
9d00d4ac:	afa30018 	sw	v1,24(sp)
9d00d4b0:	afa30014 	sw	v1,20(sp)
9d00d4b4:	3c039d01 	lui	v1,0x9d01
9d00d4b8:	2463e070 	addiu	v1,v1,-8080
9d00d4bc:	afa30028 	sw	v1,40(sp)
9d00d4c0:	0f400d56 	jal	9d003558 <_do_print_cdfFnopsuxX>
9d00d4c4:	afa2002c 	sw	v0,44(sp)
9d00d4c8:	8fa30014 	lw	v1,20(sp)
9d00d4cc:	a0600000 	sb	zero,0(v1)
9d00d4d0:	8fbf0034 	lw	ra,52(sp)
9d00d4d4:	03e00008 	jr	ra
9d00d4d8:	27bd0038 	addiu	sp,sp,56

Disassembly of section .text.__sputn:

9d00d4dc <__sputn>:
9d00d4dc:	27bdffd8 	addiu	sp,sp,-40
9d00d4e0:	afbf0024 	sw	ra,36(sp)
9d00d4e4:	afb30020 	sw	s3,32(sp)
9d00d4e8:	afb2001c 	sw	s2,28(sp)
9d00d4ec:	afb10018 	sw	s1,24(sp)
9d00d4f0:	afb00014 	sw	s0,20(sp)
9d00d4f4:	00808021 	move	s0,a0
9d00d4f8:	00c09021 	move	s2,a2
9d00d4fc:	00858821 	addu	s1,a0,a1
9d00d500:	0b403547 	j	9d00d51c <__sputn+0x40>
9d00d504:	2413ffff 	li	s3,-1
9d00d508:	26100001 	addiu	s0,s0,1
9d00d50c:	0f4032d3 	jal	9d00cb4c <fputc>
9d00d510:	8204ffff 	lb	a0,-1(s0)
9d00d514:	10530005 	beq	v0,s3,9d00d52c <__sputn+0x50>
9d00d518:	8fbf0024 	lw	ra,36(sp)
9d00d51c:	1611fffa 	bne	s0,s1,9d00d508 <__sputn+0x2c>
9d00d520:	02402821 	move	a1,s2
9d00d524:	00001021 	move	v0,zero
9d00d528:	8fbf0024 	lw	ra,36(sp)
9d00d52c:	8fb30020 	lw	s3,32(sp)
9d00d530:	8fb2001c 	lw	s2,28(sp)
9d00d534:	8fb10018 	lw	s1,24(sp)
9d00d538:	8fb00014 	lw	s0,20(sp)
9d00d53c:	03e00008 	jr	ra
9d00d540:	27bd0028 	addiu	sp,sp,40

Disassembly of section .text.memmove:

9d00d544 <memmove>:
9d00d544:	27bdffe8 	addiu	sp,sp,-24
9d00d548:	0085102b 	sltu	v0,a0,a1
9d00d54c:	14400012 	bnez	v0,9d00d598 <memmove+0x54>
9d00d550:	afbf0014 	sw	ra,20(sp)
9d00d554:	00a61021 	addu	v0,a1,a2
9d00d558:	0082102b 	sltu	v0,a0,v0
9d00d55c:	1040000e 	beqz	v0,9d00d598 <memmove+0x54>
9d00d560:	24c2ffff 	addiu	v0,a2,-1
9d00d564:	00821821 	addu	v1,a0,v0
9d00d568:	00a22821 	addu	a1,a1,v0
9d00d56c:	10c00006 	beqz	a2,9d00d588 <memmove+0x44>
9d00d570:	00663823 	subu	a3,v1,a2
9d00d574:	24a5ffff 	addiu	a1,a1,-1
9d00d578:	90a60001 	lbu	a2,1(a1)
9d00d57c:	2463ffff 	addiu	v1,v1,-1
9d00d580:	1467fffc 	bne	v1,a3,9d00d574 <memmove+0x30>
9d00d584:	a0660001 	sb	a2,1(v1)
9d00d588:	00801021 	move	v0,a0
9d00d58c:	8fbf0014 	lw	ra,20(sp)
9d00d590:	03e00008 	jr	ra
9d00d594:	27bd0018 	addiu	sp,sp,24
9d00d598:	0f403759 	jal	9d00dd64 <memcpy>
9d00d59c:	00000000 	nop
9d00d5a0:	8fbf0014 	lw	ra,20(sp)
9d00d5a4:	03e00008 	jr	ra
9d00d5a8:	27bd0018 	addiu	sp,sp,24

Disassembly of section .text._bufalloc:

9d00d5ac <_bufalloc>:
9d00d5ac:	27bdffe8 	addiu	sp,sp,-24
9d00d5b0:	afbf0014 	sw	ra,20(sp)
9d00d5b4:	afb00010 	sw	s0,16(sp)
9d00d5b8:	00808021 	move	s0,a0
9d00d5bc:	8c84000c 	lw	a0,12(a0)
9d00d5c0:	5880000e 	blezl	a0,9d00d5fc <_bufalloc+0x50>
9d00d5c4:	ae00000c 	sw	zero,12(s0)
9d00d5c8:	0f40100e 	jal	9d004038 <malloc>
9d00d5cc:	00000000 	nop
9d00d5d0:	10400009 	beqz	v0,9d00d5f8 <_bufalloc+0x4c>
9d00d5d4:	ae020008 	sw	v0,8(s0)
9d00d5d8:	96030010 	lhu	v1,16(s0)
9d00d5dc:	ae020004 	sw	v0,4(s0)
9d00d5e0:	34620010 	ori	v0,v1,0x10
9d00d5e4:	a6020010 	sh	v0,16(s0)
9d00d5e8:	8fbf0014 	lw	ra,20(sp)
9d00d5ec:	8fb00010 	lw	s0,16(sp)
9d00d5f0:	03e00008 	jr	ra
9d00d5f4:	27bd0018 	addiu	sp,sp,24
9d00d5f8:	ae00000c 	sw	zero,12(s0)
9d00d5fc:	2402ffff 	li	v0,-1
9d00d600:	ae020004 	sw	v0,4(s0)
9d00d604:	8fbf0014 	lw	ra,20(sp)
9d00d608:	8fb00010 	lw	s0,16(sp)
9d00d60c:	03e00008 	jr	ra
9d00d610:	27bd0018 	addiu	sp,sp,24

Disassembly of section .text.sqrtf:

9d00d614 <sqrtf>:
9d00d614:	27bdffe8 	addiu	sp,sp,-24

9d00d618 <.LCFI0>:
9d00d618:	afbf0014 	sw	ra,20(sp)
9d00d61c:	afb00010 	sw	s0,16(sp)
9d00d620:	3c02a000 	lui	v0,0xa000
9d00d624:	8c421144 	lw	v0,4420(v0)
9d00d628:	30420001 	andi	v0,v0,0x1
9d00d62c:	10400005 	beqz	v0,9d00d644 <.LCFI0+0x2c>
9d00d630:	00808021 	move	s0,a0
9d00d634:	0f4033f1 	jal	9d00cfc4 <__eqsf2>
9d00d638:	00002821 	move	a1,zero
9d00d63c:	04400007 	bltz	v0,9d00d65c <.LCFI0+0x44>
9d00d640:	24030021 	li	v1,33
9d00d644:	0f402b11 	jal	9d00ac44 <__mchp_sqrtf>
9d00d648:	02002021 	move	a0,s0
9d00d64c:	8fbf0014 	lw	ra,20(sp)
9d00d650:	8fb00010 	lw	s0,16(sp)
9d00d654:	03e00008 	jr	ra
9d00d658:	27bd0018 	addiu	sp,sp,24
9d00d65c:	3c02a000 	lui	v0,0xa000
9d00d660:	ac430318 	sw	v1,792(v0)
9d00d664:	0f402b11 	jal	9d00ac44 <__mchp_sqrtf>
9d00d668:	02002021 	move	a0,s0
9d00d66c:	8fbf0014 	lw	ra,20(sp)
9d00d670:	8fb00010 	lw	s0,16(sp)
9d00d674:	03e00008 	jr	ra
9d00d678:	27bd0018 	addiu	sp,sp,24

Disassembly of section .text.gsgetc:

9d00d67c <gsgetc>:
9d00d67c:	27bdffe0 	addiu	sp,sp,-32
9d00d680:	afbf001c 	sw	ra,28(sp)
9d00d684:	afb10018 	sw	s1,24(sp)
9d00d688:	afb00014 	sw	s0,20(sp)
9d00d68c:	8c820004 	lw	v0,4(a0)
9d00d690:	2411ffff 	li	s1,-1
9d00d694:	1051000a 	beq	v0,s1,9d00d6c0 <gsgetc+0x44>
9d00d698:	00808021 	move	s0,a0
9d00d69c:	ac910004 	sw	s1,4(a0)
9d00d6a0:	8e030010 	lw	v1,16(s0)
9d00d6a4:	24630001 	addiu	v1,v1,1
9d00d6a8:	ae030010 	sw	v1,16(s0)
9d00d6ac:	8fbf001c 	lw	ra,28(sp)
9d00d6b0:	8fb10018 	lw	s1,24(sp)
9d00d6b4:	8fb00014 	lw	s0,20(sp)
9d00d6b8:	03e00008 	jr	ra
9d00d6bc:	27bd0020 	addiu	sp,sp,32
9d00d6c0:	0f4034c3 	jal	9d00d30c <fgetc>
9d00d6c4:	8c840000 	lw	a0,0(a0)
9d00d6c8:	1451fff5 	bne	v0,s1,9d00d6a0 <gsgetc+0x24>
9d00d6cc:	8fbf001c 	lw	ra,28(sp)
9d00d6d0:	8fb10018 	lw	s1,24(sp)
9d00d6d4:	8fb00014 	lw	s0,20(sp)
9d00d6d8:	03e00008 	jr	ra
9d00d6dc:	27bd0020 	addiu	sp,sp,32

Disassembly of section .text._buffree:

9d00d6e0 <_buffree>:
9d00d6e0:	27bdffe8 	addiu	sp,sp,-24
9d00d6e4:	afbf0014 	sw	ra,20(sp)
9d00d6e8:	afb00010 	sw	s0,16(sp)
9d00d6ec:	00808021 	move	s0,a0
9d00d6f0:	8c840008 	lw	a0,8(a0)
9d00d6f4:	10800010 	beqz	a0,9d00d738 <_buffree+0x58>
9d00d6f8:	8fbf0014 	lw	ra,20(sp)
9d00d6fc:	96020010 	lhu	v0,16(s0)
9d00d700:	30420010 	andi	v0,v0,0x10
9d00d704:	5040000d 	beqzl	v0,9d00d73c <_buffree+0x5c>
9d00d708:	8fb00010 	lw	s0,16(sp)
9d00d70c:	0f402737 	jal	9d009cdc <free>
9d00d710:	00000000 	nop
9d00d714:	96020010 	lhu	v0,16(s0)
9d00d718:	ae000008 	sw	zero,8(s0)
9d00d71c:	7c0220c4 	ins	v0,zero,0x3,0x2
9d00d720:	ae00000c 	sw	zero,12(s0)
9d00d724:	ae000000 	sw	zero,0(s0)
9d00d728:	2403ffff 	li	v1,-1
9d00d72c:	ae030004 	sw	v1,4(s0)
9d00d730:	a6020010 	sh	v0,16(s0)
9d00d734:	8fbf0014 	lw	ra,20(sp)
9d00d738:	8fb00010 	lw	s0,16(sp)
9d00d73c:	03e00008 	jr	ra
9d00d740:	27bd0018 	addiu	sp,sp,24

Disassembly of section .text.sitofp:

9d00d744 <__floatsisf>:
9d00d744:	3c018000 10800012 00813024 04810002     ...<....$0......
9d00d754:	00000000 00042023                       ....# ..

9d00d75c <i40>:
9d00d75c:	2405009e 	li	a1,158
9d00d760:	70873820 	clz	a3,a0
9d00d764:	00a72823 	subu	a1,a1,a3
9d00d768:	00e42004 	sllv	a0,a0,a3
9d00d76c:	24840080 	addiu	a0,a0,128
9d00d770:	2c880080 	sltiu	t0,a0,128
9d00d774:	00a82821 	addu	a1,a1,t0
9d00d778:	00044203 	sra	t0,a0,0x8
9d00d77c:	31080001 	andi	t0,t0,0x1
9d00d780:	00882023 	subu	a0,a0,t0
9d00d784:	00042040 	sll	a0,a0,0x1
9d00d788:	00042242 	srl	a0,a0,0x9
9d00d78c:	000545c0 	sll	t0,a1,0x17
9d00d790:	00882025 	or	a0,a0,t0

9d00d794 <i39>:
9d00d794:	00861025 	or	v0,a0,a2

9d00d798 <E999>:
9d00d798:	03e00008 	jr	ra
9d00d79c:	00000000 	nop
9d00d7a0:	00000000 	nop

Disassembly of section .text.copysign:

9d00d7a4 <copysign>:
9d00d7a4:	27bdffd8 	addiu	sp,sp,-40

9d00d7a8 <.LCFI0>:
9d00d7a8:	afbf0024 	sw	ra,36(sp)
9d00d7ac:	afb00020 	sw	s0,32(sp)
9d00d7b0:	0f4032fe 	jal	9d00cbf8 <__extendsfdf2>
9d00d7b4:	00a08021 	move	s0,a1
9d00d7b8:	02002021 	move	a0,s0
9d00d7bc:	afa20018 	sw	v0,24(sp)
9d00d7c0:	0f4032fe 	jal	9d00cbf8 <__extendsfdf2>
9d00d7c4:	afa3001c 	sw	v1,28(sp)
9d00d7c8:	afa20010 	sw	v0,16(sp)
9d00d7cc:	afa30014 	sw	v1,20(sp)
9d00d7d0:	97a3001e 	lhu	v1,30(sp)
9d00d7d4:	97a20016 	lhu	v0,22(sp)
9d00d7d8:	30637fff 	andi	v1,v1,0x7fff
9d00d7dc:	7c027004 	ins	v0,zero,0x0,0xf
9d00d7e0:	00431025 	or	v0,v0,v1
9d00d7e4:	a7a2001e 	sh	v0,30(sp)
9d00d7e8:	8fa40018 	lw	a0,24(sp)
9d00d7ec:	0f4030a1 	jal	9d00c284 <.LFE23>
9d00d7f0:	8fa5001c 	lw	a1,28(sp)
9d00d7f4:	8fbf0024 	lw	ra,36(sp)
9d00d7f8:	8fb00020 	lw	s0,32(sp)
9d00d7fc:	03e00008 	jr	ra
9d00d800:	27bd0028 	addiu	sp,sp,40

Disassembly of section .text.copysignf:

9d00d804 <copysignf>:
9d00d804:	27bdffd8 	addiu	sp,sp,-40

9d00d808 <.LCFI2>:
9d00d808:	afbf0024 	sw	ra,36(sp)
9d00d80c:	afb00020 	sw	s0,32(sp)
9d00d810:	0f4032fe 	jal	9d00cbf8 <__extendsfdf2>
9d00d814:	00a08021 	move	s0,a1
9d00d818:	02002021 	move	a0,s0
9d00d81c:	afa20018 	sw	v0,24(sp)
9d00d820:	0f4032fe 	jal	9d00cbf8 <__extendsfdf2>
9d00d824:	afa3001c 	sw	v1,28(sp)
9d00d828:	afa20010 	sw	v0,16(sp)
9d00d82c:	afa30014 	sw	v1,20(sp)
9d00d830:	97a3001e 	lhu	v1,30(sp)
9d00d834:	97a20016 	lhu	v0,22(sp)
9d00d838:	30637fff 	andi	v1,v1,0x7fff
9d00d83c:	7c027004 	ins	v0,zero,0x0,0xf
9d00d840:	00431025 	or	v0,v0,v1
9d00d844:	a7a2001e 	sh	v0,30(sp)
9d00d848:	8fa40018 	lw	a0,24(sp)
9d00d84c:	0f4030a1 	jal	9d00c284 <.LFE23>
9d00d850:	8fa5001c 	lw	a1,28(sp)
9d00d854:	8fbf0024 	lw	ra,36(sp)
9d00d858:	8fb00020 	lw	s0,32(sp)
9d00d85c:	03e00008 	jr	ra
9d00d860:	27bd0028 	addiu	sp,sp,40

Disassembly of section .text.main_entry:

9d00d864 <_main_entry>:
9d00d864:	3c040000 	lui	a0,0x0
9d00d868:	27bdffe8 	addiu	sp,sp,-24
9d00d86c:	24840000 	addiu	a0,a0,0
9d00d870:	10800003 	beqz	a0,9d00d880 <_main_entry+0x1c>
9d00d874:	afbf0014 	sw	ra,20(sp)
9d00d878:	0080f809 	jalr	a0
9d00d87c:	00000000 	nop
9d00d880:	30840000 	andi	a0,a0,0x0
9d00d884:	30a50000 	andi	a1,a1,0x0
9d00d888:	3c089d00 	lui	t0,0x9d00
9d00d88c:	25087820 	addiu	t0,t0,30752
9d00d890:	0100f809 	jalr	t0
9d00d894:	00000000 	nop

9d00d898 <__crt0_exit>:
9d00d898:	3c020000 24420000 10400003 00000000     ...<..B$..@.....
9d00d8a8:	0040f809 00000000 1000fff9 00000000     ..@.............

Disassembly of section .rodata:

9d00d8b8 <zeroData-0x8>:
9d00d8b8:	6c756e28 	0x6c756e28
9d00d8bc:	0000296c 	0x296c

9d00d8c0 <zeroData>:
9d00d8c0:	30303030 30303030 30303030 30303030     0000000000000000
9d00d8d0:	30303030 30303030 30303030 30303030     0000000000000000

9d00d8e0 <spaceData>:
9d00d8e0:	20202020 20202020 20202020 20202020                     
9d00d8f0:	20202020 20202020 20202020 20202020                     
9d00d900:	41200000 3c23d70a 40800000              .. A..#<...@

Disassembly of section .text.sbrk:

9d00d90c <sbrk>:
9d00d90c:	27bdffe0 	addiu	sp,sp,-32

9d00d910 <.LCFI4>:
9d00d910:	afbf001c 	sw	ra,28(sp)
9d00d914:	afb10018 	sw	s1,24(sp)
9d00d918:	afb00014 	sw	s0,20(sp)
9d00d91c:	0f403276 	jal	9d00c9d8 <.LFE0>
9d00d920:	00808821 	move	s1,a0
9d00d924:	1a200007 	blez	s1,9d00d944 <.LCFI4+0x34>
9d00d928:	00408021 	move	s0,v0
9d00d92c:	2402ffff 	li	v0,-1
9d00d930:	12020004 	beq	s0,v0,9d00d944 <.LCFI4+0x34>
9d00d934:	02002021 	move	a0,s0
9d00d938:	00002821 	move	a1,zero
9d00d93c:	0f40376f 	jal	9d00ddbc <.LFE1>
9d00d940:	02203021 	move	a2,s1
9d00d944:	02001021 	move	v0,s0
9d00d948:	8fbf001c 	lw	ra,28(sp)
9d00d94c:	8fb10018 	lw	s1,24(sp)
9d00d950:	8fb00014 	lw	s0,20(sp)
9d00d954:	03e00008 	jr	ra
9d00d958:	27bd0020 	addiu	sp,sp,32

Disassembly of section .text._mon_write:

9d00d95c <_mon_write>:
9d00d95c:	27bdffe0 	addiu	sp,sp,-32

9d00d960 <.LCFI0>:
9d00d960:	afbf001c 	sw	ra,28(sp)
9d00d964:	afb10018 	sw	s1,24(sp)
9d00d968:	afb00014 	sw	s0,20(sp)
9d00d96c:	10800009 	beqz	a0,9d00d994 <.LCFI0+0x34>
9d00d970:	00808021 	move	s0,a0
9d00d974:	10a00007 	beqz	a1,9d00d994 <.LCFI0+0x34>
9d00d978:	00a08821 	move	s1,a1
9d00d97c:	82040000 	lb	a0,0(s0)
9d00d980:	2631ffff 	addiu	s1,s1,-1
9d00d984:	0f403241 	jal	9d00c904 <_mon_putc>
9d00d988:	26100001 	addiu	s0,s0,1
9d00d98c:	5620fffc 	bnezl	s1,9d00d980 <.LCFI0+0x20>
9d00d990:	82040000 	lb	a0,0(s0)
9d00d994:	8fbf001c 	lw	ra,28(sp)
9d00d998:	8fb10018 	lw	s1,24(sp)
9d00d99c:	8fb00014 	lw	s0,20(sp)
9d00d9a0:	03e00008 	jr	ra
9d00d9a4:	27bd0020 	addiu	sp,sp,32

Disassembly of section .text._bootstrap_exception_handler:

9d00d9a8 <_bootstrap_exception_handler>:
9d00d9a8:	3c020000 	lui	v0,0x0
9d00d9ac:	24420000 	addiu	v0,v0,0
9d00d9b0:	10400005 	beqz	v0,9d00d9c8 <_bootstrap_exception_handler+0x20>
9d00d9b4:	3c020000 	lui	v0,0x0
9d00d9b8:	24420000 	addiu	v0,v0,0
9d00d9bc:	10400003 	beqz	v0,9d00d9cc <_bootstrap_exception_handler+0x24>
9d00d9c0:	3c029d01 	lui	v0,0x9d01
9d00d9c4:	7000003f 	sdbbp
9d00d9c8:	3c029d01 	lui	v0,0x9d01
9d00d9cc:	2442dac8 	addiu	v0,v0,-9528
9d00d9d0:	10400005 	beqz	v0,9d00d9e8 <.LCFI2>
9d00d9d4:	00000000 	nop
9d00d9d8:	27bdffe8 	addiu	sp,sp,-24

9d00d9dc <.LCFI0>:
9d00d9dc:	afbf0014 	sw	ra,20(sp)
9d00d9e0:	0040f809 	jalr	v0
9d00d9e4:	00000000 	nop

9d00d9e8 <.LCFI2>:
9d00d9e8:	0b40367a 	j	9d00d9e8 <.LCFI2>
9d00d9ec:	00000000 	nop

Disassembly of section .text._general_exception_handler:

9d00d9f0 <_general_exception_handler>:
9d00d9f0:	3c020000 	lui	v0,0x0
9d00d9f4:	24420000 	addiu	v0,v0,0
9d00d9f8:	10400005 	beqz	v0,9d00da10 <_general_exception_handler+0x20>
9d00d9fc:	3c020000 	lui	v0,0x0
9d00da00:	24420000 	addiu	v0,v0,0
9d00da04:	10400003 	beqz	v0,9d00da14 <_general_exception_handler+0x24>
9d00da08:	3c029d01 	lui	v0,0x9d01
9d00da0c:	7000003f 	sdbbp
9d00da10:	3c029d01 	lui	v0,0x9d01
9d00da14:	2442dac8 	addiu	v0,v0,-9528
9d00da18:	10400005 	beqz	v0,9d00da30 <.LCFI2>
9d00da1c:	00000000 	nop
9d00da20:	27bdffe8 	addiu	sp,sp,-24

9d00da24 <.LCFI0>:
9d00da24:	afbf0014 	sw	ra,20(sp)
9d00da28:	0040f809 	jalr	v0
9d00da2c:	00000000 	nop

9d00da30 <.LCFI2>:
9d00da30:	0b40368c 	j	9d00da30 <.LCFI2>
9d00da34:	00000000 	nop

Disassembly of section .vector_default:

9d00da38 <_DefaultInterrupt>:
9d00da38:	3c020000 	lui	v0,0x0
9d00da3c:	24420000 	addiu	v0,v0,0
9d00da40:	10400007 	beqz	v0,9d00da60 <_DefaultInterrupt+0x28>
9d00da44:	3c020000 	lui	v0,0x0
9d00da48:	24420000 	addiu	v0,v0,0
9d00da4c:	50400005 	beqzl	v0,9d00da64 <_DefaultInterrupt+0x2c>
9d00da50:	3c029d01 	lui	v0,0x9d01
9d00da54:	7000003f 	sdbbp
9d00da58:	03e00008 	jr	ra
9d00da5c:	00000000 	nop
9d00da60:	3c029d01 	lui	v0,0x9d01
9d00da64:	2442dac8 	addiu	v0,v0,-9528
9d00da68:	10400003 	beqz	v0,9d00da78 <_DefaultInterrupt+0x40>
9d00da6c:	00000000 	nop
9d00da70:	0040f809 	jalr	v0
9d00da74:	00000000 	nop
9d00da78:	03e00008 	jr	ra
9d00da7c:	00000000 	nop

Disassembly of section .rodata:

9d00da80 <f5pow>:
9d00da80:	00000000 40140000 00000000 40390000     .......@......9@
9d00da90:	00000000 40838800 00000000 4117d784     .......@.......A
9d00daa0:	37e08000 4241c379 b5056e17 4493b8b5     ...7y.AB.n.....D
9d00dab0:	e93ff9f5 49384f03 f9301d32 52827748     ..?..O8I2.0.Hw.R
9d00dac0:	7f73bf3c 65154fdd                       <.s..O.e

Disassembly of section .text:

9d00dac8 <__pic32_software_reset>:
9d00dac8:	41606000 	di
9d00dacc:	000000c0 	ehb
9d00dad0:	3c03aa99 	lui	v1,0xaa99
9d00dad4:	3c02bf81 	lui	v0,0xbf81
9d00dad8:	24636655 	addiu	v1,v1,26197
9d00dadc:	ac40f230 	sw	zero,-3536(v0)
9d00dae0:	ac43f230 	sw	v1,-3536(v0)
9d00dae4:	3c035566 	lui	v1,0x5566
9d00dae8:	346399aa 	ori	v1,v1,0x99aa
9d00daec:	ac43f230 	sw	v1,-3536(v0)
9d00daf0:	3c02bf81 	lui	v0,0xbf81
9d00daf4:	24030001 	li	v1,1
9d00daf8:	ac43f618 	sw	v1,-2536(v0)
9d00dafc:	3c02bf81 	lui	v0,0xbf81
9d00db00:	8c42f610 	lw	v0,-2544(v0)
9d00db04:	0b4036b4 	j	9d00dad0 <__pic32_software_reset+0x8>
9d00db08:	00000000 	nop

Disassembly of section .text._io_exit:

9d00db0c <.text._io_exit>:
9d00db0c:	27bdffe8 	addiu	sp,sp,-24
9d00db10:	afbf0014 	sw	ra,20(sp)
9d00db14:	afb00010 	sw	s0,16(sp)
9d00db18:	3c10a000 	lui	s0,0xa000
9d00db1c:	0f40383f 	jal	9d00e0fc <_weak_pthread_mutex_lock>
9d00db20:	2604111c 	addiu	a0,s0,4380
9d00db24:	3c02a000 	lui	v0,0xa000
9d00db28:	8c420080 	lw	v0,128(v0)
9d00db2c:	2604111c 	addiu	a0,s0,4380
9d00db30:	24030001 	li	v1,1
9d00db34:	0f403843 	jal	9d00e10c <_weak_pthread_mutex_unlock>
9d00db38:	ac430038 	sw	v1,56(v0)
9d00db3c:	8fbf0014 	lw	ra,20(sp)
9d00db40:	8fb00010 	lw	s0,16(sp)
9d00db44:	03e00008 	jr	ra
9d00db48:	27bd0018 	addiu	sp,sp,24

Disassembly of section .text:

9d00db4c <__lshrdi3>:
9d00db4c:	10c00009 	beqz	a2,9d00db74 <__lshrdi3+0x28>
9d00db50:	00801021 	move	v0,a0
9d00db54:	24020020 	li	v0,32
9d00db58:	00461023 	subu	v0,v0,a2
9d00db5c:	18400007 	blez	v0,9d00db7c <__lshrdi3+0x30>
9d00db60:	00c42006 	srlv	a0,a0,a2
9d00db64:	00451004 	sllv	v0,a1,v0
9d00db68:	00c51806 	srlv	v1,a1,a2
9d00db6c:	03e00008 	jr	ra
9d00db70:	00441025 	or	v0,v0,a0
9d00db74:	03e00008 	jr	ra
9d00db78:	00a01821 	move	v1,a1
9d00db7c:	00021023 	negu	v0,v0
9d00db80:	00001821 	move	v1,zero
9d00db84:	03e00008 	jr	ra
9d00db88:	00451006 	srlv	v0,a1,v0

9d00db8c <__ashldi3>:
9d00db8c:	10c00009 	beqz	a2,9d00dbb4 <__ashldi3+0x28>
9d00db90:	00801021 	move	v0,a0
9d00db94:	24030020 	li	v1,32
9d00db98:	00661823 	subu	v1,v1,a2
9d00db9c:	18600007 	blez	v1,9d00dbbc <__ashldi3+0x30>
9d00dba0:	00c52804 	sllv	a1,a1,a2
9d00dba4:	00641806 	srlv	v1,a0,v1
9d00dba8:	00c41004 	sllv	v0,a0,a2
9d00dbac:	03e00008 	jr	ra
9d00dbb0:	00651825 	or	v1,v1,a1
9d00dbb4:	03e00008 	jr	ra
9d00dbb8:	00a01821 	move	v1,a1
9d00dbbc:	00031823 	negu	v1,v1
9d00dbc0:	00001021 	move	v0,zero
9d00dbc4:	03e00008 	jr	ra
9d00dbc8:	00641804 	sllv	v1,a0,v1

Disassembly of section .text._weak_pthread_once:

9d00dbcc <_weak_pthread_once>:
9d00dbcc:	8c820000 	lw	v0,0(a0)
9d00dbd0:	10400003 	beqz	v0,9d00dbe0 <_weak_pthread_once+0x14>
9d00dbd4:	00001021 	move	v0,zero
9d00dbd8:	03e00008 	jr	ra
9d00dbdc:	00000000 	nop
9d00dbe0:	27bdffe8 	addiu	sp,sp,-24
9d00dbe4:	afbf0014 	sw	ra,20(sp)
9d00dbe8:	24020002 	li	v0,2
9d00dbec:	00a0f809 	jalr	a1
9d00dbf0:	ac820000 	sw	v0,0(a0)
9d00dbf4:	00001021 	move	v0,zero
9d00dbf8:	8fbf0014 	lw	ra,20(sp)
9d00dbfc:	03e00008 	jr	ra
9d00dc00:	27bd0018 	addiu	sp,sp,24

Disassembly of section .text._filbuf_simple:

9d00dc04 <_filbuf_simple>:
9d00dc04:	8c820004 	lw	v0,4(a0)
9d00dc08:	2403ffff 	li	v1,-1
9d00dc0c:	10430003 	beq	v0,v1,9d00dc1c <_filbuf_simple+0x18>
9d00dc10:	ac800000 	sw	zero,0(a0)
9d00dc14:	03e00008 	jr	ra
9d00dc18:	ac830004 	sw	v1,4(a0)
9d00dc1c:	27bdffe8 	addiu	sp,sp,-24
9d00dc20:	afbf0014 	sw	ra,20(sp)
9d00dc24:	0f40319c 	jal	9d00c670 <_mon_getc>
9d00dc28:	24040001 	li	a0,1
9d00dc2c:	8fbf0014 	lw	ra,20(sp)
9d00dc30:	03e00008 	jr	ra
9d00dc34:	27bd0018 	addiu	sp,sp,24

Disassembly of section .text.copysignl:

9d00dc38 <copysignl>:
9d00dc38:	afa40000 	sw	a0,0(sp)
9d00dc3c:	afa50004 	sw	a1,4(sp)
9d00dc40:	afa60008 	sw	a2,8(sp)
9d00dc44:	afa7000c 	sw	a3,12(sp)
9d00dc48:	97a30006 	lhu	v1,6(sp)
9d00dc4c:	97a2000e 	lhu	v0,14(sp)
9d00dc50:	30637fff 	andi	v1,v1,0x7fff
9d00dc54:	7c027004 	ins	v0,zero,0x0,0xf
9d00dc58:	00431025 	or	v0,v0,v1
9d00dc5c:	a7a20006 	sh	v0,6(sp)
9d00dc60:	8fa20000 	lw	v0,0(sp)
9d00dc64:	03e00008 	jr	ra
9d00dc68:	8fa30004 	lw	v1,4(sp)

Disassembly of section .text.finite:

9d00dc6c <finite>:
9d00dc6c:	27bdffe0 	addiu	sp,sp,-32

9d00dc70 <.LCFI10>:
9d00dc70:	afbf001c 	sw	ra,28(sp)
9d00dc74:	0f4032fe 	jal	9d00cbf8 <__extendsfdf2>
9d00dc78:	00000000 	nop
9d00dc7c:	afa20010 	sw	v0,16(sp)
9d00dc80:	afa30014 	sw	v1,20(sp)
9d00dc84:	97a20016 	lhu	v0,22(sp)
9d00dc88:	30427ff0 	andi	v0,v0,0x7ff0
9d00dc8c:	38427ff0 	xori	v0,v0,0x7ff0
9d00dc90:	0002102b 	sltu	v0,zero,v0
9d00dc94:	8fbf001c 	lw	ra,28(sp)
9d00dc98:	03e00008 	jr	ra
9d00dc9c:	27bd0020 	addiu	sp,sp,32

Disassembly of section .text.finitef:

9d00dca0 <finitef>:
9d00dca0:	27bdffe0 	addiu	sp,sp,-32

9d00dca4 <.LCFI12>:
9d00dca4:	afbf001c 	sw	ra,28(sp)
9d00dca8:	0f4032fe 	jal	9d00cbf8 <__extendsfdf2>
9d00dcac:	00000000 	nop
9d00dcb0:	afa20010 	sw	v0,16(sp)
9d00dcb4:	afa30014 	sw	v1,20(sp)
9d00dcb8:	97a20016 	lhu	v0,22(sp)
9d00dcbc:	30427ff0 	andi	v0,v0,0x7ff0
9d00dcc0:	38427ff0 	xori	v0,v0,0x7ff0
9d00dcc4:	0002102b 	sltu	v0,zero,v0
9d00dcc8:	8fbf001c 	lw	ra,28(sp)
9d00dccc:	03e00008 	jr	ra
9d00dcd0:	27bd0020 	addiu	sp,sp,32

Disassembly of section .text._fsync_simple:

9d00dcd4 <_fsync_simple>:
9d00dcd4:	94830010 	lhu	v1,16(a0)
9d00dcd8:	00a32824 	and	a1,a1,v1
9d00dcdc:	10a00007 	beqz	a1,9d00dcfc <_fsync_simple+0x28>
9d00dce0:	24020001 	li	v0,1
9d00dce4:	34630040 	ori	v1,v1,0x40
9d00dce8:	a4830010 	sh	v1,16(a0)
9d00dcec:	24030009 	li	v1,9
9d00dcf0:	3c02a000 	lui	v0,0xa000
9d00dcf4:	ac430318 	sw	v1,792(v0)
9d00dcf8:	00001021 	move	v0,zero
9d00dcfc:	03e00008 	jr	ra
9d00dd00:	00000000 	nop

Disassembly of section .rodata:

9d00dd04 <.rodata>:
9d00dd04:	33323130 	andi	s2,t9,0x3130
9d00dd08:	37363534 	ori	s6,t9,0x3534
9d00dd0c:	00000000 	nop
9d00dd10:	33323130 	andi	s2,t9,0x3130
9d00dd14:	37363534 	ori	s6,t9,0x3534
9d00dd18:	42413938 	c0	0x413938
9d00dd1c:	46454443 	c1	0x454443
9d00dd20:	64636261 	0x64636261
9d00dd24:	00006665 	0x6665
9d00dd28:	33323130 	andi	s2,t9,0x3130
9d00dd2c:	37363534 	ori	s6,t9,0x3534
9d00dd30:	00003938 	0x3938

Disassembly of section .text._cleanup:

9d00dd34 <_cleanup>:
9d00dd34:	3c02a000 	lui	v0,0xa000
9d00dd38:	8c421140 	lw	v0,4416(v0)
9d00dd3c:	10400007 	beqz	v0,9d00dd5c <_cleanup+0x28>
9d00dd40:	00000000 	nop
9d00dd44:	27bdffe8 	addiu	sp,sp,-24
9d00dd48:	afbf0014 	sw	ra,20(sp)
9d00dd4c:	0040f809 	jalr	v0
9d00dd50:	00000000 	nop
9d00dd54:	8fbf0014 	lw	ra,20(sp)
9d00dd58:	27bd0018 	addiu	sp,sp,24
9d00dd5c:	03e00008 	jr	ra
9d00dd60:	00000000 	nop

Disassembly of section .text.memcpy:

9d00dd64 <memcpy>:
9d00dd64:	00801021 	move	v0,a0
9d00dd68:	00863821 	addu	a3,a0,a2
9d00dd6c:	10c00006 	beqz	a2,9d00dd88 <memcpy+0x24>
9d00dd70:	00801821 	move	v1,a0
9d00dd74:	24a50001 	addiu	a1,a1,1
9d00dd78:	90a6ffff 	lbu	a2,-1(a1)
9d00dd7c:	24630001 	addiu	v1,v1,1
9d00dd80:	1467fffc 	bne	v1,a3,9d00dd74 <memcpy+0x10>
9d00dd84:	a066ffff 	sb	a2,-1(v1)
9d00dd88:	03e00008 	jr	ra
9d00dd8c:	00000000 	nop

Disassembly of section .text._stub_sbd_memlayout:

9d00dd90 <_stub_sbd_memlayout>:
9d00dd90:	3c03a000 	lui	v1,0xa000
9d00dd94:	246210f8 	addiu	v0,v1,4344
9d00dd98:	24040001 	li	a0,1
9d00dd9c:	ac440008 	sw	a0,8(v0)
9d00dda0:	3c04a000 	lui	a0,0xa000
9d00dda4:	24841150 	addiu	a0,a0,4432
9d00dda8:	ac6410f8 	sw	a0,4344(v1)
9d00ddac:	3c030000 	lui	v1,0x0
9d00ddb0:	24630000 	addiu	v1,v1,0
9d00ddb4:	03e00008 	jr	ra
9d00ddb8:	ac430004 	sw	v1,4(v0)

Disassembly of section .text.memset:

9d00ddbc <memset>:
9d00ddbc:	10c00007 	beqz	a2,9d00dddc <memset+0x20>
9d00ddc0:	00801021 	move	v0,a0
9d00ddc4:	30a500ff 	andi	a1,a1,0xff
9d00ddc8:	00863021 	addu	a2,a0,a2
9d00ddcc:	00801821 	move	v1,a0
9d00ddd0:	24630001 	addiu	v1,v1,1
9d00ddd4:	1466fffe 	bne	v1,a2,9d00ddd0 <memset+0x14>
9d00ddd8:	a065ffff 	sb	a1,-1(v1)
9d00dddc:	03e00008 	jr	ra
9d00dde0:	00000000 	nop

Disassembly of section .text.strtod:

9d00dde4 <strtod>:
9d00dde4:	27bdffe8 	addiu	sp,sp,-24
9d00dde8:	afbf0014 	sw	ra,20(sp)
9d00ddec:	0f402021 	jal	9d008084 <__strtod>
9d00ddf0:	00000000 	nop
9d00ddf4:	00402021 	move	a0,v0
9d00ddf8:	0f4030a1 	jal	9d00c284 <.LFE23>
9d00ddfc:	00602821 	move	a1,v1
9d00de00:	8fbf0014 	lw	ra,20(sp)
9d00de04:	03e00008 	jr	ra
9d00de08:	27bd0018 	addiu	sp,sp,24

Disassembly of section .rodata:

9d00de10 <.rodata>:
9d00de10:	60000000 	0x60000000
9d00de14:	3fe921fb 	0x3fe921fb
9d00de18:	88000000 	lwl	zero,0(zero)
9d00de1c:	4002d97c 	0x4002d97c
9d00de20:	60000000 	0x60000000
9d00de24:	400921fb 	0x400921fb
9d00de28:	00000000 	nop
9d00de2c:	3ff00000 	0x3ff00000
9d00de30:	60000000 	0x60000000
9d00de34:	3ff921fb 	0x3ff921fb

Disassembly of section .text.logb:

9d00de38 <logb>:
9d00de38:	27bdffe8 	addiu	sp,sp,-24

9d00de3c <.LCFI6>:
9d00de3c:	afbf0014 	sw	ra,20(sp)
9d00de40:	0f402e82 	jal	9d00ba08 <logbl>
9d00de44:	00000000 	nop
9d00de48:	00402021 	move	a0,v0
9d00de4c:	0f4030a1 	jal	9d00c284 <.LFE23>
9d00de50:	00602821 	move	a1,v1
9d00de54:	8fbf0014 	lw	ra,20(sp)
9d00de58:	03e00008 	jr	ra
9d00de5c:	27bd0018 	addiu	sp,sp,24

Disassembly of section .text.logbf:

9d00de60 <logbf>:
9d00de60:	27bdffe8 	addiu	sp,sp,-24

9d00de64 <.LCFI8>:
9d00de64:	afbf0014 	sw	ra,20(sp)
9d00de68:	0f402e82 	jal	9d00ba08 <logbl>
9d00de6c:	00000000 	nop
9d00de70:	00402021 	move	a0,v0
9d00de74:	0f4030a1 	jal	9d00c284 <.LFE23>
9d00de78:	00602821 	move	a1,v1
9d00de7c:	8fbf0014 	lw	ra,20(sp)
9d00de80:	03e00008 	jr	ra
9d00de84:	27bd0018 	addiu	sp,sp,24

Disassembly of section .text.drem:

9d00de88 <drem>:
9d00de88:	27bdffe8 	addiu	sp,sp,-24

9d00de8c <.LCFI16>:
9d00de8c:	afbf0014 	sw	ra,20(sp)
9d00de90:	0f401abd 	jal	9d006af4 <.LFE1>
9d00de94:	00000000 	nop
9d00de98:	00402021 	move	a0,v0
9d00de9c:	0f4030a1 	jal	9d00c284 <.LFE23>
9d00dea0:	00602821 	move	a1,v1
9d00dea4:	8fbf0014 	lw	ra,20(sp)
9d00dea8:	03e00008 	jr	ra
9d00deac:	27bd0018 	addiu	sp,sp,24

Disassembly of section .text.dremf:

9d00deb0 <dremf>:
9d00deb0:	27bdffe8 	addiu	sp,sp,-24

9d00deb4 <.LCFI18>:
9d00deb4:	afbf0014 	sw	ra,20(sp)
9d00deb8:	0f401abd 	jal	9d006af4 <.LFE1>
9d00debc:	00000000 	nop
9d00dec0:	00402021 	move	a0,v0
9d00dec4:	0f4030a1 	jal	9d00c284 <.LFE23>
9d00dec8:	00602821 	move	a1,v1
9d00decc:	8fbf0014 	lw	ra,20(sp)
9d00ded0:	03e00008 	jr	ra
9d00ded4:	27bd0018 	addiu	sp,sp,24

Disassembly of section .text.putchar:

9d00ded8 <putchar>:
9d00ded8:	27bdffe8 	addiu	sp,sp,-24
9d00dedc:	afbf0014 	sw	ra,20(sp)
9d00dee0:	3c02a000 	lui	v0,0xa000
9d00dee4:	8c420080 	lw	v0,128(v0)
9d00dee8:	0f4032d3 	jal	9d00cb4c <fputc>
9d00deec:	8c450004 	lw	a1,4(v0)
9d00def0:	8fbf0014 	lw	ra,20(sp)
9d00def4:	03e00008 	jr	ra
9d00def8:	27bd0018 	addiu	sp,sp,24

Disassembly of section .text.getchar:

9d00defc <getchar>:
9d00defc:	27bdffe8 	addiu	sp,sp,-24
9d00df00:	afbf0014 	sw	ra,20(sp)
9d00df04:	3c02a000 	lui	v0,0xa000
9d00df08:	8c420080 	lw	v0,128(v0)
9d00df0c:	0f4034c3 	jal	9d00d30c <fgetc>
9d00df10:	8c440000 	lw	a0,0(v0)
9d00df14:	8fbf0014 	lw	ra,20(sp)
9d00df18:	03e00008 	jr	ra
9d00df1c:	27bd0018 	addiu	sp,sp,24

Disassembly of section .rodata:

9d00df20 <.rodata>:
9d00df20:	00000000 	nop
9d00df24:	c08ff000 	ll	t7,-4096(a0)
9d00df28:	3f800000 	0x3f800000
9d00df2c:	00000000 	nop
9d00df30:	30773b76 	andi	s7,v1,0x3b76
9d00df34:	7fde42d1 	pick.ph	t0,s8,s8
9d00df38:	00000000 	nop
9d00df3c:	3fe00000 	0x3fe00000

Disassembly of section .text._vfprintf_cdfFnopsuxX:

9d00df40 <_vfprintf_cdfFnopsuxX>:
9d00df40:	27bdffe8 	addiu	sp,sp,-24
9d00df44:	afbf0014 	sw	ra,20(sp)
9d00df48:	0f400d56 	jal	9d003558 <_do_print_cdfFnopsuxX>
9d00df4c:	00000000 	nop
9d00df50:	8fbf0014 	lw	ra,20(sp)
9d00df54:	03e00008 	jr	ra
9d00df58:	27bd0018 	addiu	sp,sp,24

Disassembly of section .text.putc:

9d00df5c <putc>:
9d00df5c:	27bdffe8 	addiu	sp,sp,-24
9d00df60:	afbf0014 	sw	ra,20(sp)
9d00df64:	0f4032d3 	jal	9d00cb4c <fputc>
9d00df68:	00000000 	nop
9d00df6c:	8fbf0014 	lw	ra,20(sp)
9d00df70:	03e00008 	jr	ra
9d00df74:	27bd0018 	addiu	sp,sp,24

Disassembly of section .text.vfscanf:

9d00df78 <vfscanf>:
9d00df78:	27bdffe8 	addiu	sp,sp,-24
9d00df7c:	afbf0014 	sw	ra,20(sp)
9d00df80:	0f400780 	jal	9d001e00 <do_scan>
9d00df84:	00000000 	nop
9d00df88:	8fbf0014 	lw	ra,20(sp)
9d00df8c:	03e00008 	jr	ra
9d00df90:	27bd0018 	addiu	sp,sp,24

Disassembly of section .text.strtof:

9d00df94 <strtof>:
9d00df94:	27bdffe8 	addiu	sp,sp,-24
9d00df98:	afbf0014 	sw	ra,20(sp)
9d00df9c:	0f4021f7 	jal	9d0087dc <__strtof>
9d00dfa0:	00000000 	nop
9d00dfa4:	8fbf0014 	lw	ra,20(sp)
9d00dfa8:	03e00008 	jr	ra
9d00dfac:	27bd0018 	addiu	sp,sp,24

Disassembly of section .text.getc:

9d00dfb0 <getc>:
9d00dfb0:	27bdffe8 	addiu	sp,sp,-24
9d00dfb4:	afbf0014 	sw	ra,20(sp)
9d00dfb8:	0f4034c3 	jal	9d00d30c <fgetc>
9d00dfbc:	00000000 	nop
9d00dfc0:	8fbf0014 	lw	ra,20(sp)
9d00dfc4:	03e00008 	jr	ra
9d00dfc8:	27bd0018 	addiu	sp,sp,24

Disassembly of section .text.finitel:

9d00dfcc <finitel>:
9d00dfcc:	afa40000 	sw	a0,0(sp)
9d00dfd0:	afa50004 	sw	a1,4(sp)
9d00dfd4:	97a20006 	lhu	v0,6(sp)
9d00dfd8:	30427ff0 	andi	v0,v0,0x7ff0
9d00dfdc:	38427ff0 	xori	v0,v0,0x7ff0
9d00dfe0:	03e00008 	jr	ra
9d00dfe4:	0002102b 	sltu	v0,zero,v0

Disassembly of section .text.negdf2:

9d00dfe8 <__negdf2>:
9d00dfe8:	3c018000 00a12826 00041025 00051825     ...<&(..%...%...

9d00dff8 <M999>:
9d00dff8:	03e00008 	jr	ra
9d00dffc:	00000000 	nop
9d00e000:	00000000 	nop

Disassembly of section .text:

9d00e004 <_nmi_handler>:
9d00e004:	401a6000 	mfc0	k0,c0_status
9d00e008:	3c1bffbf 	lui	k1,0xffbf
9d00e00c:	377bffff 	ori	k1,k1,0xffff
9d00e010:	035bd024 	and	k0,k0,k1
9d00e014:	409a6000 	mtc0	k0,c0_status
9d00e018:	42000018 	eret

Disassembly of section .rodata:

9d00e01c <f5pow>:
9d00e01c:	40a00000 41c80000 441c4000 48bebc20     ...@...A.@.D ..H
9d00e02c:	520e1bca 649dc5ae                       ...R...d

Disassembly of section .text._io_exit:

9d00e034 <_io_exit>:
9d00e034:	3c02a000 	lui	v0,0xa000
9d00e038:	8c420080 	lw	v0,128(v0)
9d00e03c:	24030001 	li	v1,1
9d00e040:	03e00008 	jr	ra
9d00e044:	ac430038 	sw	v1,56(v0)

Disassembly of section .rodata:

9d00e048 <_io_funcs>:
9d00e048:	9d00dc04 9d00c384 9d00d18c 9d00d20c     ................
9d00e058:	9d00dcd4                                ....

Disassembly of section .text._io_exit:

9d00e05c <.text._io_exit>:
9d00e05c:	3c02a000 	lui	v0,0xa000
9d00e060:	8c420080 	lw	v0,128(v0)
9d00e064:	24030001 	li	v1,1
9d00e068:	03e00008 	jr	ra
9d00e06c:	ac430038 	sw	v1,56(v0)

Disassembly of section .rodata:

9d00e070 <_io_strfuncs>:
9d00e070:	9d00e0c4 9d00e0cc 9d00e0d4 9d00e0dc     ................
9d00e080:	9d00e0e4                                ....

Disassembly of section .text.negsf2:

9d00e084 <__negsf2>:
9d00e084:	3c018000 00811026                       ...<&...

9d00e08c <L999>:
9d00e08c:	03e00008 	jr	ra
9d00e090:	00000000 	nop
9d00e094:	00000000 	nop

Disassembly of section .rodata:

9d00e098 <.rodata>:
9d00e098:	41a00000 	0x41a00000
9d00e09c:	40a00000 	0x40a00000
9d00e0a0:	41200000 	0x41200000
9d00e0a4:	3983126f 	xori	v1,t4,0x126f
9d00e0a8:	3f800000 	0x3f800000
9d00e0ac:	bf800000 	cache	0x0,0(gp)
9d00e0b0:	40c90fdb 	0x40c90fdb

Disassembly of section .text._on_reset:

9d00e0b4 <_on_reset>:
9d00e0b4:	03e00008 	jr	ra
9d00e0b8:	00000000 	nop

Disassembly of section .text._on_bootstrap:

9d00e0bc <_on_bootstrap>:
9d00e0bc:	03e00008 	jr	ra
9d00e0c0:	00000000 	nop

Disassembly of section .text._filbuf_string:

9d00e0c4 <_filbuf_string>:
9d00e0c4:	03e00008 	jr	ra
9d00e0c8:	2402ffff 	li	v0,-1

Disassembly of section .text._flsbuf_string:

9d00e0cc <_flsbuf_string>:
9d00e0cc:	03e00008 	jr	ra
9d00e0d0:	00801021 	move	v0,a0

Disassembly of section .text._fflush_string:

9d00e0d4 <_fflush_string>:
9d00e0d4:	03e00008 	jr	ra
9d00e0d8:	00001021 	move	v0,zero

Disassembly of section .text._fwrite_string:

9d00e0dc <_fwrite_string>:
9d00e0dc:	03e00008 	jr	ra
9d00e0e0:	00001021 	move	v0,zero

Disassembly of section .text._fsync_string:

9d00e0e4 <_fsync_string>:
9d00e0e4:	03e00008 	jr	ra
9d00e0e8:	24020001 	li	v0,1

Disassembly of section .text._weak_pthread_mutex_init:

9d00e0ec <_weak_pthread_mutex_init>:
9d00e0ec:	03e00008 	jr	ra
9d00e0f0:	00001021 	move	v0,zero

Disassembly of section .text._weak_pthread_mutex_destroy:

9d00e0f4 <_weak_pthread_mutex_destroy>:
9d00e0f4:	03e00008 	jr	ra
9d00e0f8:	00001021 	move	v0,zero

Disassembly of section .text._weak_pthread_mutex_lock:

9d00e0fc <_weak_pthread_mutex_lock>:
9d00e0fc:	03e00008 	jr	ra
9d00e100:	00001021 	move	v0,zero

Disassembly of section .text._weak_pthread_mutex_trylock:

9d00e104 <_weak_pthread_mutex_trylock>:
9d00e104:	03e00008 	jr	ra
9d00e108:	00001021 	move	v0,zero

Disassembly of section .text._weak_pthread_mutex_unlock:

9d00e10c <_weak_pthread_mutex_unlock>:
9d00e10c:	03e00008 	jr	ra
9d00e110:	00001021 	move	v0,zero

Disassembly of section .text._weak_pthread_mutex_setname_np:

9d00e114 <_weak_pthread_mutex_setname_np>:
9d00e114:	03e00008 	jr	ra
9d00e118:	00001021 	move	v0,zero

Disassembly of section .text._weak_pthread_mutexattr_init:

9d00e11c <_weak_pthread_mutexattr_init>:
9d00e11c:	03e00008 	jr	ra
9d00e120:	00001021 	move	v0,zero

Disassembly of section .text._weak_pthread_mutexattr_destroy:

9d00e124 <_weak_pthread_mutexattr_destroy>:
9d00e124:	03e00008 	jr	ra
9d00e128:	00001021 	move	v0,zero

Disassembly of section .text._weak_pthread_mutexattr_setname_np:

9d00e12c <_weak_pthread_mutexattr_setname_np>:
9d00e12c:	03e00008 	jr	ra
9d00e130:	00001021 	move	v0,zero

Disassembly of section .text._weak_pthread_mutexattr_settype_np:

9d00e134 <_weak_pthread_mutexattr_settype_np>:
9d00e134:	03e00008 	jr	ra
9d00e138:	00001021 	move	v0,zero

Disassembly of section .text._weak_pthread_sysconf_np:

9d00e13c <_weak_pthread_sysconf_np>:
9d00e13c:	03e00008 	jr	ra
9d00e140:	2402ffff 	li	v0,-1

Disassembly of section .text._weak_pthread_sigdisable_np:

9d00e144 <_weak_pthread_sigdisable_np>:
9d00e144:	03e00008 	jr	ra
9d00e148:	00000000 	nop

Disassembly of section .text._weak_pthread_sigrestore_np:

9d00e14c <_weak_pthread_sigrestore_np>:
9d00e14c:	03e00008 	jr	ra
9d00e150:	00000000 	nop

Disassembly of section .text._weak__pthread_cleanup_push:

9d00e154 <_weak__pthread_cleanup_push>:
9d00e154:	03e00008 	jr	ra
9d00e158:	00000000 	nop

Disassembly of section .text._weak__pthread_cleanup_pop:

9d00e15c <_weak__pthread_cleanup_pop>:
9d00e15c:	03e00008 	jr	ra
9d00e160:	00000000 	nop

Disassembly of section .text._weak__pthread_cleanup_push_defer:

9d00e164 <_weak__pthread_cleanup_push_defer>:
9d00e164:	03e00008 	jr	ra
9d00e168:	00000000 	nop

Disassembly of section .text._weak__pthread_cleanup_pop_restore:

9d00e16c <_weak__pthread_cleanup_pop_restore>:
9d00e16c:	03e00008 	jr	ra
9d00e170:	00000000 	nop

Disassembly of section .text._weak_pthread_key_create:

9d00e174 <_weak_pthread_key_create>:
9d00e174:	03e00008 	jr	ra
9d00e178:	2402ffff 	li	v0,-1

Disassembly of section .text._weak_pthread_setspecific:

9d00e17c <_weak_pthread_setspecific>:
9d00e17c:	03e00008 	jr	ra
9d00e180:	2402ffff 	li	v0,-1

Disassembly of section .text._weak_pthread_getspecific:

9d00e184 <_weak_pthread_getspecific>:
9d00e184:	03e00008 	jr	ra
9d00e188:	00001021 	move	v0,zero

Disassembly of section .text._weak__libc_private_storage:

9d00e18c <_weak__libc_private_storage>:
9d00e18c:	03e00008 	jr	ra
9d00e190:	00a01021 	move	v0,a1

Disassembly of section .text.getpagesize:

9d00e194 <getpagesize>:
9d00e194:	03e00008 	jr	ra
9d00e198:	24020080 	li	v0,128

Disassembly of section .text._exit:

9d00e19c <_exit>:
9d00e19c:	0b403867 	j	9d00e19c <_exit>
9d00e1a0:	00000000 	nop

Disassembly of section .text.isatty:

9d00e1a4 <isatty>:
9d00e1a4:	03e00008 	jr	ra
9d00e1a8:	00001021 	move	v0,zero

Disassembly of section .rodata:

9d00de0c <.rodata>:
9d00de0c:	40490fdb 	0x40490fdb
